
obj/kern/kernel:     file format elf64-x86-64


Disassembly of section .bootstrap:

0000000000100000 <_head64>:
// VMCALL to the VMM to get a multiboot map.
    movl $VMX_VMCALL_MBMAP, %eax
    vmcall
#endif

    movl $multiboot_info, %eax
  100000:	b8 00 70 10 00       	mov    $0x107000,%eax
    movl %ebx, (%eax)
  100005:	89 18                	mov    %ebx,(%rax)

#ifndef VMM_GUEST
    movw $0x1234,0x472			# warm boot
  100007:	66 c7 05 72 04 00 00 	movw   $0x1234,0x472(%rip)        # 100482 <verify_cpu_no_longmode+0x36f>
  10000e:	34 12 
#endif

# Reset the stack pointer in case we didn't come from the loader
    movl $0x7c00,%esp
  100010:	bc 00 7c 00 00       	mov    $0x7c00,%esp

    call verify_cpu   #check if CPU supports long mode
  100015:	e8 cc 00 00 00       	callq  1000e6 <verify_cpu>
#ifndef VMM_GUEST
    movl $CR4_PAE,%eax
  10001a:	b8 20 00 00 00       	mov    $0x20,%eax
#else
    movl $(CR4_PAE|CR4_VMXE),%eax
#endif
    movl %eax,%cr4
  10001f:	0f 22 e0             	mov    %rax,%cr4

# build an early boot pml4 at physical address pml4phys 

    #initializing the page tables
    movl $pml4,%edi
  100022:	bf 00 20 10 00       	mov    $0x102000,%edi
    xorl %eax,%eax
  100027:	31 c0                	xor    %eax,%eax
    movl $((4096/4)*5),%ecx  # moving these many words to the 6 pages with 4 second level pages + 1 3rd level + 1 4th level pages 
  100029:	b9 00 14 00 00       	mov    $0x1400,%ecx
    rep stosl
  10002e:	f3 ab                	rep stos %eax,%es:(%rdi)
    # creating a 4G boot page table
    # setting the 4th level page table only the second entry needed (PML4)
    movl $pml4,%eax
  100030:	b8 00 20 10 00       	mov    $0x102000,%eax
    movl $pdpt1, %ebx
  100035:	bb 00 30 10 00       	mov    $0x103000,%ebx
    orl $PTE_P,%ebx
  10003a:	83 cb 01             	or     $0x1,%ebx
    orl $PTE_W,%ebx
  10003d:	83 cb 02             	or     $0x2,%ebx
    movl %ebx,(%eax)
  100040:	89 18                	mov    %ebx,(%rax)

    movl $pdpt2, %ebx
  100042:	bb 00 40 10 00       	mov    $0x104000,%ebx
    orl $PTE_P,%ebx
  100047:	83 cb 01             	or     $0x1,%ebx
    orl $PTE_W,%ebx
  10004a:	83 cb 02             	or     $0x2,%ebx
    movl %ebx,0x8(%eax)
  10004d:	89 58 08             	mov    %ebx,0x8(%rax)

    # setting the 3rd level page table (PDPE)
    # 4 entries (counter in ecx), point to the next four physical pages (pgdirs)
    # pgdirs in 0xa0000--0xd000
    movl $pdpt1,%edi
  100050:	bf 00 30 10 00       	mov    $0x103000,%edi
    movl $pde1,%ebx
  100055:	bb 00 50 10 00       	mov    $0x105000,%ebx
    orl $PTE_P,%ebx
  10005a:	83 cb 01             	or     $0x1,%ebx
    orl $PTE_W,%ebx
  10005d:	83 cb 02             	or     $0x2,%ebx
    movl %ebx,(%edi)
  100060:	89 1f                	mov    %ebx,(%rdi)

    movl $pdpt2,%edi
  100062:	bf 00 40 10 00       	mov    $0x104000,%edi
    movl $pde2,%ebx
  100067:	bb 00 60 10 00       	mov    $0x106000,%ebx
    orl $PTE_P,%ebx
  10006c:	83 cb 01             	or     $0x1,%ebx
    orl $PTE_W,%ebx
  10006f:	83 cb 02             	or     $0x2,%ebx
    movl %ebx,(%edi)
  100072:	89 1f                	mov    %ebx,(%rdi)
    
    # setting the pgdir so that the LA=PA
    # mapping first 1G of mem at KERNBASE
    movl $128,%ecx
  100074:	b9 80 00 00 00       	mov    $0x80,%ecx
    # Start at the end and work backwards
    #leal (pml4 + 5*0x1000 - 0x8),%edi
    movl $pde1,%edi
  100079:	bf 00 50 10 00       	mov    $0x105000,%edi
    movl $pde2,%ebx
  10007e:	bb 00 60 10 00       	mov    $0x106000,%ebx
    #64th entry - 0x8004000000
    addl $256,%ebx 
  100083:	81 c3 00 01 00 00    	add    $0x100,%ebx
    # PTE_P|PTE_W|PTE_MBZ
    movl $0x00000183,%eax
  100089:	b8 83 01 00 00       	mov    $0x183,%eax
  1:
     movl %eax,(%edi)
  10008e:	89 07                	mov    %eax,(%rdi)
     movl %eax,(%ebx)
  100090:	89 03                	mov    %eax,(%rbx)
     addl $0x8,%edi
  100092:	83 c7 08             	add    $0x8,%edi
     addl $0x8,%ebx
  100095:	83 c3 08             	add    $0x8,%ebx
     addl $0x00200000,%eax
  100098:	05 00 00 20 00       	add    $0x200000,%eax
     subl $1,%ecx
  10009d:	83 e9 01             	sub    $0x1,%ecx
     cmp $0x0,%ecx
  1000a0:	83 f9 00             	cmp    $0x0,%ecx
     jne 1b
  1000a3:	75 e9                	jne    10008e <_head64+0x8e>
 /*    subl $1,%ecx */
 /*    cmp $0x0,%ecx */
 /*    jne 1b */

    # set the cr3 register
    movl $pml4,%eax
  1000a5:	b8 00 20 10 00       	mov    $0x102000,%eax
    movl %eax, %cr3
  1000aa:	0f 22 d8             	mov    %rax,%cr3

	
    # enable the long mode in MSR
    movl $EFER_MSR,%ecx
  1000ad:	b9 80 00 00 c0       	mov    $0xc0000080,%ecx
    rdmsr
  1000b2:	0f 32                	rdmsr  
    btsl $EFER_LME,%eax
  1000b4:	0f ba e8 08          	bts    $0x8,%eax
    wrmsr
  1000b8:	0f 30                	wrmsr  
    
    # enable paging 
    movl %cr0,%eax
  1000ba:	0f 20 c0             	mov    %cr0,%rax
    orl $CR0_PE,%eax
  1000bd:	83 c8 01             	or     $0x1,%eax
    orl $CR0_PG,%eax
  1000c0:	0d 00 00 00 80       	or     $0x80000000,%eax
    orl $CR0_AM,%eax
  1000c5:	0d 00 00 04 00       	or     $0x40000,%eax
    orl $CR0_WP,%eax
  1000ca:	0d 00 00 01 00       	or     $0x10000,%eax
    orl $CR0_MP,%eax
  1000cf:	83 c8 02             	or     $0x2,%eax
    movl %eax,%cr0
  1000d2:	0f 22 c0             	mov    %rax,%cr0
    #jump to long mode with CS=0 and

    movl $gdtdesc_64,%eax
  1000d5:	b8 18 10 10 00       	mov    $0x101018,%eax
    lgdt (%eax)
  1000da:	0f 01 10             	lgdt   (%rax)
    pushl $0x8
  1000dd:	6a 08                	pushq  $0x8
    movl $_start,%eax
  1000df:	b8 0c 00 20 00       	mov    $0x20000c,%eax
    pushl %eax
  1000e4:	50                   	push   %rax

00000000001000e5 <jumpto_longmode>:
    
    .globl jumpto_longmode
    .type jumpto_longmode,@function
jumpto_longmode:
    lret
  1000e5:	cb                   	lret   

00000000001000e6 <verify_cpu>:
/*     movabs $_back_from_head64, %rax */
/*     pushq %rax */
/*     lretq */

verify_cpu:
    pushfl                   # get eflags in eax -- standardard way to check for cpuid
  1000e6:	9c                   	pushfq 
    popl %eax
  1000e7:	58                   	pop    %rax
    movl %eax,%ecx
  1000e8:	89 c1                	mov    %eax,%ecx
    xorl $0x200000, %eax
  1000ea:	35 00 00 20 00       	xor    $0x200000,%eax
    pushl %eax
  1000ef:	50                   	push   %rax
    popfl
  1000f0:	9d                   	popfq  
    pushfl
  1000f1:	9c                   	pushfq 
    popl %eax
  1000f2:	58                   	pop    %rax
    cmpl %eax,%ebx
  1000f3:	39 c3                	cmp    %eax,%ebx
    jz verify_cpu_no_longmode   # no cpuid -- no long mode
  1000f5:	74 1c                	je     100113 <verify_cpu_no_longmode>

    movl $0x0,%eax              # see if cpuid 1 is implemented
  1000f7:	b8 00 00 00 00       	mov    $0x0,%eax
    cpuid
  1000fc:	0f a2                	cpuid  
    cmpl $0x1,%eax
  1000fe:	83 f8 01             	cmp    $0x1,%eax
    jb verify_cpu_no_longmode    # cpuid 1 is not implemented
  100101:	72 10                	jb     100113 <verify_cpu_no_longmode>


    mov $0x80000001, %eax
  100103:	b8 01 00 00 80       	mov    $0x80000001,%eax
    cpuid                 
  100108:	0f a2                	cpuid  
    test $(1 << 29),%edx                 #Test if the LM-bit, is set or not.
  10010a:	f7 c2 00 00 00 20    	test   $0x20000000,%edx
    jz verify_cpu_no_longmode
  100110:	74 01                	je     100113 <verify_cpu_no_longmode>

    ret
  100112:	c3                   	retq   

0000000000100113 <verify_cpu_no_longmode>:

verify_cpu_no_longmode:
    jmp verify_cpu_no_longmode
  100113:	eb fe                	jmp    100113 <verify_cpu_no_longmode>
	...

0000000000101000 <gdt_64>:
	...
  101008:	ff                   	(bad)  
  101009:	ff 00                	incl   (%rax)
  10100b:	00 00                	add    %al,(%rax)
  10100d:	9a                   	(bad)  
  10100e:	af                   	scas   %es:(%rdi),%eax
  10100f:	00 ff                	add    %bh,%bh
  101011:	ff 00                	incl   (%rax)
  101013:	00 00                	add    %al,(%rax)
  101015:	92                   	xchg   %eax,%edx
  101016:	cf                   	iret   
	...

0000000000101018 <gdtdesc_64>:
  101018:	17                   	(bad)  
  101019:	00 00                	add    %al,(%rax)
  10101b:	10 10                	adc    %dl,(%rax)
	...

0000000000102000 <pml4virt>:
	...

0000000000103000 <pdpt1>:
	...

0000000000104000 <pdpt2>:
	...

0000000000105000 <pde1>:
	...

0000000000106000 <pde2>:
	...

0000000000107000 <multiboot_info>:
  107000:	00 00                	add    %al,(%rax)
	...

Disassembly of section .text:

0000008004200000 <_start+0x8003fffff4>:
  8004200000:	02 b0 ad 1b 00 00    	add    0x1bad(%rax),%dh
  8004200006:	00 00                	add    %al,(%rax)
  8004200008:	fe 4f 52             	decb   0x52(%rdi)
  800420000b:	e4 48                	in     $0x48,%al

000000800420000c <entry>:
entry:

/* .globl _back_from_head64 */
/* _back_from_head64: */

    movabs   $gdtdesc_64,%rax
  800420000c:	48 b8 38 00 23 04 80 	movabs $0x8004230038,%rax
  8004200013:	00 00 00 
    lgdt     (%rax)
  8004200016:	0f 01 10             	lgdt   (%rax)
    movw    $DATA_SEL,%ax
  8004200019:	66 b8 10 00          	mov    $0x10,%ax
    movw    %ax,%ds
  800420001d:	8e d8                	mov    %eax,%ds
    movw    %ax,%ss
  800420001f:	8e d0                	mov    %eax,%ss
    movw    %ax,%fs
  8004200021:	8e e0                	mov    %eax,%fs
    movw    %ax,%gs
  8004200023:	8e e8                	mov    %eax,%gs
    movw    %ax,%es
  8004200025:	8e c0                	mov    %eax,%es
    pushq   $CODE_SEL
  8004200027:	6a 08                	pushq  $0x8
    movabs  $relocated,%rax
  8004200029:	48 b8 36 00 20 04 80 	movabs $0x8004200036,%rax
  8004200030:	00 00 00 
    pushq   %rax
  8004200033:	50                   	push   %rax
    lretq
  8004200034:	48 cb                	lretq  

0000008004200036 <relocated>:
relocated:

	# Clear the frame pointer register (RBP)
	# so that once we get into debugging C code,
	# stack backtraces will be terminated properly.
	movq	$0x0,%rbp			# nuke frame pointer
  8004200036:	48 c7 c5 00 00 00 00 	mov    $0x0,%rbp

	# Set the stack pointer
	movabs	$(bootstacktop),%rax
  800420003d:	48 b8 00 00 23 04 80 	movabs $0x8004230000,%rax
  8004200044:	00 00 00 
	movq  %rax,%rsp
  8004200047:	48 89 c4             	mov    %rax,%rsp

	# now to C code
    movabs $i386_init, %rax
  800420004a:	48 b8 a5 00 20 04 80 	movabs $0x80042000a5,%rax
  8004200051:	00 00 00 
	call *%rax
  8004200054:	ff d0                	callq  *%rax

0000008004200056 <spin>:

	# Should never get here, but in case we do, just spin.
spin:	jmp	spin
  8004200056:	eb fe                	jmp    8004200056 <spin>

0000008004200058 <xchg>:
	if (edxp)
		*edxp = edx;
}

static inline uint32_t
xchg(volatile uint32_t *addr,uint32_t newval){
  8004200058:	55                   	push   %rbp
  8004200059:	48 89 e5             	mov    %rsp,%rbp
  800420005c:	53                   	push   %rbx
  800420005d:	48 83 ec 20          	sub    $0x20,%rsp
  8004200061:	48 89 7d e0          	mov    %rdi,-0x20(%rbp)
  8004200065:	89 75 dc             	mov    %esi,-0x24(%rbp)
	uint32_t result;
	__asm __volatile("lock; xchgl %0, %1":
			 "+m" (*addr), "=a" (result):
  8004200068:	48 8b 55 e0          	mov    -0x20(%rbp),%rdx
}

static inline uint32_t
xchg(volatile uint32_t *addr,uint32_t newval){
	uint32_t result;
	__asm __volatile("lock; xchgl %0, %1":
  800420006c:	8b 45 dc             	mov    -0x24(%rbp),%eax
			 "+m" (*addr), "=a" (result):
  800420006f:	48 8b 4d e0          	mov    -0x20(%rbp),%rcx
}

static inline uint32_t
xchg(volatile uint32_t *addr,uint32_t newval){
	uint32_t result;
	__asm __volatile("lock; xchgl %0, %1":
  8004200073:	89 c3                	mov    %eax,%ebx
  8004200075:	89 d8                	mov    %ebx,%eax
  8004200077:	f0 87 02             	lock xchg %eax,(%rdx)
  800420007a:	89 c3                	mov    %eax,%ebx
  800420007c:	89 5d f4             	mov    %ebx,-0xc(%rbp)
			 "+m" (*addr), "=a" (result):
			 "1"(newval):
			 "cc");
	return result;
  800420007f:	8b 45 f4             	mov    -0xc(%rbp),%eax
}
  8004200082:	48 83 c4 20          	add    $0x20,%rsp
  8004200086:	5b                   	pop    %rbx
  8004200087:	5d                   	pop    %rbp
  8004200088:	c3                   	retq   

0000008004200089 <lock_kernel>:

extern struct spinlock kernel_lock;

static inline void
lock_kernel(void)
{
  8004200089:	55                   	push   %rbp
  800420008a:	48 89 e5             	mov    %rsp,%rbp
	spin_lock(&kernel_lock);
  800420008d:	48 bf 00 07 23 04 80 	movabs $0x8004230700,%rdi
  8004200094:	00 00 00 
  8004200097:	48 b8 b9 76 21 04 80 	movabs $0x80042176b9,%rax
  800420009e:	00 00 00 
  80042000a1:	ff d0                	callq  *%rax
}
  80042000a3:	5d                   	pop    %rbp
  80042000a4:	c3                   	retq   

00000080042000a5 <i386_init>:
static void boot_aps(void);


void
i386_init(void)
{
  80042000a5:	55                   	push   %rbp
  80042000a6:	48 89 e5             	mov    %rsp,%rbp
	extern char edata[], end[];

	// Before doing anything else, complete the ELF loading process.
	// Clear the uninitialized global data (BSS) section of our program.
	// This ensures that all static/global variables start out zero.
	memset(edata, 0, end - edata);
  80042000a9:	48 ba 10 60 49 04 80 	movabs $0x8004496010,%rdx
  80042000b0:	00 00 00 
  80042000b3:	48 b8 5e 14 48 04 80 	movabs $0x800448145e,%rax
  80042000ba:	00 00 00 
  80042000bd:	48 89 d1             	mov    %rdx,%rcx
  80042000c0:	48 29 c1             	sub    %rax,%rcx
  80042000c3:	48 89 c8             	mov    %rcx,%rax
  80042000c6:	48 89 c2             	mov    %rax,%rdx
  80042000c9:	be 00 00 00 00       	mov    $0x0,%esi
  80042000ce:	48 bf 5e 14 48 04 80 	movabs $0x800448145e,%rdi
  80042000d5:	00 00 00 
  80042000d8:	48 b8 47 03 21 04 80 	movabs $0x8004210347,%rax
  80042000df:	00 00 00 
  80042000e2:	ff d0                	callq  *%rax

	// Initialize the console.
	// Can't call cprintf until after we do this!
	cons_init();
  80042000e4:	48 b8 21 12 20 04 80 	movabs $0x8004201221,%rax
  80042000eb:	00 00 00 
  80042000ee:	ff d0                	callq  *%rax

	cprintf("6828 decimal is %o octal!\n", 6828);
  80042000f0:	be ac 1a 00 00       	mov    $0x1aac,%esi
  80042000f5:	48 bf 00 c4 21 04 80 	movabs $0x800421c400,%rdi
  80042000fc:	00 00 00 
  80042000ff:	b8 00 00 00 00       	mov    $0x0,%eax
  8004200104:	48 ba 7a 90 20 04 80 	movabs $0x800420907a,%rdx
  800420010b:	00 00 00 
  800420010e:	ff d2                	callq  *%rdx
	}
#endif

#ifndef VMM_GUEST
	extern char end[];
	end_debug = read_section_headers((0x10000+KERNBASE), (uintptr_t)end); 
  8004200110:	48 b8 10 60 49 04 80 	movabs $0x8004496010,%rax
  8004200117:	00 00 00 
  800420011a:	48 89 c6             	mov    %rax,%rsi
  800420011d:	48 bf 00 00 01 04 80 	movabs $0x8004010000,%rdi
  8004200124:	00 00 00 
  8004200127:	48 b8 0b 5e 21 04 80 	movabs $0x8004215e0b,%rax
  800420012e:	00 00 00 
  8004200131:	ff d0                	callq  *%rax
  8004200133:	48 ba 48 37 48 04 80 	movabs $0x8004483748,%rdx
  800420013a:	00 00 00 
  800420013d:	48 89 02             	mov    %rax,(%rdx)
#endif

	// Lab 2 memory management initialization functions
	x64_vm_init();
  8004200140:	b8 00 00 00 00       	mov    $0x0,%eax
  8004200145:	48 ba a5 22 20 04 80 	movabs $0x80042022a5,%rdx
  800420014c:	00 00 00 
  800420014f:	ff d2                	callq  *%rdx

	// Lab 3 user environment initialization functions
	env_init();
  8004200151:	48 b8 05 76 20 04 80 	movabs $0x8004207605,%rax
  8004200158:	00 00 00 
  800420015b:	ff d0                	callq  *%rax
	trap_init();
  800420015d:	48 b8 00 92 20 04 80 	movabs $0x8004209200,%rax
  8004200164:	00 00 00 
  8004200167:	ff d0                	callq  *%rax

#ifndef VMM_GUEST
	// Lab 4 multiprocessor initialization functions
	mp_init();
  8004200169:	48 b8 87 6d 21 04 80 	movabs $0x8004216d87,%rax
  8004200170:	00 00 00 
  8004200173:	ff d0                	callq  *%rax
	lapic_init();
  8004200175:	48 b8 32 71 21 04 80 	movabs $0x8004217132,%rax
  800420017c:	00 00 00 
  800420017f:	ff d0                	callq  *%rax
#endif

	// Lab 4 multitasking initialization functions
	pic_init();
  8004200181:	48 b8 74 8d 20 04 80 	movabs $0x8004208d74,%rax
  8004200188:	00 00 00 
  800420018b:	ff d0                	callq  *%rax

	// Acquire the big kernel lock before waking up APs
	// Your code here:

#ifndef VMM_GUEST
	lock_kernel();
  800420018d:	48 b8 89 00 20 04 80 	movabs $0x8004200089,%rax
  8004200194:	00 00 00 
  8004200197:	ff d0                	callq  *%rax
	// Starting non-boot CPUs
	boot_aps();
  8004200199:	48 b8 f3 01 20 04 80 	movabs $0x80042001f3,%rax
  80042001a0:	00 00 00 
  80042001a3:	ff d0                	callq  *%rax
#endif

	// Start fs.
	ENV_CREATE(fs_fs, ENV_TYPE_FS);
  80042001a5:	be 01 00 00 00       	mov    $0x1,%esi
  80042001aa:	48 bf 31 d7 29 04 80 	movabs $0x800429d731,%rdi
  80042001b1:	00 00 00 
  80042001b4:	48 b8 9c 84 20 04 80 	movabs $0x800420849c,%rax
  80042001bb:	00 00 00 
  80042001be:	ff d0                	callq  *%rax
	// Touch all you want.
#if defined(TEST_EPT_MAP)
	test_ept_map();
#endif

	ENV_CREATE(user_icode, ENV_TYPE_USER);
  80042001c0:	be 00 00 00 00       	mov    $0x0,%esi
  80042001c5:	48 bf a9 60 28 04 80 	movabs $0x80042860a9,%rdi
  80042001cc:	00 00 00 
  80042001cf:	48 b8 9c 84 20 04 80 	movabs $0x800420849c,%rax
  80042001d6:	00 00 00 
  80042001d9:	ff d0                	callq  *%rax
#endif // TEST*

	// Should not be necessary - drains keyboard because interrupt has given up.
	kbd_intr();
  80042001db:	48 b8 51 10 20 04 80 	movabs $0x8004201051,%rax
  80042001e2:	00 00 00 
  80042001e5:	ff d0                	callq  *%rax

	// Schedule and run the first user environment!
	sched_yield();
  80042001e7:	48 b8 c4 d2 20 04 80 	movabs $0x800420d2c4,%rax
  80042001ee:	00 00 00 
  80042001f1:	ff d0                	callq  *%rax

00000080042001f3 <boot_aps>:
void *mpentry_kstack;

// Start the non-boot (AP) processors.
static void
boot_aps(void)
{
  80042001f3:	55                   	push   %rbp
  80042001f4:	48 89 e5             	mov    %rsp,%rbp
  80042001f7:	48 83 ec 30          	sub    $0x30,%rsp
	extern unsigned char mpentry_start[], mpentry_end[];
	void *code;
	struct CpuInfo *c;

	// Write entry code to unused memory at MPENTRY_PADDR
	code = KADDR(MPENTRY_PADDR);
  80042001fb:	48 c7 45 f0 00 70 00 	movq   $0x7000,-0x10(%rbp)
  8004200202:	00 
  8004200203:	48 8b 45 f0          	mov    -0x10(%rbp),%rax
  8004200207:	48 c1 e8 0c          	shr    $0xc,%rax
  800420020b:	89 45 ec             	mov    %eax,-0x14(%rbp)
  800420020e:	8b 55 ec             	mov    -0x14(%rbp),%edx
  8004200211:	48 b8 70 37 48 04 80 	movabs $0x8004483770,%rax
  8004200218:	00 00 00 
  800420021b:	48 8b 00             	mov    (%rax),%rax
  800420021e:	48 39 c2             	cmp    %rax,%rdx
  8004200221:	72 32                	jb     8004200255 <boot_aps+0x62>
  8004200223:	48 8b 45 f0          	mov    -0x10(%rbp),%rax
  8004200227:	48 89 c1             	mov    %rax,%rcx
  800420022a:	48 ba 20 c4 21 04 80 	movabs $0x800421c420,%rdx
  8004200231:	00 00 00 
  8004200234:	be 83 00 00 00       	mov    $0x83,%esi
  8004200239:	48 bf 43 c4 21 04 80 	movabs $0x800421c443,%rdi
  8004200240:	00 00 00 
  8004200243:	b8 00 00 00 00       	mov    $0x0,%eax
  8004200248:	49 b8 c2 04 20 04 80 	movabs $0x80042004c2,%r8
  800420024f:	00 00 00 
  8004200252:	41 ff d0             	callq  *%r8
  8004200255:	48 b8 00 00 00 04 80 	movabs $0x8004000000,%rax
  800420025c:	00 00 00 
  800420025f:	48 03 45 f0          	add    -0x10(%rbp),%rax
  8004200263:	48 89 45 e0          	mov    %rax,-0x20(%rbp)
	memmove(code, mpentry_start, mpentry_end - mpentry_start);
  8004200267:	48 ba c6 68 21 04 80 	movabs $0x80042168c6,%rdx
  800420026e:	00 00 00 
  8004200271:	48 b8 e0 67 21 04 80 	movabs $0x80042167e0,%rax
  8004200278:	00 00 00 
  800420027b:	48 89 d1             	mov    %rdx,%rcx
  800420027e:	48 29 c1             	sub    %rax,%rcx
  8004200281:	48 89 c8             	mov    %rcx,%rax
  8004200284:	48 89 c2             	mov    %rax,%rdx
  8004200287:	48 8b 45 e0          	mov    -0x20(%rbp),%rax
  800420028b:	48 be e0 67 21 04 80 	movabs $0x80042167e0,%rsi
  8004200292:	00 00 00 
  8004200295:	48 89 c7             	mov    %rax,%rdi
  8004200298:	48 b8 d2 03 21 04 80 	movabs $0x80042103d2,%rax
  800420029f:	00 00 00 
  80042002a2:	ff d0                	callq  *%rax
	// Boot each AP one at a time
	for (c = cpus; c < cpus + ncpu; c++) {
  80042002a4:	48 b8 20 50 48 04 80 	movabs $0x8004485020,%rax
  80042002ab:	00 00 00 
  80042002ae:	48 89 45 f8          	mov    %rax,-0x8(%rbp)
  80042002b2:	e9 10 01 00 00       	jmpq   80042003c7 <boot_aps+0x1d4>
		if (c == cpus + cpunum())  // We've started already.
  80042002b7:	48 b8 2d 73 21 04 80 	movabs $0x800421732d,%rax
  80042002be:	00 00 00 
  80042002c1:	ff d0                	callq  *%rax
  80042002c3:	48 98                	cltq   
  80042002c5:	48 c1 e0 03          	shl    $0x3,%rax
  80042002c9:	48 89 c2             	mov    %rax,%rdx
  80042002cc:	48 c1 e2 04          	shl    $0x4,%rdx
  80042002d0:	48 01 c2             	add    %rax,%rdx
  80042002d3:	48 b8 20 50 48 04 80 	movabs $0x8004485020,%rax
  80042002da:	00 00 00 
  80042002dd:	48 01 d0             	add    %rdx,%rax
  80042002e0:	48 3b 45 f8          	cmp    -0x8(%rbp),%rax
  80042002e4:	0f 84 d4 00 00 00    	je     80042003be <boot_aps+0x1cb>
			continue;

		// Tell mpentry.S what stack to use 
		mpentry_kstack = percpu_kstacks[c - cpus] + KSTKSIZE;
  80042002ea:	48 8b 55 f8          	mov    -0x8(%rbp),%rdx
  80042002ee:	48 b8 20 50 48 04 80 	movabs $0x8004485020,%rax
  80042002f5:	00 00 00 
  80042002f8:	48 89 d1             	mov    %rdx,%rcx
  80042002fb:	48 29 c1             	sub    %rax,%rcx
  80042002fe:	48 89 c8             	mov    %rcx,%rax
  8004200301:	48 89 c2             	mov    %rax,%rdx
  8004200304:	48 c1 fa 03          	sar    $0x3,%rdx
  8004200308:	48 b8 f1 f0 f0 f0 f0 	movabs $0xf0f0f0f0f0f0f0f1,%rax
  800420030f:	f0 f0 f0 
  8004200312:	48 0f af c2          	imul   %rdx,%rax
  8004200316:	48 83 c0 01          	add    $0x1,%rax
  800420031a:	48 89 c2             	mov    %rax,%rdx
  800420031d:	48 c1 e2 10          	shl    $0x10,%rdx
  8004200321:	48 b8 00 60 48 04 80 	movabs $0x8004486000,%rax
  8004200328:	00 00 00 
  800420032b:	48 01 c2             	add    %rax,%rdx
  800420032e:	48 b8 58 37 48 04 80 	movabs $0x8004483758,%rax
  8004200335:	00 00 00 
  8004200338:	48 89 10             	mov    %rdx,(%rax)
		// Start the CPU at mpentry_start
		lapic_startap(c->cpu_id, PADDR(code));
  800420033b:	48 8b 45 e0          	mov    -0x20(%rbp),%rax
  800420033f:	48 89 45 d8          	mov    %rax,-0x28(%rbp)
  8004200343:	48 b8 ff ff ff 03 80 	movabs $0x8003ffffff,%rax
  800420034a:	00 00 00 
  800420034d:	48 39 45 d8          	cmp    %rax,-0x28(%rbp)
  8004200351:	77 32                	ja     8004200385 <boot_aps+0x192>
  8004200353:	48 8b 45 d8          	mov    -0x28(%rbp),%rax
  8004200357:	48 89 c1             	mov    %rax,%rcx
  800420035a:	48 ba 50 c4 21 04 80 	movabs $0x800421c450,%rdx
  8004200361:	00 00 00 
  8004200364:	be 8d 00 00 00       	mov    $0x8d,%esi
  8004200369:	48 bf 43 c4 21 04 80 	movabs $0x800421c443,%rdi
  8004200370:	00 00 00 
  8004200373:	b8 00 00 00 00       	mov    $0x0,%eax
  8004200378:	49 b8 c2 04 20 04 80 	movabs $0x80042004c2,%r8
  800420037f:	00 00 00 
  8004200382:	41 ff d0             	callq  *%r8
  8004200385:	48 b8 00 00 00 fc 7f 	movabs $0xffffff7ffc000000,%rax
  800420038c:	ff ff ff 
  800420038f:	48 03 45 d8          	add    -0x28(%rbp),%rax
  8004200393:	89 c2                	mov    %eax,%edx
  8004200395:	48 8b 45 f8          	mov    -0x8(%rbp),%rax
  8004200399:	0f b6 00             	movzbl (%rax),%eax
  800420039c:	0f b6 c0             	movzbl %al,%eax
  800420039f:	89 d6                	mov    %edx,%esi
  80042003a1:	89 c7                	mov    %eax,%edi
  80042003a3:	48 b8 9d 73 21 04 80 	movabs $0x800421739d,%rax
  80042003aa:	00 00 00 
  80042003ad:	ff d0                	callq  *%rax
		// Wait for the CPU to finish some basic setup in mp_main()
		while(c->cpu_status != CPU_STARTED)
  80042003af:	90                   	nop
  80042003b0:	48 8b 45 f8          	mov    -0x8(%rbp),%rax
  80042003b4:	8b 40 04             	mov    0x4(%rax),%eax
  80042003b7:	83 f8 01             	cmp    $0x1,%eax
  80042003ba:	75 f4                	jne    80042003b0 <boot_aps+0x1bd>
  80042003bc:	eb 01                	jmp    80042003bf <boot_aps+0x1cc>
	code = KADDR(MPENTRY_PADDR);
	memmove(code, mpentry_start, mpentry_end - mpentry_start);
	// Boot each AP one at a time
	for (c = cpus; c < cpus + ncpu; c++) {
		if (c == cpus + cpunum())  // We've started already.
			continue;
  80042003be:	90                   	nop

	// Write entry code to unused memory at MPENTRY_PADDR
	code = KADDR(MPENTRY_PADDR);
	memmove(code, mpentry_start, mpentry_end - mpentry_start);
	// Boot each AP one at a time
	for (c = cpus; c < cpus + ncpu; c++) {
  80042003bf:	48 81 45 f8 88 00 00 	addq   $0x88,-0x8(%rbp)
  80042003c6:	00 
  80042003c7:	48 b8 b0 50 48 04 80 	movabs $0x80044850b0,%rax
  80042003ce:	00 00 00 
  80042003d1:	8b 00                	mov    (%rax),%eax
  80042003d3:	48 98                	cltq   
  80042003d5:	48 c1 e0 03          	shl    $0x3,%rax
  80042003d9:	48 89 c2             	mov    %rax,%rdx
  80042003dc:	48 c1 e2 04          	shl    $0x4,%rdx
  80042003e0:	48 01 c2             	add    %rax,%rdx
  80042003e3:	48 b8 20 50 48 04 80 	movabs $0x8004485020,%rax
  80042003ea:	00 00 00 
  80042003ed:	48 01 d0             	add    %rdx,%rax
  80042003f0:	48 3b 45 f8          	cmp    -0x8(%rbp),%rax
  80042003f4:	0f 87 bd fe ff ff    	ja     80042002b7 <boot_aps+0xc4>
		lapic_startap(c->cpu_id, PADDR(code));
		// Wait for the CPU to finish some basic setup in mp_main()
		while(c->cpu_status != CPU_STARTED)
			;
	}
}
  80042003fa:	c9                   	leaveq 
  80042003fb:	c3                   	retq   

00000080042003fc <mp_main>:

// Setup code for APs
void
mp_main(void)
{
  80042003fc:	55                   	push   %rbp
  80042003fd:	48 89 e5             	mov    %rsp,%rbp
  8004200400:	48 83 ec 10          	sub    $0x10,%rsp
	// We are in high EIP now, safe to switch to kern_pgdir 
	lcr3(boot_cr3);
  8004200404:	48 b8 60 37 48 04 80 	movabs $0x8004483760,%rax
  800420040b:	00 00 00 
  800420040e:	48 8b 00             	mov    (%rax),%rax
  8004200411:	48 89 45 f8          	mov    %rax,-0x8(%rbp)
}

    static __inline void
lcr3(uint64_t val)
{
    __asm __volatile("movq %0,%%cr3" : : "r" (val));
  8004200415:	48 8b 45 f8          	mov    -0x8(%rbp),%rax
  8004200419:	0f 22 d8             	mov    %rax,%cr3
	cprintf("SMP: CPU %d starting\n", cpunum());
  800420041c:	48 b8 2d 73 21 04 80 	movabs $0x800421732d,%rax
  8004200423:	00 00 00 
  8004200426:	ff d0                	callq  *%rax
  8004200428:	89 c6                	mov    %eax,%esi
  800420042a:	48 bf 74 c4 21 04 80 	movabs $0x800421c474,%rdi
  8004200431:	00 00 00 
  8004200434:	b8 00 00 00 00       	mov    $0x0,%eax
  8004200439:	48 ba 7a 90 20 04 80 	movabs $0x800420907a,%rdx
  8004200440:	00 00 00 
  8004200443:	ff d2                	callq  *%rdx

	lapic_init();
  8004200445:	48 b8 32 71 21 04 80 	movabs $0x8004217132,%rax
  800420044c:	00 00 00 
  800420044f:	ff d0                	callq  *%rax
	env_init_percpu();
  8004200451:	48 b8 46 77 20 04 80 	movabs $0x8004207746,%rax
  8004200458:	00 00 00 
  800420045b:	ff d0                	callq  *%rax
	trap_init_percpu();
  800420045d:	48 b8 1d be 20 04 80 	movabs $0x800420be1d,%rax
  8004200464:	00 00 00 
  8004200467:	ff d0                	callq  *%rax
	xchg(&thiscpu->cpu_status, CPU_STARTED); // tell boot_aps() we're up
  8004200469:	48 b8 2d 73 21 04 80 	movabs $0x800421732d,%rax
  8004200470:	00 00 00 
  8004200473:	ff d0                	callq  *%rax
  8004200475:	48 98                	cltq   
  8004200477:	48 c1 e0 03          	shl    $0x3,%rax
  800420047b:	48 89 c2             	mov    %rax,%rdx
  800420047e:	48 c1 e2 04          	shl    $0x4,%rdx
  8004200482:	48 01 c2             	add    %rax,%rdx
  8004200485:	48 b8 20 50 48 04 80 	movabs $0x8004485020,%rax
  800420048c:	00 00 00 
  800420048f:	48 01 d0             	add    %rdx,%rax
  8004200492:	48 83 c0 04          	add    $0x4,%rax
  8004200496:	be 01 00 00 00       	mov    $0x1,%esi
  800420049b:	48 89 c7             	mov    %rax,%rdi
  800420049e:	48 b8 58 00 20 04 80 	movabs $0x8004200058,%rax
  80042004a5:	00 00 00 
  80042004a8:	ff d0                	callq  *%rax

	lock_kernel();
  80042004aa:	48 b8 89 00 20 04 80 	movabs $0x8004200089,%rax
  80042004b1:	00 00 00 
  80042004b4:	ff d0                	callq  *%rax
	// Now that we have finished some basic setup, call sched_yield()
	// to start running processes on this CPU.  But make sure that
	// only one CPU can enter the scheduler at a time!
	//
	// Your code here:
	sched_yield();
  80042004b6:	48 b8 c4 d2 20 04 80 	movabs $0x800420d2c4,%rax
  80042004bd:	00 00 00 
  80042004c0:	ff d0                	callq  *%rax

00000080042004c2 <_panic>:
 * Panic is called on unresolvable fatal errors.
 * It prints "panic: mesg", and then enters the kernel monitor.
 */
void
_panic(const char *file, int line, const char *fmt,...)
{
  80042004c2:	55                   	push   %rbp
  80042004c3:	48 89 e5             	mov    %rsp,%rbp
  80042004c6:	48 81 ec f0 00 00 00 	sub    $0xf0,%rsp
  80042004cd:	48 89 bd 28 ff ff ff 	mov    %rdi,-0xd8(%rbp)
  80042004d4:	89 b5 24 ff ff ff    	mov    %esi,-0xdc(%rbp)
  80042004da:	48 89 8d 68 ff ff ff 	mov    %rcx,-0x98(%rbp)
  80042004e1:	4c 89 85 70 ff ff ff 	mov    %r8,-0x90(%rbp)
  80042004e8:	4c 89 8d 78 ff ff ff 	mov    %r9,-0x88(%rbp)
  80042004ef:	84 c0                	test   %al,%al
  80042004f1:	74 20                	je     8004200513 <_panic+0x51>
  80042004f3:	0f 29 45 80          	movaps %xmm0,-0x80(%rbp)
  80042004f7:	0f 29 4d 90          	movaps %xmm1,-0x70(%rbp)
  80042004fb:	0f 29 55 a0          	movaps %xmm2,-0x60(%rbp)
  80042004ff:	0f 29 5d b0          	movaps %xmm3,-0x50(%rbp)
  8004200503:	0f 29 65 c0          	movaps %xmm4,-0x40(%rbp)
  8004200507:	0f 29 6d d0          	movaps %xmm5,-0x30(%rbp)
  800420050b:	0f 29 75 e0          	movaps %xmm6,-0x20(%rbp)
  800420050f:	0f 29 7d f0          	movaps %xmm7,-0x10(%rbp)
  8004200513:	48 89 95 18 ff ff ff 	mov    %rdx,-0xe8(%rbp)
	va_list ap;

	if (panicstr)
  800420051a:	48 b8 50 37 48 04 80 	movabs $0x8004483750,%rax
  8004200521:	00 00 00 
  8004200524:	48 8b 00             	mov    (%rax),%rax
  8004200527:	48 85 c0             	test   %rax,%rax
  800420052a:	0f 85 b7 00 00 00    	jne    80042005e7 <_panic+0x125>
		goto dead;
	panicstr = fmt;
  8004200530:	48 b8 50 37 48 04 80 	movabs $0x8004483750,%rax
  8004200537:	00 00 00 
  800420053a:	48 8b 95 18 ff ff ff 	mov    -0xe8(%rbp),%rdx
  8004200541:	48 89 10             	mov    %rdx,(%rax)

	// Be extra sure that the machine is in as reasonable state
	__asm __volatile("cli; cld");
  8004200544:	fa                   	cli    
  8004200545:	fc                   	cld    

	va_start(ap, fmt);
  8004200546:	c7 85 38 ff ff ff 18 	movl   $0x18,-0xc8(%rbp)
  800420054d:	00 00 00 
  8004200550:	c7 85 3c ff ff ff 30 	movl   $0x30,-0xc4(%rbp)
  8004200557:	00 00 00 
  800420055a:	48 8d 45 10          	lea    0x10(%rbp),%rax
  800420055e:	48 89 85 40 ff ff ff 	mov    %rax,-0xc0(%rbp)
  8004200565:	48 8d 85 50 ff ff ff 	lea    -0xb0(%rbp),%rax
  800420056c:	48 89 85 48 ff ff ff 	mov    %rax,-0xb8(%rbp)
	cprintf("kernel panic on CPU %d at %s:%d: ", cpunum(), file, line);
  8004200573:	48 b8 2d 73 21 04 80 	movabs $0x800421732d,%rax
  800420057a:	00 00 00 
  800420057d:	ff d0                	callq  *%rax
  800420057f:	8b 8d 24 ff ff ff    	mov    -0xdc(%rbp),%ecx
  8004200585:	48 8b 95 28 ff ff ff 	mov    -0xd8(%rbp),%rdx
  800420058c:	89 c6                	mov    %eax,%esi
  800420058e:	48 bf 90 c4 21 04 80 	movabs $0x800421c490,%rdi
  8004200595:	00 00 00 
  8004200598:	b8 00 00 00 00       	mov    $0x0,%eax
  800420059d:	49 b8 7a 90 20 04 80 	movabs $0x800420907a,%r8
  80042005a4:	00 00 00 
  80042005a7:	41 ff d0             	callq  *%r8
	vcprintf(fmt, ap);
  80042005aa:	48 8d 95 38 ff ff ff 	lea    -0xc8(%rbp),%rdx
  80042005b1:	48 8b 85 18 ff ff ff 	mov    -0xe8(%rbp),%rax
  80042005b8:	48 89 d6             	mov    %rdx,%rsi
  80042005bb:	48 89 c7             	mov    %rax,%rdi
  80042005be:	48 b8 1b 90 20 04 80 	movabs $0x800420901b,%rax
  80042005c5:	00 00 00 
  80042005c8:	ff d0                	callq  *%rax
	cprintf("\n");
  80042005ca:	48 bf b2 c4 21 04 80 	movabs $0x800421c4b2,%rdi
  80042005d1:	00 00 00 
  80042005d4:	b8 00 00 00 00       	mov    $0x0,%eax
  80042005d9:	48 ba 7a 90 20 04 80 	movabs $0x800420907a,%rdx
  80042005e0:	00 00 00 
  80042005e3:	ff d2                	callq  *%rdx
  80042005e5:	eb 01                	jmp    80042005e8 <_panic+0x126>
_panic(const char *file, int line, const char *fmt,...)
{
	va_list ap;

	if (panicstr)
		goto dead;
  80042005e7:	90                   	nop
	va_end(ap);

dead:
	/* break into the kernel monitor */
	while (1)
		monitor(NULL);
  80042005e8:	bf 00 00 00 00       	mov    $0x0,%edi
  80042005ed:	48 b8 1f 17 20 04 80 	movabs $0x800420171f,%rax
  80042005f4:	00 00 00 
  80042005f7:	ff d0                	callq  *%rax
  80042005f9:	eb ed                	jmp    80042005e8 <_panic+0x126>

00000080042005fb <_warn>:
}

/* like panic, but don't */
void
_warn(const char *file, int line, const char *fmt,...)
{
  80042005fb:	55                   	push   %rbp
  80042005fc:	48 89 e5             	mov    %rsp,%rbp
  80042005ff:	48 81 ec f0 00 00 00 	sub    $0xf0,%rsp
  8004200606:	48 89 bd 28 ff ff ff 	mov    %rdi,-0xd8(%rbp)
  800420060d:	89 b5 24 ff ff ff    	mov    %esi,-0xdc(%rbp)
  8004200613:	48 89 8d 68 ff ff ff 	mov    %rcx,-0x98(%rbp)
  800420061a:	4c 89 85 70 ff ff ff 	mov    %r8,-0x90(%rbp)
  8004200621:	4c 89 8d 78 ff ff ff 	mov    %r9,-0x88(%rbp)
  8004200628:	84 c0                	test   %al,%al
  800420062a:	74 20                	je     800420064c <_warn+0x51>
  800420062c:	0f 29 45 80          	movaps %xmm0,-0x80(%rbp)
  8004200630:	0f 29 4d 90          	movaps %xmm1,-0x70(%rbp)
  8004200634:	0f 29 55 a0          	movaps %xmm2,-0x60(%rbp)
  8004200638:	0f 29 5d b0          	movaps %xmm3,-0x50(%rbp)
  800420063c:	0f 29 65 c0          	movaps %xmm4,-0x40(%rbp)
  8004200640:	0f 29 6d d0          	movaps %xmm5,-0x30(%rbp)
  8004200644:	0f 29 75 e0          	movaps %xmm6,-0x20(%rbp)
  8004200648:	0f 29 7d f0          	movaps %xmm7,-0x10(%rbp)
  800420064c:	48 89 95 18 ff ff ff 	mov    %rdx,-0xe8(%rbp)
	va_list ap;

	va_start(ap, fmt);
  8004200653:	c7 85 38 ff ff ff 18 	movl   $0x18,-0xc8(%rbp)
  800420065a:	00 00 00 
  800420065d:	c7 85 3c ff ff ff 30 	movl   $0x30,-0xc4(%rbp)
  8004200664:	00 00 00 
  8004200667:	48 8d 45 10          	lea    0x10(%rbp),%rax
  800420066b:	48 89 85 40 ff ff ff 	mov    %rax,-0xc0(%rbp)
  8004200672:	48 8d 85 50 ff ff ff 	lea    -0xb0(%rbp),%rax
  8004200679:	48 89 85 48 ff ff ff 	mov    %rax,-0xb8(%rbp)
	cprintf("kernel warning at %s:%d: ", file, line);
  8004200680:	8b 95 24 ff ff ff    	mov    -0xdc(%rbp),%edx
  8004200686:	48 8b 85 28 ff ff ff 	mov    -0xd8(%rbp),%rax
  800420068d:	48 89 c6             	mov    %rax,%rsi
  8004200690:	48 bf b4 c4 21 04 80 	movabs $0x800421c4b4,%rdi
  8004200697:	00 00 00 
  800420069a:	b8 00 00 00 00       	mov    $0x0,%eax
  800420069f:	48 b9 7a 90 20 04 80 	movabs $0x800420907a,%rcx
  80042006a6:	00 00 00 
  80042006a9:	ff d1                	callq  *%rcx
	vcprintf(fmt, ap);
  80042006ab:	48 8d 95 38 ff ff ff 	lea    -0xc8(%rbp),%rdx
  80042006b2:	48 8b 85 18 ff ff ff 	mov    -0xe8(%rbp),%rax
  80042006b9:	48 89 d6             	mov    %rdx,%rsi
  80042006bc:	48 89 c7             	mov    %rax,%rdi
  80042006bf:	48 b8 1b 90 20 04 80 	movabs $0x800420901b,%rax
  80042006c6:	00 00 00 
  80042006c9:	ff d0                	callq  *%rax
	cprintf("\n");
  80042006cb:	48 bf b2 c4 21 04 80 	movabs $0x800421c4b2,%rdi
  80042006d2:	00 00 00 
  80042006d5:	b8 00 00 00 00       	mov    $0x0,%eax
  80042006da:	48 ba 7a 90 20 04 80 	movabs $0x800420907a,%rdx
  80042006e1:	00 00 00 
  80042006e4:	ff d2                	callq  *%rdx
	va_end(ap);
}
  80042006e6:	c9                   	leaveq 
  80042006e7:	c3                   	retq   

00000080042006e8 <delay>:
static void cons_putc(int c);

// Stupid I/O delay routine necessitated by historical PC design flaws
static void
delay(void)
{
  80042006e8:	55                   	push   %rbp
  80042006e9:	48 89 e5             	mov    %rsp,%rbp
  80042006ec:	53                   	push   %rbx
  80042006ed:	48 83 ec 28          	sub    $0x28,%rsp
  80042006f1:	c7 45 f4 84 00 00 00 	movl   $0x84,-0xc(%rbp)

    static __inline uint8_t
inb(int port)
{
    uint8_t data;
    __asm __volatile("inb %w1,%0" : "=a" (data) : "d" (port));
  80042006f8:	8b 55 f4             	mov    -0xc(%rbp),%edx
  80042006fb:	89 55 d4             	mov    %edx,-0x2c(%rbp)
  80042006fe:	8b 55 d4             	mov    -0x2c(%rbp),%edx
  8004200701:	ec                   	in     (%dx),%al
  8004200702:	89 c3                	mov    %eax,%ebx
  8004200704:	88 5d f3             	mov    %bl,-0xd(%rbp)
    return data;
  8004200707:	c7 45 ec 84 00 00 00 	movl   $0x84,-0x14(%rbp)

    static __inline uint8_t
inb(int port)
{
    uint8_t data;
    __asm __volatile("inb %w1,%0" : "=a" (data) : "d" (port));
  800420070e:	8b 55 ec             	mov    -0x14(%rbp),%edx
  8004200711:	89 55 d4             	mov    %edx,-0x2c(%rbp)
  8004200714:	8b 55 d4             	mov    -0x2c(%rbp),%edx
  8004200717:	ec                   	in     (%dx),%al
  8004200718:	89 c3                	mov    %eax,%ebx
  800420071a:	88 5d eb             	mov    %bl,-0x15(%rbp)
    return data;
  800420071d:	c7 45 e4 84 00 00 00 	movl   $0x84,-0x1c(%rbp)

    static __inline uint8_t
inb(int port)
{
    uint8_t data;
    __asm __volatile("inb %w1,%0" : "=a" (data) : "d" (port));
  8004200724:	8b 55 e4             	mov    -0x1c(%rbp),%edx
  8004200727:	89 55 d4             	mov    %edx,-0x2c(%rbp)
  800420072a:	8b 55 d4             	mov    -0x2c(%rbp),%edx
  800420072d:	ec                   	in     (%dx),%al
  800420072e:	89 c3                	mov    %eax,%ebx
  8004200730:	88 5d e3             	mov    %bl,-0x1d(%rbp)
    return data;
  8004200733:	c7 45 dc 84 00 00 00 	movl   $0x84,-0x24(%rbp)

    static __inline uint8_t
inb(int port)
{
    uint8_t data;
    __asm __volatile("inb %w1,%0" : "=a" (data) : "d" (port));
  800420073a:	8b 55 dc             	mov    -0x24(%rbp),%edx
  800420073d:	89 55 d4             	mov    %edx,-0x2c(%rbp)
  8004200740:	8b 55 d4             	mov    -0x2c(%rbp),%edx
  8004200743:	ec                   	in     (%dx),%al
  8004200744:	89 c3                	mov    %eax,%ebx
  8004200746:	88 5d db             	mov    %bl,-0x25(%rbp)
	inb(0x84);
	inb(0x84);
	inb(0x84);
	inb(0x84);
}
  8004200749:	48 83 c4 28          	add    $0x28,%rsp
  800420074d:	5b                   	pop    %rbx
  800420074e:	5d                   	pop    %rbp
  800420074f:	c3                   	retq   

0000008004200750 <serial_proc_data>:

static bool serial_exists;

static int
serial_proc_data(void)
{
  8004200750:	55                   	push   %rbp
  8004200751:	48 89 e5             	mov    %rsp,%rbp
  8004200754:	53                   	push   %rbx
  8004200755:	48 83 ec 18          	sub    $0x18,%rsp
  8004200759:	c7 45 f4 fd 03 00 00 	movl   $0x3fd,-0xc(%rbp)
  8004200760:	8b 55 f4             	mov    -0xc(%rbp),%edx
  8004200763:	89 55 e4             	mov    %edx,-0x1c(%rbp)
  8004200766:	8b 55 e4             	mov    -0x1c(%rbp),%edx
  8004200769:	ec                   	in     (%dx),%al
  800420076a:	89 c3                	mov    %eax,%ebx
  800420076c:	88 5d f3             	mov    %bl,-0xd(%rbp)
    return data;
  800420076f:	0f b6 45 f3          	movzbl -0xd(%rbp),%eax
	if (!(inb(COM1+COM_LSR) & COM_LSR_DATA))
  8004200773:	0f b6 c0             	movzbl %al,%eax
  8004200776:	83 e0 01             	and    $0x1,%eax
  8004200779:	85 c0                	test   %eax,%eax
  800420077b:	75 07                	jne    8004200784 <serial_proc_data+0x34>
		return -1;
  800420077d:	b8 ff ff ff ff       	mov    $0xffffffff,%eax
  8004200782:	eb 1d                	jmp    80042007a1 <serial_proc_data+0x51>
  8004200784:	c7 45 ec f8 03 00 00 	movl   $0x3f8,-0x14(%rbp)

    static __inline uint8_t
inb(int port)
{
    uint8_t data;
    __asm __volatile("inb %w1,%0" : "=a" (data) : "d" (port));
  800420078b:	8b 55 ec             	mov    -0x14(%rbp),%edx
  800420078e:	89 55 e4             	mov    %edx,-0x1c(%rbp)
  8004200791:	8b 55 e4             	mov    -0x1c(%rbp),%edx
  8004200794:	ec                   	in     (%dx),%al
  8004200795:	89 c3                	mov    %eax,%ebx
  8004200797:	88 5d eb             	mov    %bl,-0x15(%rbp)
    return data;
  800420079a:	0f b6 45 eb          	movzbl -0x15(%rbp),%eax
	return inb(COM1+COM_RX);
  800420079e:	0f b6 c0             	movzbl %al,%eax
}
  80042007a1:	48 83 c4 18          	add    $0x18,%rsp
  80042007a5:	5b                   	pop    %rbx
  80042007a6:	5d                   	pop    %rbp
  80042007a7:	c3                   	retq   

00000080042007a8 <serial_intr>:

void
serial_intr(void)
{
  80042007a8:	55                   	push   %rbp
  80042007a9:	48 89 e5             	mov    %rsp,%rbp
	if (serial_exists)
  80042007ac:	48 b8 00 20 48 04 80 	movabs $0x8004482000,%rax
  80042007b3:	00 00 00 
  80042007b6:	0f b6 00             	movzbl (%rax),%eax
  80042007b9:	84 c0                	test   %al,%al
  80042007bb:	74 16                	je     80042007d3 <serial_intr+0x2b>
		cons_intr(serial_proc_data);
  80042007bd:	48 bf 50 07 20 04 80 	movabs $0x8004200750,%rdi
  80042007c4:	00 00 00 
  80042007c7:	48 b8 a2 10 20 04 80 	movabs $0x80042010a2,%rax
  80042007ce:	00 00 00 
  80042007d1:	ff d0                	callq  *%rax
}
  80042007d3:	5d                   	pop    %rbp
  80042007d4:	c3                   	retq   

00000080042007d5 <serial_putc>:

static void
serial_putc(int c)
{
  80042007d5:	55                   	push   %rbp
  80042007d6:	48 89 e5             	mov    %rsp,%rbp
  80042007d9:	53                   	push   %rbx
  80042007da:	48 83 ec 28          	sub    $0x28,%rsp
  80042007de:	89 7d d4             	mov    %edi,-0x2c(%rbp)
	int i;

	for (i = 0;
  80042007e1:	c7 45 f4 00 00 00 00 	movl   $0x0,-0xc(%rbp)
  80042007e8:	eb 10                	jmp    80042007fa <serial_putc+0x25>
	     !(inb(COM1 + COM_LSR) & COM_LSR_TXRDY) && i < 12800;
	     i++)
		delay();
  80042007ea:	48 b8 e8 06 20 04 80 	movabs $0x80042006e8,%rax
  80042007f1:	00 00 00 
  80042007f4:	ff d0                	callq  *%rax
{
	int i;

	for (i = 0;
	     !(inb(COM1 + COM_LSR) & COM_LSR_TXRDY) && i < 12800;
	     i++)
  80042007f6:	83 45 f4 01          	addl   $0x1,-0xc(%rbp)
  80042007fa:	c7 45 f0 fd 03 00 00 	movl   $0x3fd,-0x10(%rbp)

    static __inline uint8_t
inb(int port)
{
    uint8_t data;
    __asm __volatile("inb %w1,%0" : "=a" (data) : "d" (port));
  8004200801:	8b 55 f0             	mov    -0x10(%rbp),%edx
  8004200804:	89 55 d0             	mov    %edx,-0x30(%rbp)
  8004200807:	8b 55 d0             	mov    -0x30(%rbp),%edx
  800420080a:	ec                   	in     (%dx),%al
  800420080b:	89 c3                	mov    %eax,%ebx
  800420080d:	88 5d ef             	mov    %bl,-0x11(%rbp)
    return data;
  8004200810:	0f b6 45 ef          	movzbl -0x11(%rbp),%eax
serial_putc(int c)
{
	int i;

	for (i = 0;
	     !(inb(COM1 + COM_LSR) & COM_LSR_TXRDY) && i < 12800;
  8004200814:	0f b6 c0             	movzbl %al,%eax
  8004200817:	83 e0 20             	and    $0x20,%eax
static void
serial_putc(int c)
{
	int i;

	for (i = 0;
  800420081a:	85 c0                	test   %eax,%eax
  800420081c:	75 09                	jne    8004200827 <serial_putc+0x52>
	     !(inb(COM1 + COM_LSR) & COM_LSR_TXRDY) && i < 12800;
  800420081e:	81 7d f4 ff 31 00 00 	cmpl   $0x31ff,-0xc(%rbp)
  8004200825:	7e c3                	jle    80042007ea <serial_putc+0x15>
	     i++)
		delay();

	outb(COM1 + COM_TX, c);
  8004200827:	8b 45 d4             	mov    -0x2c(%rbp),%eax
  800420082a:	0f b6 c0             	movzbl %al,%eax
  800420082d:	c7 45 e8 f8 03 00 00 	movl   $0x3f8,-0x18(%rbp)
  8004200834:	88 45 e7             	mov    %al,-0x19(%rbp)
}

    static __inline void
outb(int port, uint8_t data)
{
    __asm __volatile("outb %0,%w1" : : "a" (data), "d" (port));
  8004200837:	0f b6 45 e7          	movzbl -0x19(%rbp),%eax
  800420083b:	8b 55 e8             	mov    -0x18(%rbp),%edx
  800420083e:	ee                   	out    %al,(%dx)
}
  800420083f:	48 83 c4 28          	add    $0x28,%rsp
  8004200843:	5b                   	pop    %rbx
  8004200844:	5d                   	pop    %rbp
  8004200845:	c3                   	retq   

0000008004200846 <serial_init>:

static void
serial_init(void)
{
  8004200846:	55                   	push   %rbp
  8004200847:	48 89 e5             	mov    %rsp,%rbp
  800420084a:	53                   	push   %rbx
  800420084b:	48 83 ec 68          	sub    $0x68,%rsp
  800420084f:	c7 45 ec fa 03 00 00 	movl   $0x3fa,-0x14(%rbp)
  8004200856:	c6 45 eb 00          	movb   $0x0,-0x15(%rbp)
  800420085a:	0f b6 45 eb          	movzbl -0x15(%rbp),%eax
  800420085e:	8b 55 ec             	mov    -0x14(%rbp),%edx
  8004200861:	ee                   	out    %al,(%dx)
  8004200862:	c7 45 e4 fb 03 00 00 	movl   $0x3fb,-0x1c(%rbp)
  8004200869:	c6 45 e3 80          	movb   $0x80,-0x1d(%rbp)
  800420086d:	0f b6 45 e3          	movzbl -0x1d(%rbp),%eax
  8004200871:	8b 55 e4             	mov    -0x1c(%rbp),%edx
  8004200874:	ee                   	out    %al,(%dx)
  8004200875:	c7 45 dc f8 03 00 00 	movl   $0x3f8,-0x24(%rbp)
  800420087c:	c6 45 db 0c          	movb   $0xc,-0x25(%rbp)
  8004200880:	0f b6 45 db          	movzbl -0x25(%rbp),%eax
  8004200884:	8b 55 dc             	mov    -0x24(%rbp),%edx
  8004200887:	ee                   	out    %al,(%dx)
  8004200888:	c7 45 d4 f9 03 00 00 	movl   $0x3f9,-0x2c(%rbp)
  800420088f:	c6 45 d3 00          	movb   $0x0,-0x2d(%rbp)
  8004200893:	0f b6 45 d3          	movzbl -0x2d(%rbp),%eax
  8004200897:	8b 55 d4             	mov    -0x2c(%rbp),%edx
  800420089a:	ee                   	out    %al,(%dx)
  800420089b:	c7 45 cc fb 03 00 00 	movl   $0x3fb,-0x34(%rbp)
  80042008a2:	c6 45 cb 03          	movb   $0x3,-0x35(%rbp)
  80042008a6:	0f b6 45 cb          	movzbl -0x35(%rbp),%eax
  80042008aa:	8b 55 cc             	mov    -0x34(%rbp),%edx
  80042008ad:	ee                   	out    %al,(%dx)
  80042008ae:	c7 45 c4 fc 03 00 00 	movl   $0x3fc,-0x3c(%rbp)
  80042008b5:	c6 45 c3 00          	movb   $0x0,-0x3d(%rbp)
  80042008b9:	0f b6 45 c3          	movzbl -0x3d(%rbp),%eax
  80042008bd:	8b 55 c4             	mov    -0x3c(%rbp),%edx
  80042008c0:	ee                   	out    %al,(%dx)
  80042008c1:	c7 45 bc f9 03 00 00 	movl   $0x3f9,-0x44(%rbp)
  80042008c8:	c6 45 bb 01          	movb   $0x1,-0x45(%rbp)
  80042008cc:	0f b6 45 bb          	movzbl -0x45(%rbp),%eax
  80042008d0:	8b 55 bc             	mov    -0x44(%rbp),%edx
  80042008d3:	ee                   	out    %al,(%dx)
  80042008d4:	c7 45 b4 fd 03 00 00 	movl   $0x3fd,-0x4c(%rbp)

    static __inline uint8_t
inb(int port)
{
    uint8_t data;
    __asm __volatile("inb %w1,%0" : "=a" (data) : "d" (port));
  80042008db:	8b 55 b4             	mov    -0x4c(%rbp),%edx
  80042008de:	89 55 9c             	mov    %edx,-0x64(%rbp)
  80042008e1:	8b 55 9c             	mov    -0x64(%rbp),%edx
  80042008e4:	ec                   	in     (%dx),%al
  80042008e5:	89 c3                	mov    %eax,%ebx
  80042008e7:	88 5d b3             	mov    %bl,-0x4d(%rbp)
    return data;
  80042008ea:	0f b6 45 b3          	movzbl -0x4d(%rbp),%eax
	// Enable rcv interrupts
	outb(COM1+COM_IER, COM_IER_RDI);

	// Clear any preexisting overrun indications and interrupts
	// Serial port doesn't exist if COM_LSR returns 0xFF
	serial_exists = (inb(COM1+COM_LSR) != 0xFF);
  80042008ee:	3c ff                	cmp    $0xff,%al
  80042008f0:	0f 95 c2             	setne  %dl
  80042008f3:	48 b8 00 20 48 04 80 	movabs $0x8004482000,%rax
  80042008fa:	00 00 00 
  80042008fd:	88 10                	mov    %dl,(%rax)
  80042008ff:	c7 45 ac fa 03 00 00 	movl   $0x3fa,-0x54(%rbp)

    static __inline uint8_t
inb(int port)
{
    uint8_t data;
    __asm __volatile("inb %w1,%0" : "=a" (data) : "d" (port));
  8004200906:	8b 55 ac             	mov    -0x54(%rbp),%edx
  8004200909:	89 55 9c             	mov    %edx,-0x64(%rbp)
  800420090c:	8b 55 9c             	mov    -0x64(%rbp),%edx
  800420090f:	ec                   	in     (%dx),%al
  8004200910:	89 c3                	mov    %eax,%ebx
  8004200912:	88 5d ab             	mov    %bl,-0x55(%rbp)
    return data;
  8004200915:	c7 45 a4 f8 03 00 00 	movl   $0x3f8,-0x5c(%rbp)

    static __inline uint8_t
inb(int port)
{
    uint8_t data;
    __asm __volatile("inb %w1,%0" : "=a" (data) : "d" (port));
  800420091c:	8b 55 a4             	mov    -0x5c(%rbp),%edx
  800420091f:	89 55 9c             	mov    %edx,-0x64(%rbp)
  8004200922:	8b 55 9c             	mov    -0x64(%rbp),%edx
  8004200925:	ec                   	in     (%dx),%al
  8004200926:	89 c3                	mov    %eax,%ebx
  8004200928:	88 5d a3             	mov    %bl,-0x5d(%rbp)
	(void) inb(COM1+COM_IIR);
	(void) inb(COM1+COM_RX);

	// Enable serial interrupts
	if (serial_exists)
  800420092b:	48 b8 00 20 48 04 80 	movabs $0x8004482000,%rax
  8004200932:	00 00 00 
  8004200935:	0f b6 00             	movzbl (%rax),%eax
  8004200938:	84 c0                	test   %al,%al
  800420093a:	74 23                	je     800420095f <serial_init+0x119>
		irq_setmask_8259A(irq_mask_8259A & ~(1<<4));
  800420093c:	48 b8 04 06 23 04 80 	movabs $0x8004230604,%rax
  8004200943:	00 00 00 
  8004200946:	0f b7 00             	movzwl (%rax),%eax
  8004200949:	0f b7 c0             	movzwl %ax,%eax
  800420094c:	25 ef ff 00 00       	and    $0xffef,%eax
  8004200951:	89 c7                	mov    %eax,%edi
  8004200953:	48 b8 c6 8e 20 04 80 	movabs $0x8004208ec6,%rax
  800420095a:	00 00 00 
  800420095d:	ff d0                	callq  *%rax
}
  800420095f:	48 83 c4 68          	add    $0x68,%rsp
  8004200963:	5b                   	pop    %rbx
  8004200964:	5d                   	pop    %rbp
  8004200965:	c3                   	retq   

0000008004200966 <lpt_putc>:
// For information on PC parallel port programming, see the class References
// page.

static void
lpt_putc(int c)
{
  8004200966:	55                   	push   %rbp
  8004200967:	48 89 e5             	mov    %rsp,%rbp
  800420096a:	53                   	push   %rbx
  800420096b:	48 83 ec 38          	sub    $0x38,%rsp
  800420096f:	89 7d c4             	mov    %edi,-0x3c(%rbp)
	int i;

	for (i = 0; !(inb(0x378+1) & 0x80) && i < 12800; i++)
  8004200972:	c7 45 f4 00 00 00 00 	movl   $0x0,-0xc(%rbp)
  8004200979:	eb 10                	jmp    800420098b <lpt_putc+0x25>
		delay();
  800420097b:	48 b8 e8 06 20 04 80 	movabs $0x80042006e8,%rax
  8004200982:	00 00 00 
  8004200985:	ff d0                	callq  *%rax
static void
lpt_putc(int c)
{
	int i;

	for (i = 0; !(inb(0x378+1) & 0x80) && i < 12800; i++)
  8004200987:	83 45 f4 01          	addl   $0x1,-0xc(%rbp)
  800420098b:	c7 45 f0 79 03 00 00 	movl   $0x379,-0x10(%rbp)
  8004200992:	8b 55 f0             	mov    -0x10(%rbp),%edx
  8004200995:	89 55 c0             	mov    %edx,-0x40(%rbp)
  8004200998:	8b 55 c0             	mov    -0x40(%rbp),%edx
  800420099b:	ec                   	in     (%dx),%al
  800420099c:	89 c3                	mov    %eax,%ebx
  800420099e:	88 5d ef             	mov    %bl,-0x11(%rbp)
    return data;
  80042009a1:	0f b6 45 ef          	movzbl -0x11(%rbp),%eax
  80042009a5:	84 c0                	test   %al,%al
  80042009a7:	78 09                	js     80042009b2 <lpt_putc+0x4c>
  80042009a9:	81 7d f4 ff 31 00 00 	cmpl   $0x31ff,-0xc(%rbp)
  80042009b0:	7e c9                	jle    800420097b <lpt_putc+0x15>
		delay();
	outb(0x378+0, c);
  80042009b2:	8b 45 c4             	mov    -0x3c(%rbp),%eax
  80042009b5:	0f b6 c0             	movzbl %al,%eax
  80042009b8:	c7 45 e8 78 03 00 00 	movl   $0x378,-0x18(%rbp)
  80042009bf:	88 45 e7             	mov    %al,-0x19(%rbp)
}

    static __inline void
outb(int port, uint8_t data)
{
    __asm __volatile("outb %0,%w1" : : "a" (data), "d" (port));
  80042009c2:	0f b6 45 e7          	movzbl -0x19(%rbp),%eax
  80042009c6:	8b 55 e8             	mov    -0x18(%rbp),%edx
  80042009c9:	ee                   	out    %al,(%dx)
  80042009ca:	c7 45 e0 7a 03 00 00 	movl   $0x37a,-0x20(%rbp)
  80042009d1:	c6 45 df 0d          	movb   $0xd,-0x21(%rbp)
  80042009d5:	0f b6 45 df          	movzbl -0x21(%rbp),%eax
  80042009d9:	8b 55 e0             	mov    -0x20(%rbp),%edx
  80042009dc:	ee                   	out    %al,(%dx)
  80042009dd:	c7 45 d8 7a 03 00 00 	movl   $0x37a,-0x28(%rbp)
  80042009e4:	c6 45 d7 08          	movb   $0x8,-0x29(%rbp)
  80042009e8:	0f b6 45 d7          	movzbl -0x29(%rbp),%eax
  80042009ec:	8b 55 d8             	mov    -0x28(%rbp),%edx
  80042009ef:	ee                   	out    %al,(%dx)
	outb(0x378+2, 0x08|0x04|0x01);
	outb(0x378+2, 0x08);
}
  80042009f0:	48 83 c4 38          	add    $0x38,%rsp
  80042009f4:	5b                   	pop    %rbx
  80042009f5:	5d                   	pop    %rbp
  80042009f6:	c3                   	retq   

00000080042009f7 <cga_init>:
static uint16_t *crt_buf;
static uint16_t crt_pos;

static void
cga_init(void)
{
  80042009f7:	55                   	push   %rbp
  80042009f8:	48 89 e5             	mov    %rsp,%rbp
  80042009fb:	53                   	push   %rbx
  80042009fc:	48 83 ec 38          	sub    $0x38,%rsp
	volatile uint16_t *cp;
	uint16_t was;
	unsigned pos;

	cp = (uint16_t*) (KERNBASE + CGA_BUF);
  8004200a00:	c7 45 f0 00 80 0b 04 	movl   $0x40b8000,-0x10(%rbp)
  8004200a07:	c7 45 f4 80 00 00 00 	movl   $0x80,-0xc(%rbp)
	was = *cp;
  8004200a0e:	48 8b 45 f0          	mov    -0x10(%rbp),%rax
  8004200a12:	0f b7 00             	movzwl (%rax),%eax
  8004200a15:	66 89 45 ee          	mov    %ax,-0x12(%rbp)
	*cp = (uint16_t) 0xA55A;
  8004200a19:	48 8b 45 f0          	mov    -0x10(%rbp),%rax
  8004200a1d:	66 c7 00 5a a5       	movw   $0xa55a,(%rax)
	if (*cp != 0xA55A) {
  8004200a22:	48 8b 45 f0          	mov    -0x10(%rbp),%rax
  8004200a26:	0f b7 00             	movzwl (%rax),%eax
  8004200a29:	66 3d 5a a5          	cmp    $0xa55a,%ax
  8004200a2d:	74 20                	je     8004200a4f <cga_init+0x58>
		cp = (uint16_t*) (KERNBASE + MONO_BUF);
  8004200a2f:	c7 45 f0 00 00 0b 04 	movl   $0x40b0000,-0x10(%rbp)
  8004200a36:	c7 45 f4 80 00 00 00 	movl   $0x80,-0xc(%rbp)
		addr_6845 = MONO_BASE;
  8004200a3d:	48 b8 04 20 48 04 80 	movabs $0x8004482004,%rax
  8004200a44:	00 00 00 
  8004200a47:	c7 00 b4 03 00 00    	movl   $0x3b4,(%rax)
  8004200a4d:	eb 1b                	jmp    8004200a6a <cga_init+0x73>
	} else {
		*cp = was;
  8004200a4f:	48 8b 45 f0          	mov    -0x10(%rbp),%rax
  8004200a53:	0f b7 55 ee          	movzwl -0x12(%rbp),%edx
  8004200a57:	66 89 10             	mov    %dx,(%rax)
		addr_6845 = CGA_BASE;
  8004200a5a:	48 b8 04 20 48 04 80 	movabs $0x8004482004,%rax
  8004200a61:	00 00 00 
  8004200a64:	c7 00 d4 03 00 00    	movl   $0x3d4,(%rax)
	}

	/* Extract cursor location */
	outb(addr_6845, 14);
  8004200a6a:	48 b8 04 20 48 04 80 	movabs $0x8004482004,%rax
  8004200a71:	00 00 00 
  8004200a74:	8b 00                	mov    (%rax),%eax
  8004200a76:	89 45 e4             	mov    %eax,-0x1c(%rbp)
  8004200a79:	c6 45 e3 0e          	movb   $0xe,-0x1d(%rbp)
  8004200a7d:	0f b6 45 e3          	movzbl -0x1d(%rbp),%eax
  8004200a81:	8b 55 e4             	mov    -0x1c(%rbp),%edx
  8004200a84:	ee                   	out    %al,(%dx)
	pos = inb(addr_6845 + 1) << 8;
  8004200a85:	48 b8 04 20 48 04 80 	movabs $0x8004482004,%rax
  8004200a8c:	00 00 00 
  8004200a8f:	8b 00                	mov    (%rax),%eax
  8004200a91:	83 c0 01             	add    $0x1,%eax
  8004200a94:	89 45 dc             	mov    %eax,-0x24(%rbp)

    static __inline uint8_t
inb(int port)
{
    uint8_t data;
    __asm __volatile("inb %w1,%0" : "=a" (data) : "d" (port));
  8004200a97:	8b 55 dc             	mov    -0x24(%rbp),%edx
  8004200a9a:	89 55 c4             	mov    %edx,-0x3c(%rbp)
  8004200a9d:	8b 55 c4             	mov    -0x3c(%rbp),%edx
  8004200aa0:	ec                   	in     (%dx),%al
  8004200aa1:	89 c3                	mov    %eax,%ebx
  8004200aa3:	88 5d db             	mov    %bl,-0x25(%rbp)
    return data;
  8004200aa6:	0f b6 45 db          	movzbl -0x25(%rbp),%eax
  8004200aaa:	0f b6 c0             	movzbl %al,%eax
  8004200aad:	c1 e0 08             	shl    $0x8,%eax
  8004200ab0:	89 45 e8             	mov    %eax,-0x18(%rbp)
	outb(addr_6845, 15);
  8004200ab3:	48 b8 04 20 48 04 80 	movabs $0x8004482004,%rax
  8004200aba:	00 00 00 
  8004200abd:	8b 00                	mov    (%rax),%eax
  8004200abf:	89 45 d4             	mov    %eax,-0x2c(%rbp)
  8004200ac2:	c6 45 d3 0f          	movb   $0xf,-0x2d(%rbp)
}

    static __inline void
outb(int port, uint8_t data)
{
    __asm __volatile("outb %0,%w1" : : "a" (data), "d" (port));
  8004200ac6:	0f b6 45 d3          	movzbl -0x2d(%rbp),%eax
  8004200aca:	8b 55 d4             	mov    -0x2c(%rbp),%edx
  8004200acd:	ee                   	out    %al,(%dx)
	pos |= inb(addr_6845 + 1);
  8004200ace:	48 b8 04 20 48 04 80 	movabs $0x8004482004,%rax
  8004200ad5:	00 00 00 
  8004200ad8:	8b 00                	mov    (%rax),%eax
  8004200ada:	83 c0 01             	add    $0x1,%eax
  8004200add:	89 45 cc             	mov    %eax,-0x34(%rbp)

    static __inline uint8_t
inb(int port)
{
    uint8_t data;
    __asm __volatile("inb %w1,%0" : "=a" (data) : "d" (port));
  8004200ae0:	8b 55 cc             	mov    -0x34(%rbp),%edx
  8004200ae3:	89 55 c4             	mov    %edx,-0x3c(%rbp)
  8004200ae6:	8b 55 c4             	mov    -0x3c(%rbp),%edx
  8004200ae9:	ec                   	in     (%dx),%al
  8004200aea:	89 c3                	mov    %eax,%ebx
  8004200aec:	88 5d cb             	mov    %bl,-0x35(%rbp)
    return data;
  8004200aef:	0f b6 45 cb          	movzbl -0x35(%rbp),%eax
  8004200af3:	0f b6 c0             	movzbl %al,%eax
  8004200af6:	09 45 e8             	or     %eax,-0x18(%rbp)

	crt_buf = (uint16_t*) cp;
  8004200af9:	48 b8 08 20 48 04 80 	movabs $0x8004482008,%rax
  8004200b00:	00 00 00 
  8004200b03:	48 8b 55 f0          	mov    -0x10(%rbp),%rdx
  8004200b07:	48 89 10             	mov    %rdx,(%rax)
	crt_pos = pos;
  8004200b0a:	8b 45 e8             	mov    -0x18(%rbp),%eax
  8004200b0d:	89 c2                	mov    %eax,%edx
  8004200b0f:	48 b8 10 20 48 04 80 	movabs $0x8004482010,%rax
  8004200b16:	00 00 00 
  8004200b19:	66 89 10             	mov    %dx,(%rax)
}
  8004200b1c:	48 83 c4 38          	add    $0x38,%rsp
  8004200b20:	5b                   	pop    %rbx
  8004200b21:	5d                   	pop    %rbp
  8004200b22:	c3                   	retq   

0000008004200b23 <cga_putc>:



static void
cga_putc(int c)
{
  8004200b23:	55                   	push   %rbp
  8004200b24:	48 89 e5             	mov    %rsp,%rbp
  8004200b27:	48 83 ec 40          	sub    $0x40,%rsp
  8004200b2b:	89 7d cc             	mov    %edi,-0x34(%rbp)
	// if no attribute given, then use black on white
	if (!(c & ~0xFF))
  8004200b2e:	8b 45 cc             	mov    -0x34(%rbp),%eax
  8004200b31:	b0 00                	mov    $0x0,%al
  8004200b33:	85 c0                	test   %eax,%eax
  8004200b35:	75 07                	jne    8004200b3e <cga_putc+0x1b>
		c |= 0x0700;
  8004200b37:	81 4d cc 00 07 00 00 	orl    $0x700,-0x34(%rbp)

	switch (c & 0xff) {
  8004200b3e:	8b 45 cc             	mov    -0x34(%rbp),%eax
  8004200b41:	25 ff 00 00 00       	and    $0xff,%eax
  8004200b46:	83 f8 09             	cmp    $0x9,%eax
  8004200b49:	0f 84 f9 00 00 00    	je     8004200c48 <cga_putc+0x125>
  8004200b4f:	83 f8 09             	cmp    $0x9,%eax
  8004200b52:	7f 0a                	jg     8004200b5e <cga_putc+0x3b>
  8004200b54:	83 f8 08             	cmp    $0x8,%eax
  8004200b57:	74 18                	je     8004200b71 <cga_putc+0x4e>
  8004200b59:	e9 41 01 00 00       	jmpq   8004200c9f <cga_putc+0x17c>
  8004200b5e:	83 f8 0a             	cmp    $0xa,%eax
  8004200b61:	74 74                	je     8004200bd7 <cga_putc+0xb4>
  8004200b63:	83 f8 0d             	cmp    $0xd,%eax
  8004200b66:	0f 84 88 00 00 00    	je     8004200bf4 <cga_putc+0xd1>
  8004200b6c:	e9 2e 01 00 00       	jmpq   8004200c9f <cga_putc+0x17c>
	case '\b':
		if (crt_pos > 0) {
  8004200b71:	48 b8 10 20 48 04 80 	movabs $0x8004482010,%rax
  8004200b78:	00 00 00 
  8004200b7b:	0f b7 00             	movzwl (%rax),%eax
  8004200b7e:	66 85 c0             	test   %ax,%ax
  8004200b81:	0f 84 53 01 00 00    	je     8004200cda <cga_putc+0x1b7>
			crt_pos--;
  8004200b87:	48 b8 10 20 48 04 80 	movabs $0x8004482010,%rax
  8004200b8e:	00 00 00 
  8004200b91:	0f b7 00             	movzwl (%rax),%eax
  8004200b94:	8d 50 ff             	lea    -0x1(%rax),%edx
  8004200b97:	48 b8 10 20 48 04 80 	movabs $0x8004482010,%rax
  8004200b9e:	00 00 00 
  8004200ba1:	66 89 10             	mov    %dx,(%rax)
			crt_buf[crt_pos] = (c & ~0xff) | ' ';
  8004200ba4:	48 b8 08 20 48 04 80 	movabs $0x8004482008,%rax
  8004200bab:	00 00 00 
  8004200bae:	48 8b 10             	mov    (%rax),%rdx
  8004200bb1:	48 b8 10 20 48 04 80 	movabs $0x8004482010,%rax
  8004200bb8:	00 00 00 
  8004200bbb:	0f b7 00             	movzwl (%rax),%eax
  8004200bbe:	0f b7 c0             	movzwl %ax,%eax
  8004200bc1:	48 01 c0             	add    %rax,%rax
  8004200bc4:	48 01 c2             	add    %rax,%rdx
  8004200bc7:	8b 45 cc             	mov    -0x34(%rbp),%eax
  8004200bca:	b0 00                	mov    $0x0,%al
  8004200bcc:	83 c8 20             	or     $0x20,%eax
  8004200bcf:	66 89 02             	mov    %ax,(%rdx)
		}
		break;
  8004200bd2:	e9 03 01 00 00       	jmpq   8004200cda <cga_putc+0x1b7>
	case '\n':
		crt_pos += CRT_COLS;
  8004200bd7:	48 b8 10 20 48 04 80 	movabs $0x8004482010,%rax
  8004200bde:	00 00 00 
  8004200be1:	0f b7 00             	movzwl (%rax),%eax
  8004200be4:	8d 50 50             	lea    0x50(%rax),%edx
  8004200be7:	48 b8 10 20 48 04 80 	movabs $0x8004482010,%rax
  8004200bee:	00 00 00 
  8004200bf1:	66 89 10             	mov    %dx,(%rax)
		/* fallthru */
	case '\r':
		crt_pos -= (crt_pos % CRT_COLS);
  8004200bf4:	48 b8 10 20 48 04 80 	movabs $0x8004482010,%rax
  8004200bfb:	00 00 00 
  8004200bfe:	0f b7 30             	movzwl (%rax),%esi
  8004200c01:	48 b8 10 20 48 04 80 	movabs $0x8004482010,%rax
  8004200c08:	00 00 00 
  8004200c0b:	0f b7 08             	movzwl (%rax),%ecx
  8004200c0e:	0f b7 c1             	movzwl %cx,%eax
  8004200c11:	69 c0 cd cc 00 00    	imul   $0xcccd,%eax,%eax
  8004200c17:	c1 e8 10             	shr    $0x10,%eax
  8004200c1a:	89 c2                	mov    %eax,%edx
  8004200c1c:	66 c1 ea 06          	shr    $0x6,%dx
  8004200c20:	89 d0                	mov    %edx,%eax
  8004200c22:	c1 e0 02             	shl    $0x2,%eax
  8004200c25:	01 d0                	add    %edx,%eax
  8004200c27:	c1 e0 04             	shl    $0x4,%eax
  8004200c2a:	89 ca                	mov    %ecx,%edx
  8004200c2c:	66 29 c2             	sub    %ax,%dx
  8004200c2f:	89 f0                	mov    %esi,%eax
  8004200c31:	66 29 d0             	sub    %dx,%ax
  8004200c34:	89 c2                	mov    %eax,%edx
  8004200c36:	48 b8 10 20 48 04 80 	movabs $0x8004482010,%rax
  8004200c3d:	00 00 00 
  8004200c40:	66 89 10             	mov    %dx,(%rax)
		break;
  8004200c43:	e9 93 00 00 00       	jmpq   8004200cdb <cga_putc+0x1b8>
	case '\t':
		cons_putc(' ');
  8004200c48:	bf 20 00 00 00       	mov    $0x20,%edi
  8004200c4d:	48 b8 e1 11 20 04 80 	movabs $0x80042011e1,%rax
  8004200c54:	00 00 00 
  8004200c57:	ff d0                	callq  *%rax
		cons_putc(' ');
  8004200c59:	bf 20 00 00 00       	mov    $0x20,%edi
  8004200c5e:	48 b8 e1 11 20 04 80 	movabs $0x80042011e1,%rax
  8004200c65:	00 00 00 
  8004200c68:	ff d0                	callq  *%rax
		cons_putc(' ');
  8004200c6a:	bf 20 00 00 00       	mov    $0x20,%edi
  8004200c6f:	48 b8 e1 11 20 04 80 	movabs $0x80042011e1,%rax
  8004200c76:	00 00 00 
  8004200c79:	ff d0                	callq  *%rax
		cons_putc(' ');
  8004200c7b:	bf 20 00 00 00       	mov    $0x20,%edi
  8004200c80:	48 b8 e1 11 20 04 80 	movabs $0x80042011e1,%rax
  8004200c87:	00 00 00 
  8004200c8a:	ff d0                	callq  *%rax
		cons_putc(' ');
  8004200c8c:	bf 20 00 00 00       	mov    $0x20,%edi
  8004200c91:	48 b8 e1 11 20 04 80 	movabs $0x80042011e1,%rax
  8004200c98:	00 00 00 
  8004200c9b:	ff d0                	callq  *%rax
		break;
  8004200c9d:	eb 3c                	jmp    8004200cdb <cga_putc+0x1b8>
	default:
		crt_buf[crt_pos++] = c;		/* write the character */
  8004200c9f:	48 b8 08 20 48 04 80 	movabs $0x8004482008,%rax
  8004200ca6:	00 00 00 
  8004200ca9:	48 8b 10             	mov    (%rax),%rdx
  8004200cac:	48 b8 10 20 48 04 80 	movabs $0x8004482010,%rax
  8004200cb3:	00 00 00 
  8004200cb6:	0f b7 00             	movzwl (%rax),%eax
  8004200cb9:	0f b7 c8             	movzwl %ax,%ecx
  8004200cbc:	48 01 c9             	add    %rcx,%rcx
  8004200cbf:	48 01 d1             	add    %rdx,%rcx
  8004200cc2:	8b 55 cc             	mov    -0x34(%rbp),%edx
  8004200cc5:	66 89 11             	mov    %dx,(%rcx)
  8004200cc8:	8d 50 01             	lea    0x1(%rax),%edx
  8004200ccb:	48 b8 10 20 48 04 80 	movabs $0x8004482010,%rax
  8004200cd2:	00 00 00 
  8004200cd5:	66 89 10             	mov    %dx,(%rax)
		break;
  8004200cd8:	eb 01                	jmp    8004200cdb <cga_putc+0x1b8>
	case '\b':
		if (crt_pos > 0) {
			crt_pos--;
			crt_buf[crt_pos] = (c & ~0xff) | ' ';
		}
		break;
  8004200cda:	90                   	nop
		crt_buf[crt_pos++] = c;		/* write the character */
		break;
	}

	// What is the purpose of this?
	if (crt_pos >= CRT_SIZE) {
  8004200cdb:	48 b8 10 20 48 04 80 	movabs $0x8004482010,%rax
  8004200ce2:	00 00 00 
  8004200ce5:	0f b7 00             	movzwl (%rax),%eax
  8004200ce8:	66 3d cf 07          	cmp    $0x7cf,%ax
  8004200cec:	0f 86 89 00 00 00    	jbe    8004200d7b <cga_putc+0x258>
		int i;

		memmove(crt_buf, crt_buf + CRT_COLS, (CRT_SIZE - CRT_COLS) * sizeof(uint16_t));
  8004200cf2:	48 b8 08 20 48 04 80 	movabs $0x8004482008,%rax
  8004200cf9:	00 00 00 
  8004200cfc:	48 8b 00             	mov    (%rax),%rax
  8004200cff:	48 8d 88 a0 00 00 00 	lea    0xa0(%rax),%rcx
  8004200d06:	48 b8 08 20 48 04 80 	movabs $0x8004482008,%rax
  8004200d0d:	00 00 00 
  8004200d10:	48 8b 00             	mov    (%rax),%rax
  8004200d13:	ba 00 0f 00 00       	mov    $0xf00,%edx
  8004200d18:	48 89 ce             	mov    %rcx,%rsi
  8004200d1b:	48 89 c7             	mov    %rax,%rdi
  8004200d1e:	48 b8 d2 03 21 04 80 	movabs $0x80042103d2,%rax
  8004200d25:	00 00 00 
  8004200d28:	ff d0                	callq  *%rax
		for (i = CRT_SIZE - CRT_COLS; i < CRT_SIZE; i++)
  8004200d2a:	c7 45 fc 80 07 00 00 	movl   $0x780,-0x4(%rbp)
  8004200d31:	eb 22                	jmp    8004200d55 <cga_putc+0x232>
			crt_buf[i] = 0x0700 | ' ';
  8004200d33:	48 b8 08 20 48 04 80 	movabs $0x8004482008,%rax
  8004200d3a:	00 00 00 
  8004200d3d:	48 8b 00             	mov    (%rax),%rax
  8004200d40:	8b 55 fc             	mov    -0x4(%rbp),%edx
  8004200d43:	48 63 d2             	movslq %edx,%rdx
  8004200d46:	48 01 d2             	add    %rdx,%rdx
  8004200d49:	48 01 d0             	add    %rdx,%rax
  8004200d4c:	66 c7 00 20 07       	movw   $0x720,(%rax)
	// What is the purpose of this?
	if (crt_pos >= CRT_SIZE) {
		int i;

		memmove(crt_buf, crt_buf + CRT_COLS, (CRT_SIZE - CRT_COLS) * sizeof(uint16_t));
		for (i = CRT_SIZE - CRT_COLS; i < CRT_SIZE; i++)
  8004200d51:	83 45 fc 01          	addl   $0x1,-0x4(%rbp)
  8004200d55:	81 7d fc cf 07 00 00 	cmpl   $0x7cf,-0x4(%rbp)
  8004200d5c:	7e d5                	jle    8004200d33 <cga_putc+0x210>
			crt_buf[i] = 0x0700 | ' ';
		crt_pos -= CRT_COLS;
  8004200d5e:	48 b8 10 20 48 04 80 	movabs $0x8004482010,%rax
  8004200d65:	00 00 00 
  8004200d68:	0f b7 00             	movzwl (%rax),%eax
  8004200d6b:	8d 50 b0             	lea    -0x50(%rax),%edx
  8004200d6e:	48 b8 10 20 48 04 80 	movabs $0x8004482010,%rax
  8004200d75:	00 00 00 
  8004200d78:	66 89 10             	mov    %dx,(%rax)
	}

	/* move that little blinky thing */
	outb(addr_6845, 14);
  8004200d7b:	48 b8 04 20 48 04 80 	movabs $0x8004482004,%rax
  8004200d82:	00 00 00 
  8004200d85:	8b 00                	mov    (%rax),%eax
  8004200d87:	89 45 f8             	mov    %eax,-0x8(%rbp)
  8004200d8a:	c6 45 f7 0e          	movb   $0xe,-0x9(%rbp)
}

    static __inline void
outb(int port, uint8_t data)
{
    __asm __volatile("outb %0,%w1" : : "a" (data), "d" (port));
  8004200d8e:	0f b6 45 f7          	movzbl -0x9(%rbp),%eax
  8004200d92:	8b 55 f8             	mov    -0x8(%rbp),%edx
  8004200d95:	ee                   	out    %al,(%dx)
	outb(addr_6845 + 1, crt_pos >> 8);
  8004200d96:	48 b8 10 20 48 04 80 	movabs $0x8004482010,%rax
  8004200d9d:	00 00 00 
  8004200da0:	0f b7 00             	movzwl (%rax),%eax
  8004200da3:	66 c1 e8 08          	shr    $0x8,%ax
  8004200da7:	0f b6 c0             	movzbl %al,%eax
  8004200daa:	48 ba 04 20 48 04 80 	movabs $0x8004482004,%rdx
  8004200db1:	00 00 00 
  8004200db4:	8b 12                	mov    (%rdx),%edx
  8004200db6:	83 c2 01             	add    $0x1,%edx
  8004200db9:	89 55 f0             	mov    %edx,-0x10(%rbp)
  8004200dbc:	88 45 ef             	mov    %al,-0x11(%rbp)
  8004200dbf:	0f b6 45 ef          	movzbl -0x11(%rbp),%eax
  8004200dc3:	8b 55 f0             	mov    -0x10(%rbp),%edx
  8004200dc6:	ee                   	out    %al,(%dx)
	outb(addr_6845, 15);
  8004200dc7:	48 b8 04 20 48 04 80 	movabs $0x8004482004,%rax
  8004200dce:	00 00 00 
  8004200dd1:	8b 00                	mov    (%rax),%eax
  8004200dd3:	89 45 e8             	mov    %eax,-0x18(%rbp)
  8004200dd6:	c6 45 e7 0f          	movb   $0xf,-0x19(%rbp)
  8004200dda:	0f b6 45 e7          	movzbl -0x19(%rbp),%eax
  8004200dde:	8b 55 e8             	mov    -0x18(%rbp),%edx
  8004200de1:	ee                   	out    %al,(%dx)
	outb(addr_6845 + 1, crt_pos);
  8004200de2:	48 b8 10 20 48 04 80 	movabs $0x8004482010,%rax
  8004200de9:	00 00 00 
  8004200dec:	0f b7 00             	movzwl (%rax),%eax
  8004200def:	0f b6 c0             	movzbl %al,%eax
  8004200df2:	48 ba 04 20 48 04 80 	movabs $0x8004482004,%rdx
  8004200df9:	00 00 00 
  8004200dfc:	8b 12                	mov    (%rdx),%edx
  8004200dfe:	83 c2 01             	add    $0x1,%edx
  8004200e01:	89 55 e0             	mov    %edx,-0x20(%rbp)
  8004200e04:	88 45 df             	mov    %al,-0x21(%rbp)
  8004200e07:	0f b6 45 df          	movzbl -0x21(%rbp),%eax
  8004200e0b:	8b 55 e0             	mov    -0x20(%rbp),%edx
  8004200e0e:	ee                   	out    %al,(%dx)
}
  8004200e0f:	c9                   	leaveq 
  8004200e10:	c3                   	retq   

0000008004200e11 <kbd_proc_data>:
 * Get data from the keyboard.  If we finish a character, return it.  Else 0.
 * Return -1 if no data.
 */
static int
kbd_proc_data(void)
{
  8004200e11:	55                   	push   %rbp
  8004200e12:	48 89 e5             	mov    %rsp,%rbp
  8004200e15:	53                   	push   %rbx
  8004200e16:	48 83 ec 38          	sub    $0x38,%rsp
  8004200e1a:	c7 45 e4 64 00 00 00 	movl   $0x64,-0x1c(%rbp)

    static __inline uint8_t
inb(int port)
{
    uint8_t data;
    __asm __volatile("inb %w1,%0" : "=a" (data) : "d" (port));
  8004200e21:	8b 55 e4             	mov    -0x1c(%rbp),%edx
  8004200e24:	89 55 cc             	mov    %edx,-0x34(%rbp)
  8004200e27:	8b 55 cc             	mov    -0x34(%rbp),%edx
  8004200e2a:	ec                   	in     (%dx),%al
  8004200e2b:	89 c3                	mov    %eax,%ebx
  8004200e2d:	88 5d e3             	mov    %bl,-0x1d(%rbp)
    return data;
  8004200e30:	0f b6 45 e3          	movzbl -0x1d(%rbp),%eax
	int c;
	uint8_t data;
	static uint32_t shift;

	if ((inb(KBSTATP) & KBS_DIB) == 0)
  8004200e34:	0f b6 c0             	movzbl %al,%eax
  8004200e37:	83 e0 01             	and    $0x1,%eax
  8004200e3a:	85 c0                	test   %eax,%eax
  8004200e3c:	75 0a                	jne    8004200e48 <kbd_proc_data+0x37>
		return -1;
  8004200e3e:	b8 ff ff ff ff       	mov    $0xffffffff,%eax
  8004200e43:	e9 02 02 00 00       	jmpq   800420104a <kbd_proc_data+0x239>
  8004200e48:	c7 45 dc 60 00 00 00 	movl   $0x60,-0x24(%rbp)

    static __inline uint8_t
inb(int port)
{
    uint8_t data;
    __asm __volatile("inb %w1,%0" : "=a" (data) : "d" (port));
  8004200e4f:	8b 55 dc             	mov    -0x24(%rbp),%edx
  8004200e52:	89 55 cc             	mov    %edx,-0x34(%rbp)
  8004200e55:	8b 55 cc             	mov    -0x34(%rbp),%edx
  8004200e58:	ec                   	in     (%dx),%al
  8004200e59:	89 c3                	mov    %eax,%ebx
  8004200e5b:	88 5d db             	mov    %bl,-0x25(%rbp)
    return data;
  8004200e5e:	0f b6 45 db          	movzbl -0x25(%rbp),%eax

	data = inb(KBDATAP);
  8004200e62:	88 45 eb             	mov    %al,-0x15(%rbp)

	if (data == 0xE0) {
  8004200e65:	80 7d eb e0          	cmpb   $0xe0,-0x15(%rbp)
  8004200e69:	75 27                	jne    8004200e92 <kbd_proc_data+0x81>
		// E0 escape character
		shift |= E0ESC;
  8004200e6b:	48 b8 28 22 48 04 80 	movabs $0x8004482228,%rax
  8004200e72:	00 00 00 
  8004200e75:	8b 00                	mov    (%rax),%eax
  8004200e77:	89 c2                	mov    %eax,%edx
  8004200e79:	83 ca 40             	or     $0x40,%edx
  8004200e7c:	48 b8 28 22 48 04 80 	movabs $0x8004482228,%rax
  8004200e83:	00 00 00 
  8004200e86:	89 10                	mov    %edx,(%rax)
		return 0;
  8004200e88:	b8 00 00 00 00       	mov    $0x0,%eax
  8004200e8d:	e9 b8 01 00 00       	jmpq   800420104a <kbd_proc_data+0x239>
	} else if (data & 0x80) {
  8004200e92:	0f b6 45 eb          	movzbl -0x15(%rbp),%eax
  8004200e96:	84 c0                	test   %al,%al
  8004200e98:	79 65                	jns    8004200eff <kbd_proc_data+0xee>
		// Key released
		data = (shift & E0ESC ? data : data & 0x7F);
  8004200e9a:	48 b8 28 22 48 04 80 	movabs $0x8004482228,%rax
  8004200ea1:	00 00 00 
  8004200ea4:	8b 00                	mov    (%rax),%eax
  8004200ea6:	83 e0 40             	and    $0x40,%eax
  8004200ea9:	85 c0                	test   %eax,%eax
  8004200eab:	75 09                	jne    8004200eb6 <kbd_proc_data+0xa5>
  8004200ead:	0f b6 45 eb          	movzbl -0x15(%rbp),%eax
  8004200eb1:	83 e0 7f             	and    $0x7f,%eax
  8004200eb4:	eb 04                	jmp    8004200eba <kbd_proc_data+0xa9>
  8004200eb6:	0f b6 45 eb          	movzbl -0x15(%rbp),%eax
  8004200eba:	88 45 eb             	mov    %al,-0x15(%rbp)
		shift &= ~(shiftcode[data] | E0ESC);
  8004200ebd:	0f b6 45 eb          	movzbl -0x15(%rbp),%eax
  8004200ec1:	48 ba 60 00 23 04 80 	movabs $0x8004230060,%rdx
  8004200ec8:	00 00 00 
  8004200ecb:	48 98                	cltq   
  8004200ecd:	0f b6 04 02          	movzbl (%rdx,%rax,1),%eax
  8004200ed1:	83 c8 40             	or     $0x40,%eax
  8004200ed4:	0f b6 c0             	movzbl %al,%eax
  8004200ed7:	f7 d0                	not    %eax
  8004200ed9:	89 c2                	mov    %eax,%edx
  8004200edb:	48 b8 28 22 48 04 80 	movabs $0x8004482228,%rax
  8004200ee2:	00 00 00 
  8004200ee5:	8b 00                	mov    (%rax),%eax
  8004200ee7:	21 c2                	and    %eax,%edx
  8004200ee9:	48 b8 28 22 48 04 80 	movabs $0x8004482228,%rax
  8004200ef0:	00 00 00 
  8004200ef3:	89 10                	mov    %edx,(%rax)
		return 0;
  8004200ef5:	b8 00 00 00 00       	mov    $0x0,%eax
  8004200efa:	e9 4b 01 00 00       	jmpq   800420104a <kbd_proc_data+0x239>
	} else if (shift & E0ESC) {
  8004200eff:	48 b8 28 22 48 04 80 	movabs $0x8004482228,%rax
  8004200f06:	00 00 00 
  8004200f09:	8b 00                	mov    (%rax),%eax
  8004200f0b:	83 e0 40             	and    $0x40,%eax
  8004200f0e:	85 c0                	test   %eax,%eax
  8004200f10:	74 21                	je     8004200f33 <kbd_proc_data+0x122>
		// Last character was an E0 escape; or with 0x80
		data |= 0x80;
  8004200f12:	80 4d eb 80          	orb    $0x80,-0x15(%rbp)
		shift &= ~E0ESC;
  8004200f16:	48 b8 28 22 48 04 80 	movabs $0x8004482228,%rax
  8004200f1d:	00 00 00 
  8004200f20:	8b 00                	mov    (%rax),%eax
  8004200f22:	89 c2                	mov    %eax,%edx
  8004200f24:	83 e2 bf             	and    $0xffffffbf,%edx
  8004200f27:	48 b8 28 22 48 04 80 	movabs $0x8004482228,%rax
  8004200f2e:	00 00 00 
  8004200f31:	89 10                	mov    %edx,(%rax)
	}

	shift |= shiftcode[data];
  8004200f33:	0f b6 45 eb          	movzbl -0x15(%rbp),%eax
  8004200f37:	48 ba 60 00 23 04 80 	movabs $0x8004230060,%rdx
  8004200f3e:	00 00 00 
  8004200f41:	48 98                	cltq   
  8004200f43:	0f b6 04 02          	movzbl (%rdx,%rax,1),%eax
  8004200f47:	0f b6 d0             	movzbl %al,%edx
  8004200f4a:	48 b8 28 22 48 04 80 	movabs $0x8004482228,%rax
  8004200f51:	00 00 00 
  8004200f54:	8b 00                	mov    (%rax),%eax
  8004200f56:	09 c2                	or     %eax,%edx
  8004200f58:	48 b8 28 22 48 04 80 	movabs $0x8004482228,%rax
  8004200f5f:	00 00 00 
  8004200f62:	89 10                	mov    %edx,(%rax)
	shift ^= togglecode[data];
  8004200f64:	0f b6 45 eb          	movzbl -0x15(%rbp),%eax
  8004200f68:	48 ba 60 01 23 04 80 	movabs $0x8004230160,%rdx
  8004200f6f:	00 00 00 
  8004200f72:	48 98                	cltq   
  8004200f74:	0f b6 04 02          	movzbl (%rdx,%rax,1),%eax
  8004200f78:	0f b6 d0             	movzbl %al,%edx
  8004200f7b:	48 b8 28 22 48 04 80 	movabs $0x8004482228,%rax
  8004200f82:	00 00 00 
  8004200f85:	8b 00                	mov    (%rax),%eax
  8004200f87:	31 c2                	xor    %eax,%edx
  8004200f89:	48 b8 28 22 48 04 80 	movabs $0x8004482228,%rax
  8004200f90:	00 00 00 
  8004200f93:	89 10                	mov    %edx,(%rax)

	c = charcode[shift & (CTL | SHIFT)][data];
  8004200f95:	48 b8 28 22 48 04 80 	movabs $0x8004482228,%rax
  8004200f9c:	00 00 00 
  8004200f9f:	8b 00                	mov    (%rax),%eax
  8004200fa1:	89 c2                	mov    %eax,%edx
  8004200fa3:	83 e2 03             	and    $0x3,%edx
  8004200fa6:	48 b8 60 05 23 04 80 	movabs $0x8004230560,%rax
  8004200fad:	00 00 00 
  8004200fb0:	89 d2                	mov    %edx,%edx
  8004200fb2:	48 8b 14 d0          	mov    (%rax,%rdx,8),%rdx
  8004200fb6:	0f b6 45 eb          	movzbl -0x15(%rbp),%eax
  8004200fba:	48 01 d0             	add    %rdx,%rax
  8004200fbd:	0f b6 00             	movzbl (%rax),%eax
  8004200fc0:	0f b6 c0             	movzbl %al,%eax
  8004200fc3:	89 45 ec             	mov    %eax,-0x14(%rbp)
	if (shift & CAPSLOCK) {
  8004200fc6:	48 b8 28 22 48 04 80 	movabs $0x8004482228,%rax
  8004200fcd:	00 00 00 
  8004200fd0:	8b 00                	mov    (%rax),%eax
  8004200fd2:	83 e0 08             	and    $0x8,%eax
  8004200fd5:	85 c0                	test   %eax,%eax
  8004200fd7:	74 22                	je     8004200ffb <kbd_proc_data+0x1ea>
		if ('a' <= c && c <= 'z')
  8004200fd9:	83 7d ec 60          	cmpl   $0x60,-0x14(%rbp)
  8004200fdd:	7e 0c                	jle    8004200feb <kbd_proc_data+0x1da>
  8004200fdf:	83 7d ec 7a          	cmpl   $0x7a,-0x14(%rbp)
  8004200fe3:	7f 06                	jg     8004200feb <kbd_proc_data+0x1da>
			c += 'A' - 'a';
  8004200fe5:	83 6d ec 20          	subl   $0x20,-0x14(%rbp)
  8004200fe9:	eb 10                	jmp    8004200ffb <kbd_proc_data+0x1ea>
		else if ('A' <= c && c <= 'Z')
  8004200feb:	83 7d ec 40          	cmpl   $0x40,-0x14(%rbp)
  8004200fef:	7e 0a                	jle    8004200ffb <kbd_proc_data+0x1ea>
  8004200ff1:	83 7d ec 5a          	cmpl   $0x5a,-0x14(%rbp)
  8004200ff5:	7f 04                	jg     8004200ffb <kbd_proc_data+0x1ea>
			c += 'a' - 'A';
  8004200ff7:	83 45 ec 20          	addl   $0x20,-0x14(%rbp)
	}

	// Process special keys
	// Ctrl-Alt-Del: reboot
	if (!(~shift & (CTL | ALT)) && c == KEY_DEL) {
  8004200ffb:	48 b8 28 22 48 04 80 	movabs $0x8004482228,%rax
  8004201002:	00 00 00 
  8004201005:	8b 00                	mov    (%rax),%eax
  8004201007:	f7 d0                	not    %eax
  8004201009:	83 e0 06             	and    $0x6,%eax
  800420100c:	85 c0                	test   %eax,%eax
  800420100e:	75 37                	jne    8004201047 <kbd_proc_data+0x236>
  8004201010:	81 7d ec e9 00 00 00 	cmpl   $0xe9,-0x14(%rbp)
  8004201017:	75 2e                	jne    8004201047 <kbd_proc_data+0x236>
		cprintf("Rebooting!\n");
  8004201019:	48 bf ce c4 21 04 80 	movabs $0x800421c4ce,%rdi
  8004201020:	00 00 00 
  8004201023:	b8 00 00 00 00       	mov    $0x0,%eax
  8004201028:	48 ba 7a 90 20 04 80 	movabs $0x800420907a,%rdx
  800420102f:	00 00 00 
  8004201032:	ff d2                	callq  *%rdx
  8004201034:	c7 45 d4 92 00 00 00 	movl   $0x92,-0x2c(%rbp)
  800420103b:	c6 45 d3 03          	movb   $0x3,-0x2d(%rbp)
}

    static __inline void
outb(int port, uint8_t data)
{
    __asm __volatile("outb %0,%w1" : : "a" (data), "d" (port));
  800420103f:	0f b6 45 d3          	movzbl -0x2d(%rbp),%eax
  8004201043:	8b 55 d4             	mov    -0x2c(%rbp),%edx
  8004201046:	ee                   	out    %al,(%dx)
		outb(0x92, 0x3); // courtesy of Chris Frost
	}

	return c;
  8004201047:	8b 45 ec             	mov    -0x14(%rbp),%eax
}
  800420104a:	48 83 c4 38          	add    $0x38,%rsp
  800420104e:	5b                   	pop    %rbx
  800420104f:	5d                   	pop    %rbp
  8004201050:	c3                   	retq   

0000008004201051 <kbd_intr>:

void
kbd_intr(void)
{
  8004201051:	55                   	push   %rbp
  8004201052:	48 89 e5             	mov    %rsp,%rbp
	cons_intr(kbd_proc_data);
  8004201055:	48 bf 11 0e 20 04 80 	movabs $0x8004200e11,%rdi
  800420105c:	00 00 00 
  800420105f:	48 b8 a2 10 20 04 80 	movabs $0x80042010a2,%rax
  8004201066:	00 00 00 
  8004201069:	ff d0                	callq  *%rax
}
  800420106b:	5d                   	pop    %rbp
  800420106c:	c3                   	retq   

000000800420106d <kbd_init>:

static void
kbd_init(void)
{
  800420106d:	55                   	push   %rbp
  800420106e:	48 89 e5             	mov    %rsp,%rbp
	// Drain the kbd buffer so that Bochs generates interrupts.
	kbd_intr();
  8004201071:	48 b8 51 10 20 04 80 	movabs $0x8004201051,%rax
  8004201078:	00 00 00 
  800420107b:	ff d0                	callq  *%rax
	irq_setmask_8259A(irq_mask_8259A & ~(1<<1));
  800420107d:	48 b8 04 06 23 04 80 	movabs $0x8004230604,%rax
  8004201084:	00 00 00 
  8004201087:	0f b7 00             	movzwl (%rax),%eax
  800420108a:	0f b7 c0             	movzwl %ax,%eax
  800420108d:	25 fd ff 00 00       	and    $0xfffd,%eax
  8004201092:	89 c7                	mov    %eax,%edi
  8004201094:	48 b8 c6 8e 20 04 80 	movabs $0x8004208ec6,%rax
  800420109b:	00 00 00 
  800420109e:	ff d0                	callq  *%rax
}
  80042010a0:	5d                   	pop    %rbp
  80042010a1:	c3                   	retq   

00000080042010a2 <cons_intr>:

// called by device interrupt routines to feed input characters
// into the circular console input buffer.
static void
cons_intr(int (*proc)(void))
{
  80042010a2:	55                   	push   %rbp
  80042010a3:	48 89 e5             	mov    %rsp,%rbp
  80042010a6:	48 83 ec 20          	sub    $0x20,%rsp
  80042010aa:	48 89 7d e8          	mov    %rdi,-0x18(%rbp)
	int c;

	while ((c = (*proc)()) != -1) {
  80042010ae:	eb 6c                	jmp    800420111c <cons_intr+0x7a>
		if (c == 0)
  80042010b0:	83 7d fc 00          	cmpl   $0x0,-0x4(%rbp)
  80042010b4:	74 65                	je     800420111b <cons_intr+0x79>
			continue;
		cons.buf[cons.wpos++] = c;
  80042010b6:	48 b8 20 20 48 04 80 	movabs $0x8004482020,%rax
  80042010bd:	00 00 00 
  80042010c0:	8b 80 04 02 00 00    	mov    0x204(%rax),%eax
  80042010c6:	8b 55 fc             	mov    -0x4(%rbp),%edx
  80042010c9:	89 d6                	mov    %edx,%esi
  80042010cb:	48 b9 20 20 48 04 80 	movabs $0x8004482020,%rcx
  80042010d2:	00 00 00 
  80042010d5:	89 c2                	mov    %eax,%edx
  80042010d7:	40 88 34 11          	mov    %sil,(%rcx,%rdx,1)
  80042010db:	8d 50 01             	lea    0x1(%rax),%edx
  80042010de:	48 b8 20 20 48 04 80 	movabs $0x8004482020,%rax
  80042010e5:	00 00 00 
  80042010e8:	89 90 04 02 00 00    	mov    %edx,0x204(%rax)
		if (cons.wpos == CONSBUFSIZE)
  80042010ee:	48 b8 20 20 48 04 80 	movabs $0x8004482020,%rax
  80042010f5:	00 00 00 
  80042010f8:	8b 80 04 02 00 00    	mov    0x204(%rax),%eax
  80042010fe:	3d 00 02 00 00       	cmp    $0x200,%eax
  8004201103:	75 17                	jne    800420111c <cons_intr+0x7a>
			cons.wpos = 0;
  8004201105:	48 b8 20 20 48 04 80 	movabs $0x8004482020,%rax
  800420110c:	00 00 00 
  800420110f:	c7 80 04 02 00 00 00 	movl   $0x0,0x204(%rax)
  8004201116:	00 00 00 
  8004201119:	eb 01                	jmp    800420111c <cons_intr+0x7a>
{
	int c;

	while ((c = (*proc)()) != -1) {
		if (c == 0)
			continue;
  800420111b:	90                   	nop
static void
cons_intr(int (*proc)(void))
{
	int c;

	while ((c = (*proc)()) != -1) {
  800420111c:	48 8b 45 e8          	mov    -0x18(%rbp),%rax
  8004201120:	ff d0                	callq  *%rax
  8004201122:	89 45 fc             	mov    %eax,-0x4(%rbp)
  8004201125:	83 7d fc ff          	cmpl   $0xffffffff,-0x4(%rbp)
  8004201129:	75 85                	jne    80042010b0 <cons_intr+0xe>
			continue;
		cons.buf[cons.wpos++] = c;
		if (cons.wpos == CONSBUFSIZE)
			cons.wpos = 0;
	}
}
  800420112b:	c9                   	leaveq 
  800420112c:	c3                   	retq   

000000800420112d <cons_getc>:

// return the next input character from the console, or 0 if none waiting
int
cons_getc(void)
{
  800420112d:	55                   	push   %rbp
  800420112e:	48 89 e5             	mov    %rsp,%rbp
  8004201131:	48 83 ec 10          	sub    $0x10,%rsp
	int c;

	// poll for any pending input characters,
	// so that this function works even when interrupts are disabled
	// (e.g., when called from the kernel monitor).
	serial_intr();
  8004201135:	48 b8 a8 07 20 04 80 	movabs $0x80042007a8,%rax
  800420113c:	00 00 00 
  800420113f:	ff d0                	callq  *%rax
	kbd_intr();
  8004201141:	48 b8 51 10 20 04 80 	movabs $0x8004201051,%rax
  8004201148:	00 00 00 
  800420114b:	ff d0                	callq  *%rax

	// grab the next character from the input buffer.
	if (cons.rpos != cons.wpos) {
  800420114d:	48 b8 20 20 48 04 80 	movabs $0x8004482020,%rax
  8004201154:	00 00 00 
  8004201157:	8b 90 00 02 00 00    	mov    0x200(%rax),%edx
  800420115d:	48 b8 20 20 48 04 80 	movabs $0x8004482020,%rax
  8004201164:	00 00 00 
  8004201167:	8b 80 04 02 00 00    	mov    0x204(%rax),%eax
  800420116d:	39 c2                	cmp    %eax,%edx
  800420116f:	74 69                	je     80042011da <cons_getc+0xad>
		c = cons.buf[cons.rpos++];
  8004201171:	48 b8 20 20 48 04 80 	movabs $0x8004482020,%rax
  8004201178:	00 00 00 
  800420117b:	8b 80 00 02 00 00    	mov    0x200(%rax),%eax
  8004201181:	48 b9 20 20 48 04 80 	movabs $0x8004482020,%rcx
  8004201188:	00 00 00 
  800420118b:	89 c2                	mov    %eax,%edx
  800420118d:	0f b6 14 11          	movzbl (%rcx,%rdx,1),%edx
  8004201191:	0f b6 d2             	movzbl %dl,%edx
  8004201194:	89 55 fc             	mov    %edx,-0x4(%rbp)
  8004201197:	8d 50 01             	lea    0x1(%rax),%edx
  800420119a:	48 b8 20 20 48 04 80 	movabs $0x8004482020,%rax
  80042011a1:	00 00 00 
  80042011a4:	89 90 00 02 00 00    	mov    %edx,0x200(%rax)
		if (cons.rpos == CONSBUFSIZE)
  80042011aa:	48 b8 20 20 48 04 80 	movabs $0x8004482020,%rax
  80042011b1:	00 00 00 
  80042011b4:	8b 80 00 02 00 00    	mov    0x200(%rax),%eax
  80042011ba:	3d 00 02 00 00       	cmp    $0x200,%eax
  80042011bf:	75 14                	jne    80042011d5 <cons_getc+0xa8>
			cons.rpos = 0;
  80042011c1:	48 b8 20 20 48 04 80 	movabs $0x8004482020,%rax
  80042011c8:	00 00 00 
  80042011cb:	c7 80 00 02 00 00 00 	movl   $0x0,0x200(%rax)
  80042011d2:	00 00 00 
		return c;
  80042011d5:	8b 45 fc             	mov    -0x4(%rbp),%eax
  80042011d8:	eb 05                	jmp    80042011df <cons_getc+0xb2>
	}
	return 0;
  80042011da:	b8 00 00 00 00       	mov    $0x0,%eax
}
  80042011df:	c9                   	leaveq 
  80042011e0:	c3                   	retq   

00000080042011e1 <cons_putc>:

// output a character to the console
static void
cons_putc(int c)
{
  80042011e1:	55                   	push   %rbp
  80042011e2:	48 89 e5             	mov    %rsp,%rbp
  80042011e5:	48 83 ec 10          	sub    $0x10,%rsp
  80042011e9:	89 7d fc             	mov    %edi,-0x4(%rbp)
	serial_putc(c);
  80042011ec:	8b 45 fc             	mov    -0x4(%rbp),%eax
  80042011ef:	89 c7                	mov    %eax,%edi
  80042011f1:	48 b8 d5 07 20 04 80 	movabs $0x80042007d5,%rax
  80042011f8:	00 00 00 
  80042011fb:	ff d0                	callq  *%rax
	lpt_putc(c);
  80042011fd:	8b 45 fc             	mov    -0x4(%rbp),%eax
  8004201200:	89 c7                	mov    %eax,%edi
  8004201202:	48 b8 66 09 20 04 80 	movabs $0x8004200966,%rax
  8004201209:	00 00 00 
  800420120c:	ff d0                	callq  *%rax
	cga_putc(c);
  800420120e:	8b 45 fc             	mov    -0x4(%rbp),%eax
  8004201211:	89 c7                	mov    %eax,%edi
  8004201213:	48 b8 23 0b 20 04 80 	movabs $0x8004200b23,%rax
  800420121a:	00 00 00 
  800420121d:	ff d0                	callq  *%rax
}
  800420121f:	c9                   	leaveq 
  8004201220:	c3                   	retq   

0000008004201221 <cons_init>:

// initialize the console devices
void
cons_init(void)
{
  8004201221:	55                   	push   %rbp
  8004201222:	48 89 e5             	mov    %rsp,%rbp
	cga_init();
  8004201225:	48 b8 f7 09 20 04 80 	movabs $0x80042009f7,%rax
  800420122c:	00 00 00 
  800420122f:	ff d0                	callq  *%rax
	kbd_init();
  8004201231:	48 b8 6d 10 20 04 80 	movabs $0x800420106d,%rax
  8004201238:	00 00 00 
  800420123b:	ff d0                	callq  *%rax
	serial_init();
  800420123d:	48 b8 46 08 20 04 80 	movabs $0x8004200846,%rax
  8004201244:	00 00 00 
  8004201247:	ff d0                	callq  *%rax

	if (!serial_exists)
  8004201249:	48 b8 00 20 48 04 80 	movabs $0x8004482000,%rax
  8004201250:	00 00 00 
  8004201253:	0f b6 00             	movzbl (%rax),%eax
  8004201256:	83 f0 01             	xor    $0x1,%eax
  8004201259:	84 c0                	test   %al,%al
  800420125b:	74 1b                	je     8004201278 <cons_init+0x57>
		cprintf("Serial port does not exist!\n");
  800420125d:	48 bf da c4 21 04 80 	movabs $0x800421c4da,%rdi
  8004201264:	00 00 00 
  8004201267:	b8 00 00 00 00       	mov    $0x0,%eax
  800420126c:	48 ba 7a 90 20 04 80 	movabs $0x800420907a,%rdx
  8004201273:	00 00 00 
  8004201276:	ff d2                	callq  *%rdx
}
  8004201278:	5d                   	pop    %rbp
  8004201279:	c3                   	retq   

000000800420127a <cputchar>:

// `High'-level console I/O.  Used by readline and cprintf.

void
cputchar(int c)
{
  800420127a:	55                   	push   %rbp
  800420127b:	48 89 e5             	mov    %rsp,%rbp
  800420127e:	48 83 ec 10          	sub    $0x10,%rsp
  8004201282:	89 7d fc             	mov    %edi,-0x4(%rbp)
	cons_putc(c);
  8004201285:	8b 45 fc             	mov    -0x4(%rbp),%eax
  8004201288:	89 c7                	mov    %eax,%edi
  800420128a:	48 b8 e1 11 20 04 80 	movabs $0x80042011e1,%rax
  8004201291:	00 00 00 
  8004201294:	ff d0                	callq  *%rax
}
  8004201296:	c9                   	leaveq 
  8004201297:	c3                   	retq   

0000008004201298 <getchar>:

int
getchar(void)
{
  8004201298:	55                   	push   %rbp
  8004201299:	48 89 e5             	mov    %rsp,%rbp
  800420129c:	48 83 ec 10          	sub    $0x10,%rsp
	int c;

	while ((c = cons_getc()) == 0)
  80042012a0:	48 b8 2d 11 20 04 80 	movabs $0x800420112d,%rax
  80042012a7:	00 00 00 
  80042012aa:	ff d0                	callq  *%rax
  80042012ac:	89 45 fc             	mov    %eax,-0x4(%rbp)
  80042012af:	83 7d fc 00          	cmpl   $0x0,-0x4(%rbp)
  80042012b3:	74 eb                	je     80042012a0 <getchar+0x8>
		/* do nothing */;
	return c;
  80042012b5:	8b 45 fc             	mov    -0x4(%rbp),%eax
}
  80042012b8:	c9                   	leaveq 
  80042012b9:	c3                   	retq   

00000080042012ba <iscons>:

int
iscons(int fdnum)
{
  80042012ba:	55                   	push   %rbp
  80042012bb:	48 89 e5             	mov    %rsp,%rbp
  80042012be:	48 83 ec 08          	sub    $0x8,%rsp
  80042012c2:	89 7d fc             	mov    %edi,-0x4(%rbp)
	// used by readline
	return 1;
  80042012c5:	b8 01 00 00 00       	mov    $0x1,%eax
}
  80042012ca:	c9                   	leaveq 
  80042012cb:	c3                   	retq   

00000080042012cc <mon_help>:

/***** Implementations of basic kernel monitor commands *****/

int
mon_help(int argc, char **argv, struct Trapframe *tf)
{
  80042012cc:	55                   	push   %rbp
  80042012cd:	48 89 e5             	mov    %rsp,%rbp
  80042012d0:	48 83 ec 30          	sub    $0x30,%rsp
  80042012d4:	89 7d ec             	mov    %edi,-0x14(%rbp)
  80042012d7:	48 89 75 e0          	mov    %rsi,-0x20(%rbp)
  80042012db:	48 89 55 d8          	mov    %rdx,-0x28(%rbp)
	int i;

	for (i = 0; i < NCOMMANDS; i++)
  80042012df:	c7 45 fc 00 00 00 00 	movl   $0x0,-0x4(%rbp)
  80042012e6:	eb 6c                	jmp    8004201354 <mon_help+0x88>
		cprintf("%s - %s\n", commands[i].name, commands[i].desc);
  80042012e8:	48 b9 80 05 23 04 80 	movabs $0x8004230580,%rcx
  80042012ef:	00 00 00 
  80042012f2:	8b 45 fc             	mov    -0x4(%rbp),%eax
  80042012f5:	48 63 d0             	movslq %eax,%rdx
  80042012f8:	48 89 d0             	mov    %rdx,%rax
  80042012fb:	48 01 c0             	add    %rax,%rax
  80042012fe:	48 01 d0             	add    %rdx,%rax
  8004201301:	48 c1 e0 03          	shl    $0x3,%rax
  8004201305:	48 01 c8             	add    %rcx,%rax
  8004201308:	48 8b 48 08          	mov    0x8(%rax),%rcx
  800420130c:	48 be 80 05 23 04 80 	movabs $0x8004230580,%rsi
  8004201313:	00 00 00 
  8004201316:	8b 45 fc             	mov    -0x4(%rbp),%eax
  8004201319:	48 63 d0             	movslq %eax,%rdx
  800420131c:	48 89 d0             	mov    %rdx,%rax
  800420131f:	48 01 c0             	add    %rax,%rax
  8004201322:	48 01 d0             	add    %rdx,%rax
  8004201325:	48 c1 e0 03          	shl    $0x3,%rax
  8004201329:	48 01 f0             	add    %rsi,%rax
  800420132c:	48 8b 00             	mov    (%rax),%rax
  800420132f:	48 89 ca             	mov    %rcx,%rdx
  8004201332:	48 89 c6             	mov    %rax,%rsi
  8004201335:	48 bf 4d c5 21 04 80 	movabs $0x800421c54d,%rdi
  800420133c:	00 00 00 
  800420133f:	b8 00 00 00 00       	mov    $0x0,%eax
  8004201344:	48 b9 7a 90 20 04 80 	movabs $0x800420907a,%rcx
  800420134b:	00 00 00 
  800420134e:	ff d1                	callq  *%rcx
int
mon_help(int argc, char **argv, struct Trapframe *tf)
{
	int i;

	for (i = 0; i < NCOMMANDS; i++)
  8004201350:	83 45 fc 01          	addl   $0x1,-0x4(%rbp)
  8004201354:	8b 45 fc             	mov    -0x4(%rbp),%eax
  8004201357:	83 f8 01             	cmp    $0x1,%eax
  800420135a:	76 8c                	jbe    80042012e8 <mon_help+0x1c>
		cprintf("%s - %s\n", commands[i].name, commands[i].desc);
	return 0;
  800420135c:	b8 00 00 00 00       	mov    $0x0,%eax
}
  8004201361:	c9                   	leaveq 
  8004201362:	c3                   	retq   

0000008004201363 <mon_kerninfo>:

int
mon_kerninfo(int argc, char **argv, struct Trapframe *tf)
{
  8004201363:	55                   	push   %rbp
  8004201364:	48 89 e5             	mov    %rsp,%rbp
  8004201367:	48 83 ec 30          	sub    $0x30,%rsp
  800420136b:	89 7d ec             	mov    %edi,-0x14(%rbp)
  800420136e:	48 89 75 e0          	mov    %rsi,-0x20(%rbp)
  8004201372:	48 89 55 d8          	mov    %rdx,-0x28(%rbp)
	extern char _start[], entry[], etext[], edata[], end[];

	cprintf("Special kernel symbols:\n");
  8004201376:	48 bf 56 c5 21 04 80 	movabs $0x800421c556,%rdi
  800420137d:	00 00 00 
  8004201380:	b8 00 00 00 00       	mov    $0x0,%eax
  8004201385:	48 ba 7a 90 20 04 80 	movabs $0x800420907a,%rdx
  800420138c:	00 00 00 
  800420138f:	ff d2                	callq  *%rdx
	cprintf("  _start                  %08x (phys)\n", _start);
  8004201391:	48 be 0c 00 20 00 00 	movabs $0x20000c,%rsi
  8004201398:	00 00 00 
  800420139b:	48 bf 70 c5 21 04 80 	movabs $0x800421c570,%rdi
  80042013a2:	00 00 00 
  80042013a5:	b8 00 00 00 00       	mov    $0x0,%eax
  80042013aa:	48 ba 7a 90 20 04 80 	movabs $0x800420907a,%rdx
  80042013b1:	00 00 00 
  80042013b4:	ff d2                	callq  *%rdx
	cprintf("  entry  %08x (virt)  %08x (phys)\n", entry, entry - KERNBASE);
  80042013b6:	48 ba 0c 00 20 00 00 	movabs $0x20000c,%rdx
  80042013bd:	00 00 00 
  80042013c0:	48 be 0c 00 20 04 80 	movabs $0x800420000c,%rsi
  80042013c7:	00 00 00 
  80042013ca:	48 bf 98 c5 21 04 80 	movabs $0x800421c598,%rdi
  80042013d1:	00 00 00 
  80042013d4:	b8 00 00 00 00       	mov    $0x0,%eax
  80042013d9:	48 b9 7a 90 20 04 80 	movabs $0x800420907a,%rcx
  80042013e0:	00 00 00 
  80042013e3:	ff d1                	callq  *%rcx
	cprintf("  etext  %08x (virt)  %08x (phys)\n", etext, etext - KERNBASE);
  80042013e5:	48 ba ec c3 21 00 00 	movabs $0x21c3ec,%rdx
  80042013ec:	00 00 00 
  80042013ef:	48 be ec c3 21 04 80 	movabs $0x800421c3ec,%rsi
  80042013f6:	00 00 00 
  80042013f9:	48 bf c0 c5 21 04 80 	movabs $0x800421c5c0,%rdi
  8004201400:	00 00 00 
  8004201403:	b8 00 00 00 00       	mov    $0x0,%eax
  8004201408:	48 b9 7a 90 20 04 80 	movabs $0x800420907a,%rcx
  800420140f:	00 00 00 
  8004201412:	ff d1                	callq  *%rcx
	cprintf("  edata  %08x (virt)  %08x (phys)\n", edata, edata - KERNBASE);
  8004201414:	48 ba 5e 14 48 00 00 	movabs $0x48145e,%rdx
  800420141b:	00 00 00 
  800420141e:	48 be 5e 14 48 04 80 	movabs $0x800448145e,%rsi
  8004201425:	00 00 00 
  8004201428:	48 bf e8 c5 21 04 80 	movabs $0x800421c5e8,%rdi
  800420142f:	00 00 00 
  8004201432:	b8 00 00 00 00       	mov    $0x0,%eax
  8004201437:	48 b9 7a 90 20 04 80 	movabs $0x800420907a,%rcx
  800420143e:	00 00 00 
  8004201441:	ff d1                	callq  *%rcx
	cprintf("  end    %08x (virt)  %08x (phys)\n", end, end - KERNBASE);
  8004201443:	48 ba 10 60 49 00 00 	movabs $0x496010,%rdx
  800420144a:	00 00 00 
  800420144d:	48 be 10 60 49 04 80 	movabs $0x8004496010,%rsi
  8004201454:	00 00 00 
  8004201457:	48 bf 10 c6 21 04 80 	movabs $0x800421c610,%rdi
  800420145e:	00 00 00 
  8004201461:	b8 00 00 00 00       	mov    $0x0,%eax
  8004201466:	48 b9 7a 90 20 04 80 	movabs $0x800420907a,%rcx
  800420146d:	00 00 00 
  8004201470:	ff d1                	callq  *%rcx
	cprintf("Kernel executable memory footprint: %dKB\n",
		ROUNDUP(end - entry, 1024) / 1024);
  8004201472:	48 c7 45 f8 00 04 00 	movq   $0x400,-0x8(%rbp)
  8004201479:	00 
  800420147a:	48 b8 0c 00 20 04 80 	movabs $0x800420000c,%rax
  8004201481:	00 00 00 
  8004201484:	48 8b 55 f8          	mov    -0x8(%rbp),%rdx
  8004201488:	48 29 c2             	sub    %rax,%rdx
  800420148b:	48 b8 10 60 49 04 80 	movabs $0x8004496010,%rax
  8004201492:	00 00 00 
  8004201495:	48 83 e8 01          	sub    $0x1,%rax
  8004201499:	48 01 d0             	add    %rdx,%rax
  800420149c:	48 89 45 f0          	mov    %rax,-0x10(%rbp)
  80042014a0:	48 8b 45 f0          	mov    -0x10(%rbp),%rax
  80042014a4:	ba 00 00 00 00       	mov    $0x0,%edx
  80042014a9:	48 f7 75 f8          	divq   -0x8(%rbp)
  80042014ad:	48 89 d0             	mov    %rdx,%rax
  80042014b0:	48 8b 55 f0          	mov    -0x10(%rbp),%rdx
  80042014b4:	48 89 d1             	mov    %rdx,%rcx
  80042014b7:	48 29 c1             	sub    %rax,%rcx
  80042014ba:	48 89 c8             	mov    %rcx,%rax
	cprintf("  _start                  %08x (phys)\n", _start);
	cprintf("  entry  %08x (virt)  %08x (phys)\n", entry, entry - KERNBASE);
	cprintf("  etext  %08x (virt)  %08x (phys)\n", etext, etext - KERNBASE);
	cprintf("  edata  %08x (virt)  %08x (phys)\n", edata, edata - KERNBASE);
	cprintf("  end    %08x (virt)  %08x (phys)\n", end, end - KERNBASE);
	cprintf("Kernel executable memory footprint: %dKB\n",
  80042014bd:	48 8d 90 ff 03 00 00 	lea    0x3ff(%rax),%rdx
  80042014c4:	48 85 c0             	test   %rax,%rax
  80042014c7:	48 0f 48 c2          	cmovs  %rdx,%rax
  80042014cb:	48 c1 f8 0a          	sar    $0xa,%rax
  80042014cf:	48 89 c6             	mov    %rax,%rsi
  80042014d2:	48 bf 38 c6 21 04 80 	movabs $0x800421c638,%rdi
  80042014d9:	00 00 00 
  80042014dc:	b8 00 00 00 00       	mov    $0x0,%eax
  80042014e1:	48 ba 7a 90 20 04 80 	movabs $0x800420907a,%rdx
  80042014e8:	00 00 00 
  80042014eb:	ff d2                	callq  *%rdx
		ROUNDUP(end - entry, 1024) / 1024);
	return 0;
  80042014ed:	b8 00 00 00 00       	mov    $0x0,%eax
}
  80042014f2:	c9                   	leaveq 
  80042014f3:	c3                   	retq   

00000080042014f4 <mon_backtrace>:

int
mon_backtrace(int argc, char **argv, struct Trapframe *tf)
{
  80042014f4:	55                   	push   %rbp
  80042014f5:	48 89 e5             	mov    %rsp,%rbp
  80042014f8:	48 83 ec 18          	sub    $0x18,%rsp
  80042014fc:	89 7d fc             	mov    %edi,-0x4(%rbp)
  80042014ff:	48 89 75 f0          	mov    %rsi,-0x10(%rbp)
  8004201503:	48 89 55 e8          	mov    %rdx,-0x18(%rbp)
	// Your code here.
	return 0;
  8004201507:	b8 00 00 00 00       	mov    $0x0,%eax
}
  800420150c:	c9                   	leaveq 
  800420150d:	c3                   	retq   

000000800420150e <runcmd>:
#define WHITESPACE "\t\r\n "
#define MAXARGS 16

static int
runcmd(char *buf, struct Trapframe *tf)
{
  800420150e:	55                   	push   %rbp
  800420150f:	48 89 e5             	mov    %rsp,%rbp
  8004201512:	48 81 ec a0 00 00 00 	sub    $0xa0,%rsp
  8004201519:	48 89 bd 68 ff ff ff 	mov    %rdi,-0x98(%rbp)
  8004201520:	48 89 b5 60 ff ff ff 	mov    %rsi,-0xa0(%rbp)
	int argc;
	char *argv[MAXARGS];
	int i;

	// Parse the command buffer into whitespace-separated arguments
	argc = 0;
  8004201527:	c7 45 fc 00 00 00 00 	movl   $0x0,-0x4(%rbp)
	argv[argc] = 0;
  800420152e:	8b 45 fc             	mov    -0x4(%rbp),%eax
  8004201531:	48 98                	cltq   
  8004201533:	48 c7 84 c5 70 ff ff 	movq   $0x0,-0x90(%rbp,%rax,8)
  800420153a:	ff 00 00 00 00 
	while (1) {
		// gobble whitespace
		while (*buf && strchr(WHITESPACE, *buf))
  800420153f:	eb 15                	jmp    8004201556 <runcmd+0x48>
			return 0;
		}
		argv[argc++] = buf;
		while (*buf && !strchr(WHITESPACE, *buf))
			buf++;
	}
  8004201541:	90                   	nop
	// Parse the command buffer into whitespace-separated arguments
	argc = 0;
	argv[argc] = 0;
	while (1) {
		// gobble whitespace
		while (*buf && strchr(WHITESPACE, *buf))
  8004201542:	eb 12                	jmp    8004201556 <runcmd+0x48>
			*buf++ = 0;
  8004201544:	48 8b 85 68 ff ff ff 	mov    -0x98(%rbp),%rax
  800420154b:	c6 00 00             	movb   $0x0,(%rax)
  800420154e:	48 83 85 68 ff ff ff 	addq   $0x1,-0x98(%rbp)
  8004201555:	01 
	// Parse the command buffer into whitespace-separated arguments
	argc = 0;
	argv[argc] = 0;
	while (1) {
		// gobble whitespace
		while (*buf && strchr(WHITESPACE, *buf))
  8004201556:	48 8b 85 68 ff ff ff 	mov    -0x98(%rbp),%rax
  800420155d:	0f b6 00             	movzbl (%rax),%eax
  8004201560:	84 c0                	test   %al,%al
  8004201562:	74 2a                	je     800420158e <runcmd+0x80>
  8004201564:	48 8b 85 68 ff ff ff 	mov    -0x98(%rbp),%rax
  800420156b:	0f b6 00             	movzbl (%rax),%eax
  800420156e:	0f be c0             	movsbl %al,%eax
  8004201571:	89 c6                	mov    %eax,%esi
  8004201573:	48 bf 62 c6 21 04 80 	movabs $0x800421c662,%rdi
  800420157a:	00 00 00 
  800420157d:	48 b8 d3 02 21 04 80 	movabs $0x80042102d3,%rax
  8004201584:	00 00 00 
  8004201587:	ff d0                	callq  *%rax
  8004201589:	48 85 c0             	test   %rax,%rax
  800420158c:	75 b6                	jne    8004201544 <runcmd+0x36>
			*buf++ = 0;
		if (*buf == 0)
  800420158e:	48 8b 85 68 ff ff ff 	mov    -0x98(%rbp),%rax
  8004201595:	0f b6 00             	movzbl (%rax),%eax
  8004201598:	84 c0                	test   %al,%al
  800420159a:	0f 84 93 00 00 00    	je     8004201633 <runcmd+0x125>
			break;

		// save and scan past next arg
		if (argc == MAXARGS-1) {
  80042015a0:	83 7d fc 0f          	cmpl   $0xf,-0x4(%rbp)
  80042015a4:	75 2a                	jne    80042015d0 <runcmd+0xc2>
			cprintf("Too many arguments (max %d)\n", MAXARGS);
  80042015a6:	be 10 00 00 00       	mov    $0x10,%esi
  80042015ab:	48 bf 67 c6 21 04 80 	movabs $0x800421c667,%rdi
  80042015b2:	00 00 00 
  80042015b5:	b8 00 00 00 00       	mov    $0x0,%eax
  80042015ba:	48 ba 7a 90 20 04 80 	movabs $0x800420907a,%rdx
  80042015c1:	00 00 00 
  80042015c4:	ff d2                	callq  *%rdx
			return 0;
  80042015c6:	b8 00 00 00 00       	mov    $0x0,%eax
  80042015cb:	e9 4d 01 00 00       	jmpq   800420171d <runcmd+0x20f>
		}
		argv[argc++] = buf;
  80042015d0:	8b 45 fc             	mov    -0x4(%rbp),%eax
  80042015d3:	48 98                	cltq   
  80042015d5:	48 8b 95 68 ff ff ff 	mov    -0x98(%rbp),%rdx
  80042015dc:	48 89 94 c5 70 ff ff 	mov    %rdx,-0x90(%rbp,%rax,8)
  80042015e3:	ff 
  80042015e4:	83 45 fc 01          	addl   $0x1,-0x4(%rbp)
		while (*buf && !strchr(WHITESPACE, *buf))
  80042015e8:	eb 08                	jmp    80042015f2 <runcmd+0xe4>
			buf++;
  80042015ea:	48 83 85 68 ff ff ff 	addq   $0x1,-0x98(%rbp)
  80042015f1:	01 
		if (argc == MAXARGS-1) {
			cprintf("Too many arguments (max %d)\n", MAXARGS);
			return 0;
		}
		argv[argc++] = buf;
		while (*buf && !strchr(WHITESPACE, *buf))
  80042015f2:	48 8b 85 68 ff ff ff 	mov    -0x98(%rbp),%rax
  80042015f9:	0f b6 00             	movzbl (%rax),%eax
  80042015fc:	84 c0                	test   %al,%al
  80042015fe:	0f 84 3d ff ff ff    	je     8004201541 <runcmd+0x33>
  8004201604:	48 8b 85 68 ff ff ff 	mov    -0x98(%rbp),%rax
  800420160b:	0f b6 00             	movzbl (%rax),%eax
  800420160e:	0f be c0             	movsbl %al,%eax
  8004201611:	89 c6                	mov    %eax,%esi
  8004201613:	48 bf 62 c6 21 04 80 	movabs $0x800421c662,%rdi
  800420161a:	00 00 00 
  800420161d:	48 b8 d3 02 21 04 80 	movabs $0x80042102d3,%rax
  8004201624:	00 00 00 
  8004201627:	ff d0                	callq  *%rax
  8004201629:	48 85 c0             	test   %rax,%rax
  800420162c:	74 bc                	je     80042015ea <runcmd+0xdc>
			buf++;
	}
  800420162e:	e9 0e ff ff ff       	jmpq   8004201541 <runcmd+0x33>
	while (1) {
		// gobble whitespace
		while (*buf && strchr(WHITESPACE, *buf))
			*buf++ = 0;
		if (*buf == 0)
			break;
  8004201633:	90                   	nop
		}
		argv[argc++] = buf;
		while (*buf && !strchr(WHITESPACE, *buf))
			buf++;
	}
	argv[argc] = 0;
  8004201634:	8b 45 fc             	mov    -0x4(%rbp),%eax
  8004201637:	48 98                	cltq   
  8004201639:	48 c7 84 c5 70 ff ff 	movq   $0x0,-0x90(%rbp,%rax,8)
  8004201640:	ff 00 00 00 00 

	// Lookup and invoke the command
	if (argc == 0)
  8004201645:	83 7d fc 00          	cmpl   $0x0,-0x4(%rbp)
  8004201649:	75 0a                	jne    8004201655 <runcmd+0x147>
		return 0;
  800420164b:	b8 00 00 00 00       	mov    $0x0,%eax
  8004201650:	e9 c8 00 00 00       	jmpq   800420171d <runcmd+0x20f>
	for (i = 0; i < NCOMMANDS; i++) {
  8004201655:	c7 45 f8 00 00 00 00 	movl   $0x0,-0x8(%rbp)
  800420165c:	e9 86 00 00 00       	jmpq   80042016e7 <runcmd+0x1d9>
		if (strcmp(argv[0], commands[i].name) == 0)
  8004201661:	48 b9 80 05 23 04 80 	movabs $0x8004230580,%rcx
  8004201668:	00 00 00 
  800420166b:	8b 45 f8             	mov    -0x8(%rbp),%eax
  800420166e:	48 63 d0             	movslq %eax,%rdx
  8004201671:	48 89 d0             	mov    %rdx,%rax
  8004201674:	48 01 c0             	add    %rax,%rax
  8004201677:	48 01 d0             	add    %rdx,%rax
  800420167a:	48 c1 e0 03          	shl    $0x3,%rax
  800420167e:	48 01 c8             	add    %rcx,%rax
  8004201681:	48 8b 10             	mov    (%rax),%rdx
  8004201684:	48 8b 85 70 ff ff ff 	mov    -0x90(%rbp),%rax
  800420168b:	48 89 d6             	mov    %rdx,%rsi
  800420168e:	48 89 c7             	mov    %rax,%rdi
  8004201691:	48 b8 0b 02 21 04 80 	movabs $0x800421020b,%rax
  8004201698:	00 00 00 
  800420169b:	ff d0                	callq  *%rax
  800420169d:	85 c0                	test   %eax,%eax
  800420169f:	75 42                	jne    80042016e3 <runcmd+0x1d5>
			return commands[i].func(argc, argv, tf);
  80042016a1:	48 b9 80 05 23 04 80 	movabs $0x8004230580,%rcx
  80042016a8:	00 00 00 
  80042016ab:	8b 45 f8             	mov    -0x8(%rbp),%eax
  80042016ae:	48 63 d0             	movslq %eax,%rdx
  80042016b1:	48 89 d0             	mov    %rdx,%rax
  80042016b4:	48 01 c0             	add    %rax,%rax
  80042016b7:	48 01 d0             	add    %rdx,%rax
  80042016ba:	48 c1 e0 03          	shl    $0x3,%rax
  80042016be:	48 01 c8             	add    %rcx,%rax
  80042016c1:	48 83 c0 10          	add    $0x10,%rax
  80042016c5:	4c 8b 00             	mov    (%rax),%r8
  80042016c8:	48 8b 95 60 ff ff ff 	mov    -0xa0(%rbp),%rdx
  80042016cf:	48 8d 8d 70 ff ff ff 	lea    -0x90(%rbp),%rcx
  80042016d6:	8b 45 fc             	mov    -0x4(%rbp),%eax
  80042016d9:	48 89 ce             	mov    %rcx,%rsi
  80042016dc:	89 c7                	mov    %eax,%edi
  80042016de:	41 ff d0             	callq  *%r8
  80042016e1:	eb 3a                	jmp    800420171d <runcmd+0x20f>
	argv[argc] = 0;

	// Lookup and invoke the command
	if (argc == 0)
		return 0;
	for (i = 0; i < NCOMMANDS; i++) {
  80042016e3:	83 45 f8 01          	addl   $0x1,-0x8(%rbp)
  80042016e7:	8b 45 f8             	mov    -0x8(%rbp),%eax
  80042016ea:	83 f8 01             	cmp    $0x1,%eax
  80042016ed:	0f 86 6e ff ff ff    	jbe    8004201661 <runcmd+0x153>
		if (strcmp(argv[0], commands[i].name) == 0)
			return commands[i].func(argc, argv, tf);
	}
	cprintf("Unknown command '%s'\n", argv[0]);
  80042016f3:	48 8b 85 70 ff ff ff 	mov    -0x90(%rbp),%rax
  80042016fa:	48 89 c6             	mov    %rax,%rsi
  80042016fd:	48 bf 84 c6 21 04 80 	movabs $0x800421c684,%rdi
  8004201704:	00 00 00 
  8004201707:	b8 00 00 00 00       	mov    $0x0,%eax
  800420170c:	48 ba 7a 90 20 04 80 	movabs $0x800420907a,%rdx
  8004201713:	00 00 00 
  8004201716:	ff d2                	callq  *%rdx
	return 0;
  8004201718:	b8 00 00 00 00       	mov    $0x0,%eax
}
  800420171d:	c9                   	leaveq 
  800420171e:	c3                   	retq   

000000800420171f <monitor>:

void
monitor(struct Trapframe *tf)
{
  800420171f:	55                   	push   %rbp
  8004201720:	48 89 e5             	mov    %rsp,%rbp
  8004201723:	48 83 ec 20          	sub    $0x20,%rsp
  8004201727:	48 89 7d e8          	mov    %rdi,-0x18(%rbp)
	char *buf;

	cprintf("Welcome to the JOS kernel monitor!\n");
  800420172b:	48 bf a0 c6 21 04 80 	movabs $0x800421c6a0,%rdi
  8004201732:	00 00 00 
  8004201735:	b8 00 00 00 00       	mov    $0x0,%eax
  800420173a:	48 ba 7a 90 20 04 80 	movabs $0x800420907a,%rdx
  8004201741:	00 00 00 
  8004201744:	ff d2                	callq  *%rdx
	cprintf("Type 'help' for a list of commands.\n");
  8004201746:	48 bf c8 c6 21 04 80 	movabs $0x800421c6c8,%rdi
  800420174d:	00 00 00 
  8004201750:	b8 00 00 00 00       	mov    $0x0,%eax
  8004201755:	48 ba 7a 90 20 04 80 	movabs $0x800420907a,%rdx
  800420175c:	00 00 00 
  800420175f:	ff d2                	callq  *%rdx

	if (tf != NULL)
  8004201761:	48 83 7d e8 00       	cmpq   $0x0,-0x18(%rbp)
  8004201766:	74 16                	je     800420177e <monitor+0x5f>
		print_trapframe(tf);
  8004201768:	48 8b 45 e8          	mov    -0x18(%rbp),%rax
  800420176c:	48 89 c7             	mov    %rax,%rdi
  800420176f:	48 b8 ba c1 20 04 80 	movabs $0x800420c1ba,%rax
  8004201776:	00 00 00 
  8004201779:	ff d0                	callq  *%rax
  800420177b:	eb 01                	jmp    800420177e <monitor+0x5f>
	while (1) {
		buf = readline("K> ");
		if (buf != NULL)
			if (runcmd(buf, tf) < 0)
				break;
	}
  800420177d:	90                   	nop

	if (tf != NULL)
		print_trapframe(tf);

	while (1) {
		buf = readline("K> ");
  800420177e:	48 bf ed c6 21 04 80 	movabs $0x800421c6ed,%rdi
  8004201785:	00 00 00 
  8004201788:	48 b8 e8 fe 20 04 80 	movabs $0x800420fee8,%rax
  800420178f:	00 00 00 
  8004201792:	ff d0                	callq  *%rax
  8004201794:	48 89 45 f8          	mov    %rax,-0x8(%rbp)
		if (buf != NULL)
  8004201798:	48 83 7d f8 00       	cmpq   $0x0,-0x8(%rbp)
  800420179d:	74 de                	je     800420177d <monitor+0x5e>
			if (runcmd(buf, tf) < 0)
  800420179f:	48 8b 55 e8          	mov    -0x18(%rbp),%rdx
  80042017a3:	48 8b 45 f8          	mov    -0x8(%rbp),%rax
  80042017a7:	48 89 d6             	mov    %rdx,%rsi
  80042017aa:	48 89 c7             	mov    %rax,%rdi
  80042017ad:	48 b8 0e 15 20 04 80 	movabs $0x800420150e,%rax
  80042017b4:	00 00 00 
  80042017b7:	ff d0                	callq  *%rax
  80042017b9:	85 c0                	test   %eax,%eax
  80042017bb:	79 c0                	jns    800420177d <monitor+0x5e>
				break;
  80042017bd:	90                   	nop
	}
}
  80042017be:	c9                   	leaveq 
  80042017bf:	c3                   	retq   

00000080042017c0 <page2ppn>:
int	user_mem_check(struct Env *env, const void *va, size_t len, int perm);
void	user_mem_assert(struct Env *env, const void *va, size_t len, int perm);

static inline ppn_t
page2ppn(struct PageInfo *pp)
{
  80042017c0:	55                   	push   %rbp
  80042017c1:	48 89 e5             	mov    %rsp,%rbp
  80042017c4:	48 83 ec 08          	sub    $0x8,%rsp
  80042017c8:	48 89 7d f8          	mov    %rdi,-0x8(%rbp)
	return pp - pages;
  80042017cc:	48 8b 55 f8          	mov    -0x8(%rbp),%rdx
  80042017d0:	48 b8 78 37 48 04 80 	movabs $0x8004483778,%rax
  80042017d7:	00 00 00 
  80042017da:	48 8b 00             	mov    (%rax),%rax
  80042017dd:	48 89 d1             	mov    %rdx,%rcx
  80042017e0:	48 29 c1             	sub    %rax,%rcx
  80042017e3:	48 89 c8             	mov    %rcx,%rax
  80042017e6:	48 c1 f8 04          	sar    $0x4,%rax
}
  80042017ea:	c9                   	leaveq 
  80042017eb:	c3                   	retq   

00000080042017ec <page2pa>:

static inline physaddr_t
page2pa(struct PageInfo *pp)
{
  80042017ec:	55                   	push   %rbp
  80042017ed:	48 89 e5             	mov    %rsp,%rbp
  80042017f0:	48 83 ec 08          	sub    $0x8,%rsp
  80042017f4:	48 89 7d f8          	mov    %rdi,-0x8(%rbp)
	return page2ppn(pp) << PGSHIFT;
  80042017f8:	48 8b 45 f8          	mov    -0x8(%rbp),%rax
  80042017fc:	48 89 c7             	mov    %rax,%rdi
  80042017ff:	48 b8 c0 17 20 04 80 	movabs $0x80042017c0,%rax
  8004201806:	00 00 00 
  8004201809:	ff d0                	callq  *%rax
  800420180b:	48 c1 e0 0c          	shl    $0xc,%rax
}
  800420180f:	c9                   	leaveq 
  8004201810:	c3                   	retq   

0000008004201811 <pa2page>:

static inline struct PageInfo*
pa2page(physaddr_t pa)
{
  8004201811:	55                   	push   %rbp
  8004201812:	48 89 e5             	mov    %rsp,%rbp
  8004201815:	48 83 ec 10          	sub    $0x10,%rsp
  8004201819:	48 89 7d f8          	mov    %rdi,-0x8(%rbp)
	if (PPN(pa) >= npages)
  800420181d:	48 8b 45 f8          	mov    -0x8(%rbp),%rax
  8004201821:	48 89 c2             	mov    %rax,%rdx
  8004201824:	48 c1 ea 0c          	shr    $0xc,%rdx
  8004201828:	48 b8 70 37 48 04 80 	movabs $0x8004483770,%rax
  800420182f:	00 00 00 
  8004201832:	48 8b 00             	mov    (%rax),%rax
  8004201835:	48 39 c2             	cmp    %rax,%rdx
  8004201838:	72 2a                	jb     8004201864 <pa2page+0x53>
		panic("pa2page called with invalid pa");
  800420183a:	48 ba f8 c6 21 04 80 	movabs $0x800421c6f8,%rdx
  8004201841:	00 00 00 
  8004201844:	be 54 00 00 00       	mov    $0x54,%esi
  8004201849:	48 bf 17 c7 21 04 80 	movabs $0x800421c717,%rdi
  8004201850:	00 00 00 
  8004201853:	b8 00 00 00 00       	mov    $0x0,%eax
  8004201858:	48 b9 c2 04 20 04 80 	movabs $0x80042004c2,%rcx
  800420185f:	00 00 00 
  8004201862:	ff d1                	callq  *%rcx
	return &pages[PPN(pa)];
  8004201864:	48 b8 78 37 48 04 80 	movabs $0x8004483778,%rax
  800420186b:	00 00 00 
  800420186e:	48 8b 00             	mov    (%rax),%rax
  8004201871:	48 8b 55 f8          	mov    -0x8(%rbp),%rdx
  8004201875:	48 c1 ea 0c          	shr    $0xc,%rdx
  8004201879:	48 c1 e2 04          	shl    $0x4,%rdx
  800420187d:	48 01 d0             	add    %rdx,%rax
}
  8004201880:	c9                   	leaveq 
  8004201881:	c3                   	retq   

0000008004201882 <page2kva>:

static inline void*
page2kva(struct PageInfo *pp)
{
  8004201882:	55                   	push   %rbp
  8004201883:	48 89 e5             	mov    %rsp,%rbp
  8004201886:	48 83 ec 20          	sub    $0x20,%rsp
  800420188a:	48 89 7d e8          	mov    %rdi,-0x18(%rbp)
	return KADDR(page2pa(pp));
  800420188e:	48 8b 45 e8          	mov    -0x18(%rbp),%rax
  8004201892:	48 89 c7             	mov    %rax,%rdi
  8004201895:	48 b8 ec 17 20 04 80 	movabs $0x80042017ec,%rax
  800420189c:	00 00 00 
  800420189f:	ff d0                	callq  *%rax
  80042018a1:	48 89 45 f8          	mov    %rax,-0x8(%rbp)
  80042018a5:	48 8b 45 f8          	mov    -0x8(%rbp),%rax
  80042018a9:	48 c1 e8 0c          	shr    $0xc,%rax
  80042018ad:	89 45 f4             	mov    %eax,-0xc(%rbp)
  80042018b0:	8b 55 f4             	mov    -0xc(%rbp),%edx
  80042018b3:	48 b8 70 37 48 04 80 	movabs $0x8004483770,%rax
  80042018ba:	00 00 00 
  80042018bd:	48 8b 00             	mov    (%rax),%rax
  80042018c0:	48 39 c2             	cmp    %rax,%rdx
  80042018c3:	72 32                	jb     80042018f7 <page2kva+0x75>
  80042018c5:	48 8b 45 f8          	mov    -0x8(%rbp),%rax
  80042018c9:	48 89 c1             	mov    %rax,%rcx
  80042018cc:	48 ba 28 c7 21 04 80 	movabs $0x800421c728,%rdx
  80042018d3:	00 00 00 
  80042018d6:	be 5b 00 00 00       	mov    $0x5b,%esi
  80042018db:	48 bf 17 c7 21 04 80 	movabs $0x800421c717,%rdi
  80042018e2:	00 00 00 
  80042018e5:	b8 00 00 00 00       	mov    $0x0,%eax
  80042018ea:	49 b8 c2 04 20 04 80 	movabs $0x80042004c2,%r8
  80042018f1:	00 00 00 
  80042018f4:	41 ff d0             	callq  *%r8
  80042018f7:	48 b8 00 00 00 04 80 	movabs $0x8004000000,%rax
  80042018fe:	00 00 00 
  8004201901:	48 03 45 f8          	add    -0x8(%rbp),%rax
}
  8004201905:	c9                   	leaveq 
  8004201906:	c3                   	retq   

0000008004201907 <restrictive_type>:
   uint32_t length_low;
   uint32_t length_high;
   uint32_t type;
 } memory_map_t;

static __inline uint32_t restrictive_type(uint32_t t1, uint32_t t2) {
  8004201907:	55                   	push   %rbp
  8004201908:	48 89 e5             	mov    %rsp,%rbp
  800420190b:	48 83 ec 08          	sub    $0x8,%rsp
  800420190f:	89 7d fc             	mov    %edi,-0x4(%rbp)
  8004201912:	89 75 f8             	mov    %esi,-0x8(%rbp)
  if(t1==MB_TYPE_BAD || t2==MB_TYPE_BAD)
  8004201915:	83 7d fc 05          	cmpl   $0x5,-0x4(%rbp)
  8004201919:	74 06                	je     8004201921 <restrictive_type+0x1a>
  800420191b:	83 7d f8 05          	cmpl   $0x5,-0x8(%rbp)
  800420191f:	75 07                	jne    8004201928 <restrictive_type+0x21>
    return MB_TYPE_BAD;
  8004201921:	b8 05 00 00 00       	mov    $0x5,%eax
  8004201926:	eb 3e                	jmp    8004201966 <restrictive_type+0x5f>
  else if(t1==MB_TYPE_ACPI_NVS || t2==MB_TYPE_ACPI_NVS)
  8004201928:	83 7d fc 04          	cmpl   $0x4,-0x4(%rbp)
  800420192c:	74 06                	je     8004201934 <restrictive_type+0x2d>
  800420192e:	83 7d f8 04          	cmpl   $0x4,-0x8(%rbp)
  8004201932:	75 07                	jne    800420193b <restrictive_type+0x34>
    return MB_TYPE_ACPI_NVS;
  8004201934:	b8 04 00 00 00       	mov    $0x4,%eax
  8004201939:	eb 2b                	jmp    8004201966 <restrictive_type+0x5f>
  else if(t1==MB_TYPE_RESERVED || t2==MB_TYPE_RESERVED)
  800420193b:	83 7d fc 02          	cmpl   $0x2,-0x4(%rbp)
  800420193f:	74 06                	je     8004201947 <restrictive_type+0x40>
  8004201941:	83 7d f8 02          	cmpl   $0x2,-0x8(%rbp)
  8004201945:	75 07                	jne    800420194e <restrictive_type+0x47>
    return MB_TYPE_RESERVED;
  8004201947:	b8 02 00 00 00       	mov    $0x2,%eax
  800420194c:	eb 18                	jmp    8004201966 <restrictive_type+0x5f>
  else if(t1==MB_TYPE_ACPI_RECLM || t2==MB_TYPE_ACPI_RECLM)
  800420194e:	83 7d fc 03          	cmpl   $0x3,-0x4(%rbp)
  8004201952:	74 06                	je     800420195a <restrictive_type+0x53>
  8004201954:	83 7d f8 03          	cmpl   $0x3,-0x8(%rbp)
  8004201958:	75 07                	jne    8004201961 <restrictive_type+0x5a>
    return MB_TYPE_ACPI_RECLM;
  800420195a:	b8 03 00 00 00       	mov    $0x3,%eax
  800420195f:	eb 05                	jmp    8004201966 <restrictive_type+0x5f>

  return MB_TYPE_USABLE;
  8004201961:	b8 01 00 00 00       	mov    $0x1,%eax
}
  8004201966:	c9                   	leaveq 
  8004201967:	c3                   	retq   

0000008004201968 <nvram_read>:
// Detect machine's physical memory setup.
// --------------------------------------------------------------

static int
nvram_read(int r)
{
  8004201968:	55                   	push   %rbp
  8004201969:	48 89 e5             	mov    %rsp,%rbp
  800420196c:	53                   	push   %rbx
  800420196d:	48 83 ec 18          	sub    $0x18,%rsp
  8004201971:	89 7d ec             	mov    %edi,-0x14(%rbp)
	return mc146818_read(r) | (mc146818_read(r + 1) << 8);
  8004201974:	8b 45 ec             	mov    -0x14(%rbp),%eax
  8004201977:	89 c7                	mov    %eax,%edi
  8004201979:	48 b8 ec 8c 20 04 80 	movabs $0x8004208cec,%rax
  8004201980:	00 00 00 
  8004201983:	ff d0                	callq  *%rax
  8004201985:	89 c3                	mov    %eax,%ebx
  8004201987:	8b 45 ec             	mov    -0x14(%rbp),%eax
  800420198a:	83 c0 01             	add    $0x1,%eax
  800420198d:	89 c7                	mov    %eax,%edi
  800420198f:	48 b8 ec 8c 20 04 80 	movabs $0x8004208cec,%rax
  8004201996:	00 00 00 
  8004201999:	ff d0                	callq  *%rax
  800420199b:	c1 e0 08             	shl    $0x8,%eax
  800420199e:	09 d8                	or     %ebx,%eax
}
  80042019a0:	48 83 c4 18          	add    $0x18,%rsp
  80042019a4:	5b                   	pop    %rbx
  80042019a5:	5d                   	pop    %rbp
  80042019a6:	c3                   	retq   

00000080042019a7 <multiboot_read>:

static void
multiboot_read(multiboot_info_t* mbinfo, size_t* basemem, size_t* extmem) {
  80042019a7:	55                   	push   %rbp
  80042019a8:	48 89 e5             	mov    %rsp,%rbp
  80042019ab:	53                   	push   %rbx
  80042019ac:	48 81 ec c8 00 00 00 	sub    $0xc8,%rsp
  80042019b3:	48 89 bd 58 ff ff ff 	mov    %rdi,-0xa8(%rbp)
  80042019ba:	48 89 b5 50 ff ff ff 	mov    %rsi,-0xb0(%rbp)
  80042019c1:	48 89 95 48 ff ff ff 	mov    %rdx,-0xb8(%rbp)
  80042019c8:	48 89 e0             	mov    %rsp,%rax
  80042019cb:	48 89 c3             	mov    %rax,%rbx
	int i;

	memory_map_t* mmap_base = (memory_map_t*)(uintptr_t)mbinfo->mmap_addr;
  80042019ce:	48 8b 85 58 ff ff ff 	mov    -0xa8(%rbp),%rax
  80042019d5:	8b 40 30             	mov    0x30(%rax),%eax
  80042019d8:	89 c0                	mov    %eax,%eax
  80042019da:	48 89 45 d8          	mov    %rax,-0x28(%rbp)
 	memory_map_t* mmap_list[mbinfo->mmap_length/ (sizeof(memory_map_t))];
  80042019de:	48 8b 85 58 ff ff ff 	mov    -0xa8(%rbp),%rax
  80042019e5:	8b 40 2c             	mov    0x2c(%rax),%eax
  80042019e8:	89 85 44 ff ff ff    	mov    %eax,-0xbc(%rbp)
  80042019ee:	ba ab aa aa aa       	mov    $0xaaaaaaab,%edx
  80042019f3:	8b 85 44 ff ff ff    	mov    -0xbc(%rbp),%eax
  80042019f9:	f7 e2                	mul    %edx
  80042019fb:	89 d0                	mov    %edx,%eax
  80042019fd:	c1 e8 04             	shr    $0x4,%eax
  8004201a00:	89 c0                	mov    %eax,%eax
  8004201a02:	48 89 c2             	mov    %rax,%rdx
  8004201a05:	48 83 ea 01          	sub    $0x1,%rdx
  8004201a09:	48 89 55 d0          	mov    %rdx,-0x30(%rbp)
  8004201a0d:	48 c1 e0 03          	shl    $0x3,%rax
  8004201a11:	48 8d 50 0f          	lea    0xf(%rax),%rdx
  8004201a15:	b8 10 00 00 00       	mov    $0x10,%eax
  8004201a1a:	48 83 e8 01          	sub    $0x1,%rax
  8004201a1e:	48 01 d0             	add    %rdx,%rax
  8004201a21:	48 c7 85 38 ff ff ff 	movq   $0x10,-0xc8(%rbp)
  8004201a28:	10 00 00 00 
  8004201a2c:	ba 00 00 00 00       	mov    $0x0,%edx
  8004201a31:	48 f7 b5 38 ff ff ff 	divq   -0xc8(%rbp)
  8004201a38:	48 6b c0 10          	imul   $0x10,%rax,%rax
  8004201a3c:	48 29 c4             	sub    %rax,%rsp
  8004201a3f:	48 89 e0             	mov    %rsp,%rax
  8004201a42:	48 83 c0 0f          	add    $0xf,%rax
  8004201a46:	48 c1 e8 04          	shr    $0x4,%rax
  8004201a4a:	48 c1 e0 04          	shl    $0x4,%rax
  8004201a4e:	48 89 45 c8          	mov    %rax,-0x38(%rbp)

	cprintf("\ne820 MEMORY MAP\n");
  8004201a52:	48 bf 4b c7 21 04 80 	movabs $0x800421c74b,%rdi
  8004201a59:	00 00 00 
  8004201a5c:	b8 00 00 00 00       	mov    $0x0,%eax
  8004201a61:	48 ba 7a 90 20 04 80 	movabs $0x800420907a,%rdx
  8004201a68:	00 00 00 
  8004201a6b:	ff d2                	callq  *%rdx
	for(i = 0; i < (mbinfo->mmap_length / (sizeof(memory_map_t))); i++) {
  8004201a6d:	c7 45 ec 00 00 00 00 	movl   $0x0,-0x14(%rbp)
  8004201a74:	e9 66 01 00 00       	jmpq   8004201bdf <multiboot_read+0x238>
		memory_map_t* mmap = &mmap_base[i];
  8004201a79:	8b 45 ec             	mov    -0x14(%rbp),%eax
  8004201a7c:	48 63 d0             	movslq %eax,%rdx
  8004201a7f:	48 89 d0             	mov    %rdx,%rax
  8004201a82:	48 01 c0             	add    %rax,%rax
  8004201a85:	48 01 d0             	add    %rdx,%rax
  8004201a88:	48 c1 e0 03          	shl    $0x3,%rax
  8004201a8c:	48 03 45 d8          	add    -0x28(%rbp),%rax
  8004201a90:	48 89 45 c0          	mov    %rax,-0x40(%rbp)

		uint64_t addr = APPEND_HILO(mmap->base_addr_high, mmap->base_addr_low);
  8004201a94:	48 8b 45 c0          	mov    -0x40(%rbp),%rax
  8004201a98:	8b 40 08             	mov    0x8(%rax),%eax
  8004201a9b:	89 c0                	mov    %eax,%eax
  8004201a9d:	48 89 c2             	mov    %rax,%rdx
  8004201aa0:	48 c1 e2 20          	shl    $0x20,%rdx
  8004201aa4:	48 8b 45 c0          	mov    -0x40(%rbp),%rax
  8004201aa8:	8b 40 04             	mov    0x4(%rax),%eax
  8004201aab:	89 c0                	mov    %eax,%eax
  8004201aad:	48 01 d0             	add    %rdx,%rax
  8004201ab0:	48 89 45 b8          	mov    %rax,-0x48(%rbp)
		uint64_t len = APPEND_HILO(mmap->length_high, mmap->length_low);
  8004201ab4:	48 8b 45 c0          	mov    -0x40(%rbp),%rax
  8004201ab8:	8b 40 10             	mov    0x10(%rax),%eax
  8004201abb:	89 c0                	mov    %eax,%eax
  8004201abd:	48 89 c2             	mov    %rax,%rdx
  8004201ac0:	48 c1 e2 20          	shl    $0x20,%rdx
  8004201ac4:	48 8b 45 c0          	mov    -0x40(%rbp),%rax
  8004201ac8:	8b 40 0c             	mov    0xc(%rax),%eax
  8004201acb:	89 c0                	mov    %eax,%eax
  8004201acd:	48 01 d0             	add    %rdx,%rax
  8004201ad0:	48 89 45 b0          	mov    %rax,-0x50(%rbp)
        
		cprintf("size: %d, address: 0x%016x, length: 0x%016x, type: %x\n", mmap->size, 
			addr, len, mmap->type);
  8004201ad4:	48 8b 45 c0          	mov    -0x40(%rbp),%rax
		memory_map_t* mmap = &mmap_base[i];

		uint64_t addr = APPEND_HILO(mmap->base_addr_high, mmap->base_addr_low);
		uint64_t len = APPEND_HILO(mmap->length_high, mmap->length_low);
        
		cprintf("size: %d, address: 0x%016x, length: 0x%016x, type: %x\n", mmap->size, 
  8004201ad8:	8b 70 14             	mov    0x14(%rax),%esi
  8004201adb:	48 8b 45 c0          	mov    -0x40(%rbp),%rax
  8004201adf:	8b 00                	mov    (%rax),%eax
  8004201ae1:	48 8b 4d b0          	mov    -0x50(%rbp),%rcx
  8004201ae5:	48 8b 55 b8          	mov    -0x48(%rbp),%rdx
  8004201ae9:	41 89 f0             	mov    %esi,%r8d
  8004201aec:	89 c6                	mov    %eax,%esi
  8004201aee:	48 bf 60 c7 21 04 80 	movabs $0x800421c760,%rdi
  8004201af5:	00 00 00 
  8004201af8:	b8 00 00 00 00       	mov    $0x0,%eax
  8004201afd:	49 b9 7a 90 20 04 80 	movabs $0x800420907a,%r9
  8004201b04:	00 00 00 
  8004201b07:	41 ff d1             	callq  *%r9
			addr, len, mmap->type);

		if(mmap->type > 5 || mmap->type < 1)
  8004201b0a:	48 8b 45 c0          	mov    -0x40(%rbp),%rax
  8004201b0e:	8b 40 14             	mov    0x14(%rax),%eax
  8004201b11:	83 f8 05             	cmp    $0x5,%eax
  8004201b14:	77 0b                	ja     8004201b21 <multiboot_read+0x17a>
  8004201b16:	48 8b 45 c0          	mov    -0x40(%rbp),%rax
  8004201b1a:	8b 40 14             	mov    0x14(%rax),%eax
  8004201b1d:	85 c0                	test   %eax,%eax
  8004201b1f:	75 0b                	jne    8004201b2c <multiboot_read+0x185>
			mmap->type = MB_TYPE_RESERVED;
  8004201b21:	48 8b 45 c0          	mov    -0x40(%rbp),%rax
  8004201b25:	c7 40 14 02 00 00 00 	movl   $0x2,0x14(%rax)
       
		//Insert into the sorted list
		int j = 0;
  8004201b2c:	c7 45 e8 00 00 00 00 	movl   $0x0,-0x18(%rbp)
		for(;j<i;j++) {
  8004201b33:	e9 85 00 00 00       	jmpq   8004201bbd <multiboot_read+0x216>
			memory_map_t* this = mmap_list[j];
  8004201b38:	48 8b 45 c8          	mov    -0x38(%rbp),%rax
  8004201b3c:	8b 55 e8             	mov    -0x18(%rbp),%edx
  8004201b3f:	48 63 d2             	movslq %edx,%rdx
  8004201b42:	48 8b 04 d0          	mov    (%rax,%rdx,8),%rax
  8004201b46:	48 89 45 a8          	mov    %rax,-0x58(%rbp)
			uint64_t this_addr = APPEND_HILO(this->base_addr_high, this->base_addr_low);
  8004201b4a:	48 8b 45 a8          	mov    -0x58(%rbp),%rax
  8004201b4e:	8b 40 08             	mov    0x8(%rax),%eax
  8004201b51:	89 c0                	mov    %eax,%eax
  8004201b53:	48 89 c2             	mov    %rax,%rdx
  8004201b56:	48 c1 e2 20          	shl    $0x20,%rdx
  8004201b5a:	48 8b 45 a8          	mov    -0x58(%rbp),%rax
  8004201b5e:	8b 40 04             	mov    0x4(%rax),%eax
  8004201b61:	89 c0                	mov    %eax,%eax
  8004201b63:	48 01 d0             	add    %rdx,%rax
  8004201b66:	48 89 45 a0          	mov    %rax,-0x60(%rbp)
			if(this_addr > addr) {
  8004201b6a:	48 8b 45 a0          	mov    -0x60(%rbp),%rax
  8004201b6e:	48 3b 45 b8          	cmp    -0x48(%rbp),%rax
  8004201b72:	76 45                	jbe    8004201bb9 <multiboot_read+0x212>
				int last = i+1;
  8004201b74:	8b 45 ec             	mov    -0x14(%rbp),%eax
  8004201b77:	83 c0 01             	add    $0x1,%eax
  8004201b7a:	89 45 e4             	mov    %eax,-0x1c(%rbp)
				while(last != j) {
  8004201b7d:	eb 30                	jmp    8004201baf <multiboot_read+0x208>
					*(mmap_list + last) = *(mmap_list + last - 1);
  8004201b7f:	48 8b 45 c8          	mov    -0x38(%rbp),%rax
  8004201b83:	8b 55 e4             	mov    -0x1c(%rbp),%edx
  8004201b86:	48 63 d2             	movslq %edx,%rdx
  8004201b89:	48 c1 e2 03          	shl    $0x3,%rdx
  8004201b8d:	48 01 c2             	add    %rax,%rdx
  8004201b90:	48 8b 45 c8          	mov    -0x38(%rbp),%rax
  8004201b94:	8b 4d e4             	mov    -0x1c(%rbp),%ecx
  8004201b97:	48 63 c9             	movslq %ecx,%rcx
  8004201b9a:	48 83 e9 01          	sub    $0x1,%rcx
  8004201b9e:	48 c1 e1 03          	shl    $0x3,%rcx
  8004201ba2:	48 01 c8             	add    %rcx,%rax
  8004201ba5:	48 8b 00             	mov    (%rax),%rax
  8004201ba8:	48 89 02             	mov    %rax,(%rdx)
					last--;
  8004201bab:	83 6d e4 01          	subl   $0x1,-0x1c(%rbp)
		for(;j<i;j++) {
			memory_map_t* this = mmap_list[j];
			uint64_t this_addr = APPEND_HILO(this->base_addr_high, this->base_addr_low);
			if(this_addr > addr) {
				int last = i+1;
				while(last != j) {
  8004201baf:	8b 45 e4             	mov    -0x1c(%rbp),%eax
  8004201bb2:	3b 45 e8             	cmp    -0x18(%rbp),%eax
  8004201bb5:	75 c8                	jne    8004201b7f <multiboot_read+0x1d8>
					*(mmap_list + last) = *(mmap_list + last - 1);
					last--;
				}
				break; 
  8004201bb7:	eb 10                	jmp    8004201bc9 <multiboot_read+0x222>
		if(mmap->type > 5 || mmap->type < 1)
			mmap->type = MB_TYPE_RESERVED;
       
		//Insert into the sorted list
		int j = 0;
		for(;j<i;j++) {
  8004201bb9:	83 45 e8 01          	addl   $0x1,-0x18(%rbp)
  8004201bbd:	8b 45 e8             	mov    -0x18(%rbp),%eax
  8004201bc0:	3b 45 ec             	cmp    -0x14(%rbp),%eax
  8004201bc3:	0f 8c 6f ff ff ff    	jl     8004201b38 <multiboot_read+0x191>
					last--;
				}
				break; 
			}
		}
		mmap_list[j] = mmap;  
  8004201bc9:	48 8b 45 c8          	mov    -0x38(%rbp),%rax
  8004201bcd:	8b 55 e8             	mov    -0x18(%rbp),%edx
  8004201bd0:	48 63 d2             	movslq %edx,%rdx
  8004201bd3:	48 8b 4d c0          	mov    -0x40(%rbp),%rcx
  8004201bd7:	48 89 0c d0          	mov    %rcx,(%rax,%rdx,8)

	memory_map_t* mmap_base = (memory_map_t*)(uintptr_t)mbinfo->mmap_addr;
 	memory_map_t* mmap_list[mbinfo->mmap_length/ (sizeof(memory_map_t))];

	cprintf("\ne820 MEMORY MAP\n");
	for(i = 0; i < (mbinfo->mmap_length / (sizeof(memory_map_t))); i++) {
  8004201bdb:	83 45 ec 01          	addl   $0x1,-0x14(%rbp)
  8004201bdf:	8b 45 ec             	mov    -0x14(%rbp),%eax
  8004201be2:	48 63 c8             	movslq %eax,%rcx
  8004201be5:	48 8b 85 58 ff ff ff 	mov    -0xa8(%rbp),%rax
  8004201bec:	8b 40 2c             	mov    0x2c(%rax),%eax
  8004201bef:	89 85 44 ff ff ff    	mov    %eax,-0xbc(%rbp)
  8004201bf5:	ba ab aa aa aa       	mov    $0xaaaaaaab,%edx
  8004201bfa:	8b 85 44 ff ff ff    	mov    -0xbc(%rbp),%eax
  8004201c00:	f7 e2                	mul    %edx
  8004201c02:	89 d0                	mov    %edx,%eax
  8004201c04:	c1 e8 04             	shr    $0x4,%eax
  8004201c07:	89 c0                	mov    %eax,%eax
  8004201c09:	48 39 c1             	cmp    %rax,%rcx
  8004201c0c:	0f 82 67 fe ff ff    	jb     8004201a79 <multiboot_read+0xd2>
				break; 
			}
		}
		mmap_list[j] = mmap;  
	}
	cprintf("\n");
  8004201c12:	48 bf 97 c7 21 04 80 	movabs $0x800421c797,%rdi
  8004201c19:	00 00 00 
  8004201c1c:	b8 00 00 00 00       	mov    $0x0,%eax
  8004201c21:	48 ba 7a 90 20 04 80 	movabs $0x800420907a,%rdx
  8004201c28:	00 00 00 
  8004201c2b:	ff d2                	callq  *%rdx
    
	// Sanitize the list
	for(i=1;i < (mbinfo->mmap_length / (sizeof(memory_map_t))); i++) {
  8004201c2d:	c7 45 ec 01 00 00 00 	movl   $0x1,-0x14(%rbp)
  8004201c34:	e9 93 01 00 00       	jmpq   8004201dcc <multiboot_read+0x425>
		memory_map_t* prev = mmap_list[i-1];
  8004201c39:	8b 45 ec             	mov    -0x14(%rbp),%eax
  8004201c3c:	8d 50 ff             	lea    -0x1(%rax),%edx
  8004201c3f:	48 8b 45 c8          	mov    -0x38(%rbp),%rax
  8004201c43:	48 63 d2             	movslq %edx,%rdx
  8004201c46:	48 8b 04 d0          	mov    (%rax,%rdx,8),%rax
  8004201c4a:	48 89 45 98          	mov    %rax,-0x68(%rbp)
		memory_map_t* this = mmap_list[i];
  8004201c4e:	48 8b 45 c8          	mov    -0x38(%rbp),%rax
  8004201c52:	8b 55 ec             	mov    -0x14(%rbp),%edx
  8004201c55:	48 63 d2             	movslq %edx,%rdx
  8004201c58:	48 8b 04 d0          	mov    (%rax,%rdx,8),%rax
  8004201c5c:	48 89 45 90          	mov    %rax,-0x70(%rbp)

		uint64_t this_addr = APPEND_HILO(this->base_addr_high, this->base_addr_low);
  8004201c60:	48 8b 45 90          	mov    -0x70(%rbp),%rax
  8004201c64:	8b 40 08             	mov    0x8(%rax),%eax
  8004201c67:	89 c0                	mov    %eax,%eax
  8004201c69:	48 89 c2             	mov    %rax,%rdx
  8004201c6c:	48 c1 e2 20          	shl    $0x20,%rdx
  8004201c70:	48 8b 45 90          	mov    -0x70(%rbp),%rax
  8004201c74:	8b 40 04             	mov    0x4(%rax),%eax
  8004201c77:	89 c0                	mov    %eax,%eax
  8004201c79:	48 01 d0             	add    %rdx,%rax
  8004201c7c:	48 89 45 88          	mov    %rax,-0x78(%rbp)
		uint64_t prev_addr = APPEND_HILO(prev->base_addr_high, prev->base_addr_low);
  8004201c80:	48 8b 45 98          	mov    -0x68(%rbp),%rax
  8004201c84:	8b 40 08             	mov    0x8(%rax),%eax
  8004201c87:	89 c0                	mov    %eax,%eax
  8004201c89:	48 89 c2             	mov    %rax,%rdx
  8004201c8c:	48 c1 e2 20          	shl    $0x20,%rdx
  8004201c90:	48 8b 45 98          	mov    -0x68(%rbp),%rax
  8004201c94:	8b 40 04             	mov    0x4(%rax),%eax
  8004201c97:	89 c0                	mov    %eax,%eax
  8004201c99:	48 01 d0             	add    %rdx,%rax
  8004201c9c:	48 89 45 80          	mov    %rax,-0x80(%rbp)
		uint64_t prev_length = APPEND_HILO(prev->length_high, prev->length_low);
  8004201ca0:	48 8b 45 98          	mov    -0x68(%rbp),%rax
  8004201ca4:	8b 40 10             	mov    0x10(%rax),%eax
  8004201ca7:	89 c0                	mov    %eax,%eax
  8004201ca9:	48 89 c2             	mov    %rax,%rdx
  8004201cac:	48 c1 e2 20          	shl    $0x20,%rdx
  8004201cb0:	48 8b 45 98          	mov    -0x68(%rbp),%rax
  8004201cb4:	8b 40 0c             	mov    0xc(%rax),%eax
  8004201cb7:	89 c0                	mov    %eax,%eax
  8004201cb9:	48 01 d0             	add    %rdx,%rax
  8004201cbc:	48 89 85 78 ff ff ff 	mov    %rax,-0x88(%rbp)
		uint64_t this_length = APPEND_HILO(this->length_high, this->length_low);
  8004201cc3:	48 8b 45 90          	mov    -0x70(%rbp),%rax
  8004201cc7:	8b 40 10             	mov    0x10(%rax),%eax
  8004201cca:	89 c0                	mov    %eax,%eax
  8004201ccc:	48 89 c2             	mov    %rax,%rdx
  8004201ccf:	48 c1 e2 20          	shl    $0x20,%rdx
  8004201cd3:	48 8b 45 90          	mov    -0x70(%rbp),%rax
  8004201cd7:	8b 40 0c             	mov    0xc(%rax),%eax
  8004201cda:	89 c0                	mov    %eax,%eax
  8004201cdc:	48 01 d0             	add    %rdx,%rax
  8004201cdf:	48 89 85 70 ff ff ff 	mov    %rax,-0x90(%rbp)

		// Merge adjacent regions with same type
		if(prev_addr + prev_length == this_addr && prev->type == this->type) {
  8004201ce6:	48 8b 85 78 ff ff ff 	mov    -0x88(%rbp),%rax
  8004201ced:	48 8b 55 80          	mov    -0x80(%rbp),%rdx
  8004201cf1:	48 01 d0             	add    %rdx,%rax
  8004201cf4:	48 3b 45 88          	cmp    -0x78(%rbp),%rax
  8004201cf8:	75 7c                	jne    8004201d76 <multiboot_read+0x3cf>
  8004201cfa:	48 8b 45 98          	mov    -0x68(%rbp),%rax
  8004201cfe:	8b 50 14             	mov    0x14(%rax),%edx
  8004201d01:	48 8b 45 90          	mov    -0x70(%rbp),%rax
  8004201d05:	8b 40 14             	mov    0x14(%rax),%eax
  8004201d08:	39 c2                	cmp    %eax,%edx
  8004201d0a:	75 6a                	jne    8004201d76 <multiboot_read+0x3cf>
			this->length_low = (uint32_t)prev_length + this_length;
  8004201d0c:	48 8b 85 78 ff ff ff 	mov    -0x88(%rbp),%rax
  8004201d13:	89 c2                	mov    %eax,%edx
  8004201d15:	48 8b 85 70 ff ff ff 	mov    -0x90(%rbp),%rax
  8004201d1c:	01 c2                	add    %eax,%edx
  8004201d1e:	48 8b 45 90          	mov    -0x70(%rbp),%rax
  8004201d22:	89 50 0c             	mov    %edx,0xc(%rax)
			this->length_high = (uint32_t)((prev_length + this_length)>>32);
  8004201d25:	48 8b 85 70 ff ff ff 	mov    -0x90(%rbp),%rax
  8004201d2c:	48 8b 95 78 ff ff ff 	mov    -0x88(%rbp),%rdx
  8004201d33:	48 01 d0             	add    %rdx,%rax
  8004201d36:	48 c1 e8 20          	shr    $0x20,%rax
  8004201d3a:	89 c2                	mov    %eax,%edx
  8004201d3c:	48 8b 45 90          	mov    -0x70(%rbp),%rax
  8004201d40:	89 50 10             	mov    %edx,0x10(%rax)
			this->base_addr_low = prev->base_addr_low;
  8004201d43:	48 8b 45 98          	mov    -0x68(%rbp),%rax
  8004201d47:	8b 50 04             	mov    0x4(%rax),%edx
  8004201d4a:	48 8b 45 90          	mov    -0x70(%rbp),%rax
  8004201d4e:	89 50 04             	mov    %edx,0x4(%rax)
			this->base_addr_high = prev->base_addr_high;
  8004201d51:	48 8b 45 98          	mov    -0x68(%rbp),%rax
  8004201d55:	8b 50 08             	mov    0x8(%rax),%edx
  8004201d58:	48 8b 45 90          	mov    -0x70(%rbp),%rax
  8004201d5c:	89 50 08             	mov    %edx,0x8(%rax)
			mmap_list[i-1] = NULL;
  8004201d5f:	8b 45 ec             	mov    -0x14(%rbp),%eax
  8004201d62:	8d 50 ff             	lea    -0x1(%rax),%edx
  8004201d65:	48 8b 45 c8          	mov    -0x38(%rbp),%rax
  8004201d69:	48 63 d2             	movslq %edx,%rdx
  8004201d6c:	48 c7 04 d0 00 00 00 	movq   $0x0,(%rax,%rdx,8)
  8004201d73:	00 
  8004201d74:	eb 52                	jmp    8004201dc8 <multiboot_read+0x421>
		} else if(prev_addr + prev_length > this_addr) {
  8004201d76:	48 8b 85 78 ff ff ff 	mov    -0x88(%rbp),%rax
  8004201d7d:	48 8b 55 80          	mov    -0x80(%rbp),%rdx
  8004201d81:	48 01 d0             	add    %rdx,%rax
  8004201d84:	48 3b 45 88          	cmp    -0x78(%rbp),%rax
  8004201d88:	76 3e                	jbe    8004201dc8 <multiboot_read+0x421>
			//Overlapping regions
			uint32_t type = restrictive_type(prev->type, this->type);
  8004201d8a:	48 8b 45 90          	mov    -0x70(%rbp),%rax
  8004201d8e:	8b 50 14             	mov    0x14(%rax),%edx
  8004201d91:	48 8b 45 98          	mov    -0x68(%rbp),%rax
  8004201d95:	8b 40 14             	mov    0x14(%rax),%eax
  8004201d98:	89 d6                	mov    %edx,%esi
  8004201d9a:	89 c7                	mov    %eax,%edi
  8004201d9c:	48 b8 07 19 20 04 80 	movabs $0x8004201907,%rax
  8004201da3:	00 00 00 
  8004201da6:	ff d0                	callq  *%rax
  8004201da8:	89 85 6c ff ff ff    	mov    %eax,-0x94(%rbp)
			prev->type = type;
  8004201dae:	48 8b 45 98          	mov    -0x68(%rbp),%rax
  8004201db2:	8b 95 6c ff ff ff    	mov    -0x94(%rbp),%edx
  8004201db8:	89 50 14             	mov    %edx,0x14(%rax)
			this->type = type;
  8004201dbb:	48 8b 45 90          	mov    -0x70(%rbp),%rax
  8004201dbf:	8b 95 6c ff ff ff    	mov    -0x94(%rbp),%edx
  8004201dc5:	89 50 14             	mov    %edx,0x14(%rax)
		mmap_list[j] = mmap;  
	}
	cprintf("\n");
    
	// Sanitize the list
	for(i=1;i < (mbinfo->mmap_length / (sizeof(memory_map_t))); i++) {
  8004201dc8:	83 45 ec 01          	addl   $0x1,-0x14(%rbp)
  8004201dcc:	8b 45 ec             	mov    -0x14(%rbp),%eax
  8004201dcf:	48 63 c8             	movslq %eax,%rcx
  8004201dd2:	48 8b 85 58 ff ff ff 	mov    -0xa8(%rbp),%rax
  8004201dd9:	8b 40 2c             	mov    0x2c(%rax),%eax
  8004201ddc:	89 85 44 ff ff ff    	mov    %eax,-0xbc(%rbp)
  8004201de2:	ba ab aa aa aa       	mov    $0xaaaaaaab,%edx
  8004201de7:	8b 85 44 ff ff ff    	mov    -0xbc(%rbp),%eax
  8004201ded:	f7 e2                	mul    %edx
  8004201def:	89 d0                	mov    %edx,%eax
  8004201df1:	c1 e8 04             	shr    $0x4,%eax
  8004201df4:	89 c0                	mov    %eax,%eax
  8004201df6:	48 39 c1             	cmp    %rax,%rcx
  8004201df9:	0f 82 3a fe ff ff    	jb     8004201c39 <multiboot_read+0x292>
			prev->type = type;
			this->type = type;
		}
	}

	for(i=0;i < (mbinfo->mmap_length / (sizeof(memory_map_t))); i++) {
  8004201dff:	c7 45 ec 00 00 00 00 	movl   $0x0,-0x14(%rbp)
  8004201e06:	e9 dc 00 00 00       	jmpq   8004201ee7 <multiboot_read+0x540>
		memory_map_t* mmap = mmap_list[i];
  8004201e0b:	48 8b 45 c8          	mov    -0x38(%rbp),%rax
  8004201e0f:	8b 55 ec             	mov    -0x14(%rbp),%edx
  8004201e12:	48 63 d2             	movslq %edx,%rdx
  8004201e15:	48 8b 04 d0          	mov    (%rax,%rdx,8),%rax
  8004201e19:	48 89 85 60 ff ff ff 	mov    %rax,-0xa0(%rbp)
		if(mmap) {
  8004201e20:	48 83 bd 60 ff ff ff 	cmpq   $0x0,-0xa0(%rbp)
  8004201e27:	00 
  8004201e28:	0f 84 b5 00 00 00    	je     8004201ee3 <multiboot_read+0x53c>
			if(mmap->type == MB_TYPE_USABLE || mmap->type == MB_TYPE_ACPI_RECLM) {
  8004201e2e:	48 8b 85 60 ff ff ff 	mov    -0xa0(%rbp),%rax
  8004201e35:	8b 40 14             	mov    0x14(%rax),%eax
  8004201e38:	83 f8 01             	cmp    $0x1,%eax
  8004201e3b:	74 13                	je     8004201e50 <multiboot_read+0x4a9>
  8004201e3d:	48 8b 85 60 ff ff ff 	mov    -0xa0(%rbp),%rax
  8004201e44:	8b 40 14             	mov    0x14(%rax),%eax
  8004201e47:	83 f8 03             	cmp    $0x3,%eax
  8004201e4a:	0f 85 93 00 00 00    	jne    8004201ee3 <multiboot_read+0x53c>
				if(mmap->base_addr_low < 0x100000 && mmap->base_addr_high == 0)
  8004201e50:	48 8b 85 60 ff ff ff 	mov    -0xa0(%rbp),%rax
  8004201e57:	8b 40 04             	mov    0x4(%rax),%eax
  8004201e5a:	3d ff ff 0f 00       	cmp    $0xfffff,%eax
  8004201e5f:	77 49                	ja     8004201eaa <multiboot_read+0x503>
  8004201e61:	48 8b 85 60 ff ff ff 	mov    -0xa0(%rbp),%rax
  8004201e68:	8b 40 08             	mov    0x8(%rax),%eax
  8004201e6b:	85 c0                	test   %eax,%eax
  8004201e6d:	75 3b                	jne    8004201eaa <multiboot_read+0x503>
					*basemem += APPEND_HILO(mmap->length_high, mmap->length_low);
  8004201e6f:	48 8b 85 50 ff ff ff 	mov    -0xb0(%rbp),%rax
  8004201e76:	48 8b 10             	mov    (%rax),%rdx
  8004201e79:	48 8b 85 60 ff ff ff 	mov    -0xa0(%rbp),%rax
  8004201e80:	8b 40 10             	mov    0x10(%rax),%eax
  8004201e83:	89 c0                	mov    %eax,%eax
  8004201e85:	48 89 c1             	mov    %rax,%rcx
  8004201e88:	48 c1 e1 20          	shl    $0x20,%rcx
  8004201e8c:	48 8b 85 60 ff ff ff 	mov    -0xa0(%rbp),%rax
  8004201e93:	8b 40 0c             	mov    0xc(%rax),%eax
  8004201e96:	89 c0                	mov    %eax,%eax
  8004201e98:	48 01 c8             	add    %rcx,%rax
  8004201e9b:	48 01 c2             	add    %rax,%rdx
  8004201e9e:	48 8b 85 50 ff ff ff 	mov    -0xb0(%rbp),%rax
  8004201ea5:	48 89 10             	mov    %rdx,(%rax)
  8004201ea8:	eb 39                	jmp    8004201ee3 <multiboot_read+0x53c>
				else
					*extmem += APPEND_HILO(mmap->length_high, mmap->length_low);
  8004201eaa:	48 8b 85 48 ff ff ff 	mov    -0xb8(%rbp),%rax
  8004201eb1:	48 8b 10             	mov    (%rax),%rdx
  8004201eb4:	48 8b 85 60 ff ff ff 	mov    -0xa0(%rbp),%rax
  8004201ebb:	8b 40 10             	mov    0x10(%rax),%eax
  8004201ebe:	89 c0                	mov    %eax,%eax
  8004201ec0:	48 89 c1             	mov    %rax,%rcx
  8004201ec3:	48 c1 e1 20          	shl    $0x20,%rcx
  8004201ec7:	48 8b 85 60 ff ff ff 	mov    -0xa0(%rbp),%rax
  8004201ece:	8b 40 0c             	mov    0xc(%rax),%eax
  8004201ed1:	89 c0                	mov    %eax,%eax
  8004201ed3:	48 01 c8             	add    %rcx,%rax
  8004201ed6:	48 01 c2             	add    %rax,%rdx
  8004201ed9:	48 8b 85 48 ff ff ff 	mov    -0xb8(%rbp),%rax
  8004201ee0:	48 89 10             	mov    %rdx,(%rax)
			prev->type = type;
			this->type = type;
		}
	}

	for(i=0;i < (mbinfo->mmap_length / (sizeof(memory_map_t))); i++) {
  8004201ee3:	83 45 ec 01          	addl   $0x1,-0x14(%rbp)
  8004201ee7:	8b 45 ec             	mov    -0x14(%rbp),%eax
  8004201eea:	48 63 c8             	movslq %eax,%rcx
  8004201eed:	48 8b 85 58 ff ff ff 	mov    -0xa8(%rbp),%rax
  8004201ef4:	8b 40 2c             	mov    0x2c(%rax),%eax
  8004201ef7:	89 85 44 ff ff ff    	mov    %eax,-0xbc(%rbp)
  8004201efd:	ba ab aa aa aa       	mov    $0xaaaaaaab,%edx
  8004201f02:	8b 85 44 ff ff ff    	mov    -0xbc(%rbp),%eax
  8004201f08:	f7 e2                	mul    %edx
  8004201f0a:	89 d0                	mov    %edx,%eax
  8004201f0c:	c1 e8 04             	shr    $0x4,%eax
  8004201f0f:	89 c0                	mov    %eax,%eax
  8004201f11:	48 39 c1             	cmp    %rax,%rcx
  8004201f14:	0f 82 f1 fe ff ff    	jb     8004201e0b <multiboot_read+0x464>
  8004201f1a:	48 89 dc             	mov    %rbx,%rsp
				else
					*extmem += APPEND_HILO(mmap->length_high, mmap->length_low);
			}
		}
	}
}
  8004201f1d:	48 8b 5d f8          	mov    -0x8(%rbp),%rbx
  8004201f21:	c9                   	leaveq 
  8004201f22:	c3                   	retq   

0000008004201f23 <i386_detect_memory>:

static void
i386_detect_memory(void)
{
  8004201f23:	55                   	push   %rbp
  8004201f24:	48 89 e5             	mov    %rsp,%rbp
  8004201f27:	48 83 ec 50          	sub    $0x50,%rsp
	size_t npages_extmem;
	size_t basemem = 0;
  8004201f2b:	48 c7 45 c0 00 00 00 	movq   $0x0,-0x40(%rbp)
  8004201f32:	00 
	size_t extmem = 0;
  8004201f33:	48 c7 45 b8 00 00 00 	movq   $0x0,-0x48(%rbp)
  8004201f3a:	00 

	// Check if the bootloader passed us a multiboot structure
	extern char multiboot_info[];
	uintptr_t* mbp = (uintptr_t*)multiboot_info;
  8004201f3b:	48 b8 00 70 10 00 00 	movabs $0x107000,%rax
  8004201f42:	00 00 00 
  8004201f45:	48 89 45 f0          	mov    %rax,-0x10(%rbp)
	multiboot_info_t * mbinfo = (multiboot_info_t*)*mbp;
  8004201f49:	48 8b 45 f0          	mov    -0x10(%rbp),%rax
  8004201f4d:	48 8b 00             	mov    (%rax),%rax
  8004201f50:	48 89 45 e8          	mov    %rax,-0x18(%rbp)

	if(mbinfo && (mbinfo->flags & MB_FLAG_MMAP)) {
  8004201f54:	48 83 7d e8 00       	cmpq   $0x0,-0x18(%rbp)
  8004201f59:	74 2d                	je     8004201f88 <i386_detect_memory+0x65>
  8004201f5b:	48 8b 45 e8          	mov    -0x18(%rbp),%rax
  8004201f5f:	8b 00                	mov    (%rax),%eax
  8004201f61:	83 e0 40             	and    $0x40,%eax
  8004201f64:	85 c0                	test   %eax,%eax
  8004201f66:	74 20                	je     8004201f88 <i386_detect_memory+0x65>
		multiboot_read(mbinfo, &basemem, &extmem);
  8004201f68:	48 8d 55 b8          	lea    -0x48(%rbp),%rdx
  8004201f6c:	48 8d 4d c0          	lea    -0x40(%rbp),%rcx
  8004201f70:	48 8b 45 e8          	mov    -0x18(%rbp),%rax
  8004201f74:	48 89 ce             	mov    %rcx,%rsi
  8004201f77:	48 89 c7             	mov    %rax,%rdi
  8004201f7a:	48 b8 a7 19 20 04 80 	movabs $0x80042019a7,%rax
  8004201f81:	00 00 00 
  8004201f84:	ff d0                	callq  *%rax
  8004201f86:	eb 34                	jmp    8004201fbc <i386_detect_memory+0x99>
	} else {
		basemem = (nvram_read(NVRAM_BASELO) * 1024);
  8004201f88:	bf 15 00 00 00       	mov    $0x15,%edi
  8004201f8d:	48 b8 68 19 20 04 80 	movabs $0x8004201968,%rax
  8004201f94:	00 00 00 
  8004201f97:	ff d0                	callq  *%rax
  8004201f99:	c1 e0 0a             	shl    $0xa,%eax
  8004201f9c:	48 98                	cltq   
  8004201f9e:	48 89 45 c0          	mov    %rax,-0x40(%rbp)
		extmem = (nvram_read(NVRAM_EXTLO) * 1024);
  8004201fa2:	bf 17 00 00 00       	mov    $0x17,%edi
  8004201fa7:	48 b8 68 19 20 04 80 	movabs $0x8004201968,%rax
  8004201fae:	00 00 00 
  8004201fb1:	ff d0                	callq  *%rax
  8004201fb3:	c1 e0 0a             	shl    $0xa,%eax
  8004201fb6:	48 98                	cltq   
  8004201fb8:	48 89 45 b8          	mov    %rax,-0x48(%rbp)
	}

	assert(basemem);
  8004201fbc:	48 8b 45 c0          	mov    -0x40(%rbp),%rax
  8004201fc0:	48 85 c0             	test   %rax,%rax
  8004201fc3:	75 35                	jne    8004201ffa <i386_detect_memory+0xd7>
  8004201fc5:	48 b9 99 c7 21 04 80 	movabs $0x800421c799,%rcx
  8004201fcc:	00 00 00 
  8004201fcf:	48 ba a1 c7 21 04 80 	movabs $0x800421c7a1,%rdx
  8004201fd6:	00 00 00 
  8004201fd9:	be 86 00 00 00       	mov    $0x86,%esi
  8004201fde:	48 bf b6 c7 21 04 80 	movabs $0x800421c7b6,%rdi
  8004201fe5:	00 00 00 
  8004201fe8:	b8 00 00 00 00       	mov    $0x0,%eax
  8004201fed:	49 b8 c2 04 20 04 80 	movabs $0x80042004c2,%r8
  8004201ff4:	00 00 00 
  8004201ff7:	41 ff d0             	callq  *%r8

	npages_basemem = basemem / PGSIZE;
  8004201ffa:	48 8b 45 c0          	mov    -0x40(%rbp),%rax
  8004201ffe:	48 89 c2             	mov    %rax,%rdx
  8004202001:	48 c1 ea 0c          	shr    $0xc,%rdx
  8004202005:	48 b8 30 22 48 04 80 	movabs $0x8004482230,%rax
  800420200c:	00 00 00 
  800420200f:	48 89 10             	mov    %rdx,(%rax)
	npages_extmem = extmem / PGSIZE;
  8004202012:	48 8b 45 b8          	mov    -0x48(%rbp),%rax
  8004202016:	48 c1 e8 0c          	shr    $0xc,%rax
  800420201a:	48 89 45 f8          	mov    %rax,-0x8(%rbp)
	
	if(nvram_read(NVRAM_EXTLO) == 0xffff) {
  800420201e:	bf 17 00 00 00       	mov    $0x17,%edi
  8004202023:	48 b8 68 19 20 04 80 	movabs $0x8004201968,%rax
  800420202a:	00 00 00 
  800420202d:	ff d0                	callq  *%rax
  800420202f:	3d ff ff 00 00       	cmp    $0xffff,%eax
  8004202034:	75 2c                	jne    8004202062 <i386_detect_memory+0x13f>
		// EXTMEM > 16M in blocks of 64k
		size_t pextmem = nvram_read(NVRAM_EXTGT16LO) * (64 * 1024);
  8004202036:	bf 34 00 00 00       	mov    $0x34,%edi
  800420203b:	48 b8 68 19 20 04 80 	movabs $0x8004201968,%rax
  8004202042:	00 00 00 
  8004202045:	ff d0                	callq  *%rax
  8004202047:	c1 e0 10             	shl    $0x10,%eax
  800420204a:	48 98                	cltq   
  800420204c:	48 89 45 e0          	mov    %rax,-0x20(%rbp)
		npages_extmem = ((16 * 1024 * 1024) + pextmem - (1 * 1024 * 1024)) / PGSIZE;
  8004202050:	48 8b 45 e0          	mov    -0x20(%rbp),%rax
  8004202054:	48 05 00 00 f0 00    	add    $0xf00000,%rax
  800420205a:	48 c1 e8 0c          	shr    $0xc,%rax
  800420205e:	48 89 45 f8          	mov    %rax,-0x8(%rbp)
	}
	
	// Calculate the number of physical pages available in both base
	// and extended memory.
	if (npages_extmem)
  8004202062:	48 83 7d f8 00       	cmpq   $0x0,-0x8(%rbp)
  8004202067:	74 1a                	je     8004202083 <i386_detect_memory+0x160>
		npages = (EXTPHYSMEM / PGSIZE) + npages_extmem;
  8004202069:	48 8b 45 f8          	mov    -0x8(%rbp),%rax
  800420206d:	48 8d 90 00 01 00 00 	lea    0x100(%rax),%rdx
  8004202074:	48 b8 70 37 48 04 80 	movabs $0x8004483770,%rax
  800420207b:	00 00 00 
  800420207e:	48 89 10             	mov    %rdx,(%rax)
  8004202081:	eb 1a                	jmp    800420209d <i386_detect_memory+0x17a>
	else
		npages = npages_basemem;
  8004202083:	48 b8 30 22 48 04 80 	movabs $0x8004482230,%rax
  800420208a:	00 00 00 
  800420208d:	48 8b 10             	mov    (%rax),%rdx
  8004202090:	48 b8 70 37 48 04 80 	movabs $0x8004483770,%rax
  8004202097:	00 00 00 
  800420209a:	48 89 10             	mov    %rdx,(%rax)

	cprintf("Physical memory: %uM available, base = %uK, extended = %uK, npages = %d\n",
  800420209d:	48 b8 70 37 48 04 80 	movabs $0x8004483770,%rax
  80042020a4:	00 00 00 
  80042020a7:	48 8b 30             	mov    (%rax),%rsi
		npages * PGSIZE / (1024 * 1024),
		npages_basemem * PGSIZE / 1024,
		npages_extmem * PGSIZE / 1024,
  80042020aa:	48 8b 45 f8          	mov    -0x8(%rbp),%rax
  80042020ae:	48 c1 e0 0c          	shl    $0xc,%rax
	if (npages_extmem)
		npages = (EXTPHYSMEM / PGSIZE) + npages_extmem;
	else
		npages = npages_basemem;

	cprintf("Physical memory: %uM available, base = %uK, extended = %uK, npages = %d\n",
  80042020b2:	48 89 c1             	mov    %rax,%rcx
  80042020b5:	48 c1 e9 0a          	shr    $0xa,%rcx
		npages * PGSIZE / (1024 * 1024),
		npages_basemem * PGSIZE / 1024,
  80042020b9:	48 b8 30 22 48 04 80 	movabs $0x8004482230,%rax
  80042020c0:	00 00 00 
  80042020c3:	48 8b 00             	mov    (%rax),%rax
  80042020c6:	48 c1 e0 0c          	shl    $0xc,%rax
	if (npages_extmem)
		npages = (EXTPHYSMEM / PGSIZE) + npages_extmem;
	else
		npages = npages_basemem;

	cprintf("Physical memory: %uM available, base = %uK, extended = %uK, npages = %d\n",
  80042020ca:	48 89 c2             	mov    %rax,%rdx
  80042020cd:	48 c1 ea 0a          	shr    $0xa,%rdx
		npages * PGSIZE / (1024 * 1024),
  80042020d1:	48 b8 70 37 48 04 80 	movabs $0x8004483770,%rax
  80042020d8:	00 00 00 
  80042020db:	48 8b 00             	mov    (%rax),%rax
  80042020de:	48 c1 e0 0c          	shl    $0xc,%rax
	if (npages_extmem)
		npages = (EXTPHYSMEM / PGSIZE) + npages_extmem;
	else
		npages = npages_basemem;

	cprintf("Physical memory: %uM available, base = %uK, extended = %uK, npages = %d\n",
  80042020e2:	48 c1 e8 14          	shr    $0x14,%rax
  80042020e6:	49 89 f0             	mov    %rsi,%r8
  80042020e9:	48 89 c6             	mov    %rax,%rsi
  80042020ec:	48 bf c8 c7 21 04 80 	movabs $0x800421c7c8,%rdi
  80042020f3:	00 00 00 
  80042020f6:	b8 00 00 00 00       	mov    $0x0,%eax
  80042020fb:	49 b9 7a 90 20 04 80 	movabs $0x800420907a,%r9
  8004202102:	00 00 00 
  8004202105:	41 ff d1             	callq  *%r9
	//JOS 64 pages are limited by the size of both the UPAGES
	//  virtual address space, and the range from KERNBASE to UVPT.
	//
	// NB: qemu seems to have a bug that crashes the host system on 13.10 if you try to 
	//     max out memory.
	uint64_t upages_max = (ULIM - UPAGES) / sizeof(struct PageInfo);
  8004202108:	48 c7 45 d8 00 00 32 	movq   $0x320000,-0x28(%rbp)
  800420210f:	00 
	uint64_t kern_mem_max = (UVPT - KERNBASE) / PGSIZE;
  8004202110:	48 c7 45 d0 00 c0 ff 	movq   $0x7ffc000,-0x30(%rbp)
  8004202117:	07 
	cprintf("Pages limited to %llu by upage address range (%uMB), Pages limited to %llu by remapped phys mem (%uMB)\n", 
		upages_max, ((upages_max * PGSIZE) / (1024 * 1024)),
		kern_mem_max, kern_mem_max * PGSIZE / (1024 * 1024));
  8004202118:	48 8b 45 d0          	mov    -0x30(%rbp),%rax
  800420211c:	48 c1 e0 0c          	shl    $0xc,%rax
	//
	// NB: qemu seems to have a bug that crashes the host system on 13.10 if you try to 
	//     max out memory.
	uint64_t upages_max = (ULIM - UPAGES) / sizeof(struct PageInfo);
	uint64_t kern_mem_max = (UVPT - KERNBASE) / PGSIZE;
	cprintf("Pages limited to %llu by upage address range (%uMB), Pages limited to %llu by remapped phys mem (%uMB)\n", 
  8004202120:	48 89 c1             	mov    %rax,%rcx
  8004202123:	48 c1 e9 14          	shr    $0x14,%rcx
		upages_max, ((upages_max * PGSIZE) / (1024 * 1024)),
  8004202127:	48 8b 45 d8          	mov    -0x28(%rbp),%rax
  800420212b:	48 c1 e0 0c          	shl    $0xc,%rax
	//
	// NB: qemu seems to have a bug that crashes the host system on 13.10 if you try to 
	//     max out memory.
	uint64_t upages_max = (ULIM - UPAGES) / sizeof(struct PageInfo);
	uint64_t kern_mem_max = (UVPT - KERNBASE) / PGSIZE;
	cprintf("Pages limited to %llu by upage address range (%uMB), Pages limited to %llu by remapped phys mem (%uMB)\n", 
  800420212f:	48 89 c6             	mov    %rax,%rsi
  8004202132:	48 c1 ee 14          	shr    $0x14,%rsi
  8004202136:	48 8b 55 d0          	mov    -0x30(%rbp),%rdx
  800420213a:	48 8b 45 d8          	mov    -0x28(%rbp),%rax
  800420213e:	49 89 c8             	mov    %rcx,%r8
  8004202141:	48 89 d1             	mov    %rdx,%rcx
  8004202144:	48 89 f2             	mov    %rsi,%rdx
  8004202147:	48 89 c6             	mov    %rax,%rsi
  800420214a:	48 bf 18 c8 21 04 80 	movabs $0x800421c818,%rdi
  8004202151:	00 00 00 
  8004202154:	b8 00 00 00 00       	mov    $0x0,%eax
  8004202159:	49 b9 7a 90 20 04 80 	movabs $0x800420907a,%r9
  8004202160:	00 00 00 
  8004202163:	41 ff d1             	callq  *%r9
		upages_max, ((upages_max * PGSIZE) / (1024 * 1024)),
		kern_mem_max, kern_mem_max * PGSIZE / (1024 * 1024));
	uint64_t max_npages = upages_max < kern_mem_max ? upages_max : kern_mem_max;
  8004202166:	48 8b 45 d8          	mov    -0x28(%rbp),%rax
  800420216a:	48 39 45 d0          	cmp    %rax,-0x30(%rbp)
  800420216e:	48 0f 46 45 d0       	cmovbe -0x30(%rbp),%rax
  8004202173:	48 89 45 c8          	mov    %rax,-0x38(%rbp)

	if(npages > max_npages) {
  8004202177:	48 b8 70 37 48 04 80 	movabs $0x8004483770,%rax
  800420217e:	00 00 00 
  8004202181:	48 8b 00             	mov    (%rax),%rax
  8004202184:	48 3b 45 c8          	cmp    -0x38(%rbp),%rax
  8004202188:	76 3a                	jbe    80042021c4 <i386_detect_memory+0x2a1>
		npages = max_npages - 1024;
  800420218a:	48 8b 45 c8          	mov    -0x38(%rbp),%rax
  800420218e:	48 8d 90 00 fc ff ff 	lea    -0x400(%rax),%rdx
  8004202195:	48 b8 70 37 48 04 80 	movabs $0x8004483770,%rax
  800420219c:	00 00 00 
  800420219f:	48 89 10             	mov    %rdx,(%rax)
		cprintf("Using only %uK of the available memory.\n", max_npages);
  80042021a2:	48 8b 45 c8          	mov    -0x38(%rbp),%rax
  80042021a6:	48 89 c6             	mov    %rax,%rsi
  80042021a9:	48 bf 80 c8 21 04 80 	movabs $0x800421c880,%rdi
  80042021b0:	00 00 00 
  80042021b3:	b8 00 00 00 00       	mov    $0x0,%eax
  80042021b8:	48 ba 7a 90 20 04 80 	movabs $0x800420907a,%rdx
  80042021bf:	00 00 00 
  80042021c2:	ff d2                	callq  *%rdx
	}
}
  80042021c4:	c9                   	leaveq 
  80042021c5:	c3                   	retq   

00000080042021c6 <boot_alloc>:
// If we're out of memory, boot_alloc should panic.
// This function may ONLY be used during initialization,
// before the page_free_list list has been set up.
static void *
boot_alloc(uint32_t n)
{
  80042021c6:	55                   	push   %rbp
  80042021c7:	48 89 e5             	mov    %rsp,%rbp
  80042021ca:	48 83 ec 38          	sub    $0x38,%rsp
  80042021ce:	89 7d cc             	mov    %edi,-0x34(%rbp)
	// Initialize nextfree if this is the first time.
	// 'end' is a magic symbol automatically generated by the linker,
	// which points to the end of the kernel's bss segment:
	// the first virtual address that the linker did *not* assign
	// to any kernel code or global variables.
	if (!nextfree) {
  80042021d1:	48 b8 48 22 48 04 80 	movabs $0x8004482248,%rax
  80042021d8:	00 00 00 
  80042021db:	48 8b 00             	mov    (%rax),%rax
  80042021de:	48 85 c0             	test   %rax,%rax
  80042021e1:	75 4e                	jne    8004202231 <boot_alloc+0x6b>
#ifdef VMM_GUEST
		extern char end[];
		nextfree = ROUNDUP((char *) end, PGSIZE);
#else
		extern uintptr_t end_debug;
		nextfree = ROUNDUP((char *) end_debug, PGSIZE);
  80042021e3:	48 c7 45 f8 00 10 00 	movq   $0x1000,-0x8(%rbp)
  80042021ea:	00 
  80042021eb:	48 b8 48 37 48 04 80 	movabs $0x8004483748,%rax
  80042021f2:	00 00 00 
  80042021f5:	48 8b 00             	mov    (%rax),%rax
  80042021f8:	48 03 45 f8          	add    -0x8(%rbp),%rax
  80042021fc:	48 83 e8 01          	sub    $0x1,%rax
  8004202200:	48 89 45 f0          	mov    %rax,-0x10(%rbp)
  8004202204:	48 8b 45 f0          	mov    -0x10(%rbp),%rax
  8004202208:	ba 00 00 00 00       	mov    $0x0,%edx
  800420220d:	48 f7 75 f8          	divq   -0x8(%rbp)
  8004202211:	48 89 d0             	mov    %rdx,%rax
  8004202214:	48 8b 55 f0          	mov    -0x10(%rbp),%rdx
  8004202218:	48 89 d1             	mov    %rdx,%rcx
  800420221b:	48 29 c1             	sub    %rax,%rcx
  800420221e:	48 89 c8             	mov    %rcx,%rax
  8004202221:	48 89 c2             	mov    %rax,%rdx
  8004202224:	48 b8 48 22 48 04 80 	movabs $0x8004482248,%rax
  800420222b:	00 00 00 
  800420222e:	48 89 10             	mov    %rdx,(%rax)
	// Allocate a chunk large enough to hold 'n' bytes, then update
	// nextfree.  Make sure nextfree is kept aligned
	// to a multiple of PGSIZE.
	//
	// LAB 2: Your code here.
	result = nextfree;
  8004202231:	48 b8 48 22 48 04 80 	movabs $0x8004482248,%rax
  8004202238:	00 00 00 
  800420223b:	48 8b 00             	mov    (%rax),%rax
  800420223e:	48 89 45 e8          	mov    %rax,-0x18(%rbp)
    if (n>0) {
  8004202242:	83 7d cc 00          	cmpl   $0x0,-0x34(%rbp)
  8004202246:	74 57                	je     800420229f <boot_alloc+0xd9>
        uint32_t newSize = ROUNDUP(n, PGSIZE);
  8004202248:	48 c7 45 e0 00 10 00 	movq   $0x1000,-0x20(%rbp)
  800420224f:	00 
  8004202250:	8b 45 cc             	mov    -0x34(%rbp),%eax
  8004202253:	48 03 45 e0          	add    -0x20(%rbp),%rax
  8004202257:	48 83 e8 01          	sub    $0x1,%rax
  800420225b:	48 89 45 d8          	mov    %rax,-0x28(%rbp)
  800420225f:	48 8b 45 d8          	mov    -0x28(%rbp),%rax
  8004202263:	ba 00 00 00 00       	mov    $0x0,%edx
  8004202268:	48 f7 75 e0          	divq   -0x20(%rbp)
  800420226c:	48 89 d0             	mov    %rdx,%rax
  800420226f:	48 8b 55 d8          	mov    -0x28(%rbp),%rdx
  8004202273:	48 89 d1             	mov    %rdx,%rcx
  8004202276:	48 29 c1             	sub    %rax,%rcx
  8004202279:	48 89 c8             	mov    %rcx,%rax
  800420227c:	89 45 d4             	mov    %eax,-0x2c(%rbp)
        nextfree = nextfree + newSize;
  800420227f:	48 b8 48 22 48 04 80 	movabs $0x8004482248,%rax
  8004202286:	00 00 00 
  8004202289:	48 8b 10             	mov    (%rax),%rdx
  800420228c:	8b 45 d4             	mov    -0x2c(%rbp),%eax
  800420228f:	48 01 c2             	add    %rax,%rdx
  8004202292:	48 b8 48 22 48 04 80 	movabs $0x8004482248,%rax
  8004202299:	00 00 00 
  800420229c:	48 89 10             	mov    %rdx,(%rax)
    }    
    return result;
  800420229f:	48 8b 45 e8          	mov    -0x18(%rbp),%rax
}
  80042022a3:	c9                   	leaveq 
  80042022a4:	c3                   	retq   

00000080042022a5 <x64_vm_init>:
//
// From UTOP to ULIM, the user is allowed to read but not write.
// Above ULIM the user cannot read or write.
void
x64_vm_init(void)
{
  80042022a5:	55                   	push   %rbp
  80042022a6:	48 89 e5             	mov    %rsp,%rbp
  80042022a9:	48 81 ec 90 00 00 00 	sub    $0x90,%rsp
	pml4e_t* pml4e;
	uint32_t cr0;
	uint64_t n;
	int r;
	struct Env *env;
	i386_detect_memory();
  80042022b0:	48 b8 23 1f 20 04 80 	movabs $0x8004201f23,%rax
  80042022b7:	00 00 00 
  80042022ba:	ff d0                	callq  *%rax
	//panic("i386_vm_init: This function is not finished\n");
	//////////////////////////////////////////////////////////////////////
	// create initial page directory.
	// panic("x64_vm_init: this function is not finished\n");
	pml4e = boot_alloc(PGSIZE);
  80042022bc:	bf 00 10 00 00       	mov    $0x1000,%edi
  80042022c1:	48 b8 c6 21 20 04 80 	movabs $0x80042021c6,%rax
  80042022c8:	00 00 00 
  80042022cb:	ff d0                	callq  *%rax
  80042022cd:	48 89 45 f8          	mov    %rax,-0x8(%rbp)
	memset(pml4e, 0, PGSIZE);
  80042022d1:	48 8b 45 f8          	mov    -0x8(%rbp),%rax
  80042022d5:	ba 00 10 00 00       	mov    $0x1000,%edx
  80042022da:	be 00 00 00 00       	mov    $0x0,%esi
  80042022df:	48 89 c7             	mov    %rax,%rdi
  80042022e2:	48 b8 47 03 21 04 80 	movabs $0x8004210347,%rax
  80042022e9:	00 00 00 
  80042022ec:	ff d0                	callq  *%rax
	boot_pml4e = pml4e;
  80042022ee:	48 b8 68 37 48 04 80 	movabs $0x8004483768,%rax
  80042022f5:	00 00 00 
  80042022f8:	48 8b 55 f8          	mov    -0x8(%rbp),%rdx
  80042022fc:	48 89 10             	mov    %rdx,(%rax)
	boot_cr3 = PADDR(pml4e);
  80042022ff:	48 8b 45 f8          	mov    -0x8(%rbp),%rax
  8004202303:	48 89 45 f0          	mov    %rax,-0x10(%rbp)
  8004202307:	48 b8 ff ff ff 03 80 	movabs $0x8003ffffff,%rax
  800420230e:	00 00 00 
  8004202311:	48 39 45 f0          	cmp    %rax,-0x10(%rbp)
  8004202315:	77 32                	ja     8004202349 <x64_vm_init+0xa4>
  8004202317:	48 8b 45 f0          	mov    -0x10(%rbp),%rax
  800420231b:	48 89 c1             	mov    %rax,%rcx
  800420231e:	48 ba b0 c8 21 04 80 	movabs $0x800421c8b0,%rdx
  8004202325:	00 00 00 
  8004202328:	be 04 01 00 00       	mov    $0x104,%esi
  800420232d:	48 bf b6 c7 21 04 80 	movabs $0x800421c7b6,%rdi
  8004202334:	00 00 00 
  8004202337:	b8 00 00 00 00       	mov    $0x0,%eax
  800420233c:	49 b8 c2 04 20 04 80 	movabs $0x80042004c2,%r8
  8004202343:	00 00 00 
  8004202346:	41 ff d0             	callq  *%r8
  8004202349:	48 b8 00 00 00 fc 7f 	movabs $0xffffff7ffc000000,%rax
  8004202350:	ff ff ff 
  8004202353:	48 89 c2             	mov    %rax,%rdx
  8004202356:	48 03 55 f0          	add    -0x10(%rbp),%rdx
  800420235a:	48 b8 60 37 48 04 80 	movabs $0x8004483760,%rax
  8004202361:	00 00 00 
  8004202364:	48 89 10             	mov    %rdx,(%rax)
	// Allocate an array of npages 'struct PageInfo's and store it in 'pages'.
	// The kernel uses this array to keep track of physical pages: for
	// each physical page, there is a corresponding struct PageInfo in this
	// array.  'npages' is the number of physical pages in memory.
	// Your code goes here:
	pages = (struct PageInfo*)boot_alloc(sizeof(struct PageInfo)*npages);
  8004202367:	48 b8 70 37 48 04 80 	movabs $0x8004483770,%rax
  800420236e:	00 00 00 
  8004202371:	48 8b 00             	mov    (%rax),%rax
  8004202374:	c1 e0 04             	shl    $0x4,%eax
  8004202377:	89 c7                	mov    %eax,%edi
  8004202379:	48 b8 c6 21 20 04 80 	movabs $0x80042021c6,%rax
  8004202380:	00 00 00 
  8004202383:	ff d0                	callq  *%rax
  8004202385:	48 ba 78 37 48 04 80 	movabs $0x8004483778,%rdx
  800420238c:	00 00 00 
  800420238f:	48 89 02             	mov    %rax,(%rdx)
	//////////////////////////////////////////////////////////////////////
	// Make 'envs' point to an array of size 'NENV' of 'struct Env'.
	// LAB 3: Your code here.
	envs = (struct Env*)boot_alloc(sizeof(struct Env)*NENV);
  8004202392:	bf 00 80 05 00       	mov    $0x58000,%edi
  8004202397:	48 b8 c6 21 20 04 80 	movabs $0x80042021c6,%rax
  800420239e:	00 00 00 
  80042023a1:	ff d0                	callq  *%rax
  80042023a3:	48 ba 50 22 48 04 80 	movabs $0x8004482250,%rdx
  80042023aa:	00 00 00 
  80042023ad:	48 89 02             	mov    %rax,(%rdx)
	memset(envs, 0, NENV * sizeof(struct Env));	
  80042023b0:	48 b8 50 22 48 04 80 	movabs $0x8004482250,%rax
  80042023b7:	00 00 00 
  80042023ba:	48 8b 00             	mov    (%rax),%rax
  80042023bd:	ba 00 80 05 00       	mov    $0x58000,%edx
  80042023c2:	be 00 00 00 00       	mov    $0x0,%esi
  80042023c7:	48 89 c7             	mov    %rax,%rdi
  80042023ca:	48 b8 47 03 21 04 80 	movabs $0x8004210347,%rax
  80042023d1:	00 00 00 
  80042023d4:	ff d0                	callq  *%rax
	//////////////////////////////////////////////////////////////////////
	// Now that we've allocated the initial kernel data structures, we set
	// up the list of free physical pages. Once we've done so, all further
	// memory management will go through the page_* functions. In
	// particular, we can now map memory using boot_map_region or page_insert
	page_init();
  80042023d6:	48 b8 71 28 20 04 80 	movabs $0x8004202871,%rax
  80042023dd:	00 00 00 
  80042023e0:	ff d0                	callq  *%rax
	// Permissions:
	//    - the new image at UPAGES -- kernel R, us/er R
	//      (ie. perm = PTE_U | PTE_P)
	//    - pages itself -- kernel RW, user NONE
	// Your code goes here:i
	size_t size = ROUNDUP(npages*(sizeof(struct PageInfo)), PGSIZE);	
  80042023e2:	48 c7 45 e8 00 10 00 	movq   $0x1000,-0x18(%rbp)
  80042023e9:	00 
  80042023ea:	48 b8 70 37 48 04 80 	movabs $0x8004483770,%rax
  80042023f1:	00 00 00 
  80042023f4:	48 8b 00             	mov    (%rax),%rax
  80042023f7:	48 c1 e0 04          	shl    $0x4,%rax
  80042023fb:	48 03 45 e8          	add    -0x18(%rbp),%rax
  80042023ff:	48 83 e8 01          	sub    $0x1,%rax
  8004202403:	48 89 45 e0          	mov    %rax,-0x20(%rbp)
  8004202407:	48 8b 45 e0          	mov    -0x20(%rbp),%rax
  800420240b:	ba 00 00 00 00       	mov    $0x0,%edx
  8004202410:	48 f7 75 e8          	divq   -0x18(%rbp)
  8004202414:	48 89 d0             	mov    %rdx,%rax
  8004202417:	48 8b 55 e0          	mov    -0x20(%rbp),%rdx
  800420241b:	48 89 d1             	mov    %rdx,%rcx
  800420241e:	48 29 c1             	sub    %rax,%rcx
  8004202421:	48 89 c8             	mov    %rcx,%rax
  8004202424:	48 89 45 d8          	mov    %rax,-0x28(%rbp)
	boot_map_region(boot_pml4e, UPAGES, size, PADDR(pages), PTE_U|PTE_P);
  8004202428:	48 b8 78 37 48 04 80 	movabs $0x8004483778,%rax
  800420242f:	00 00 00 
  8004202432:	48 8b 00             	mov    (%rax),%rax
  8004202435:	48 89 45 d0          	mov    %rax,-0x30(%rbp)
  8004202439:	48 b8 ff ff ff 03 80 	movabs $0x8003ffffff,%rax
  8004202440:	00 00 00 
  8004202443:	48 39 45 d0          	cmp    %rax,-0x30(%rbp)
  8004202447:	77 32                	ja     800420247b <x64_vm_init+0x1d6>
  8004202449:	48 8b 45 d0          	mov    -0x30(%rbp),%rax
  800420244d:	48 89 c1             	mov    %rax,%rcx
  8004202450:	48 ba b0 c8 21 04 80 	movabs $0x800421c8b0,%rdx
  8004202457:	00 00 00 
  800420245a:	be 22 01 00 00       	mov    $0x122,%esi
  800420245f:	48 bf b6 c7 21 04 80 	movabs $0x800421c7b6,%rdi
  8004202466:	00 00 00 
  8004202469:	b8 00 00 00 00       	mov    $0x0,%eax
  800420246e:	49 b8 c2 04 20 04 80 	movabs $0x80042004c2,%r8
  8004202475:	00 00 00 
  8004202478:	41 ff d0             	callq  *%r8
  800420247b:	48 b8 00 00 00 fc 7f 	movabs $0xffffff7ffc000000,%rax
  8004202482:	ff ff ff 
  8004202485:	48 89 c1             	mov    %rax,%rcx
  8004202488:	48 03 4d d0          	add    -0x30(%rbp),%rcx
  800420248c:	48 b8 68 37 48 04 80 	movabs $0x8004483768,%rax
  8004202493:	00 00 00 
  8004202496:	48 8b 00             	mov    (%rax),%rax
  8004202499:	48 8b 55 d8          	mov    -0x28(%rbp),%rdx
  800420249d:	41 b8 05 00 00 00    	mov    $0x5,%r8d
  80042024a3:	48 be 00 00 a0 00 80 	movabs $0x8000a00000,%rsi
  80042024aa:	00 00 00 
  80042024ad:	48 89 c7             	mov    %rax,%rdi
  80042024b0:	48 b8 89 33 20 04 80 	movabs $0x8004203389,%rax
  80042024b7:	00 00 00 
  80042024ba:	ff d0                	callq  *%rax
	// (ie. perm = PTE_U | PTE_P).
	// Permissions:
	//    - the new image at UENVS  -- kernel R, user R
	//    - envs itself -- kernel RW, user NONE
	// LAB 3: Your code here.
	size_t envsize = ROUNDUP(NENV*(sizeof(struct Env)), PGSIZE);
  80042024bc:	48 c7 45 c8 00 10 00 	movq   $0x1000,-0x38(%rbp)
  80042024c3:	00 
  80042024c4:	48 8b 45 c8          	mov    -0x38(%rbp),%rax
  80042024c8:	48 05 ff 7f 05 00    	add    $0x57fff,%rax
  80042024ce:	48 89 45 c0          	mov    %rax,-0x40(%rbp)
  80042024d2:	48 8b 45 c0          	mov    -0x40(%rbp),%rax
  80042024d6:	ba 00 00 00 00       	mov    $0x0,%edx
  80042024db:	48 f7 75 c8          	divq   -0x38(%rbp)
  80042024df:	48 89 d0             	mov    %rdx,%rax
  80042024e2:	48 8b 55 c0          	mov    -0x40(%rbp),%rdx
  80042024e6:	48 89 d1             	mov    %rdx,%rcx
  80042024e9:	48 29 c1             	sub    %rax,%rcx
  80042024ec:	48 89 c8             	mov    %rcx,%rax
  80042024ef:	48 89 45 b8          	mov    %rax,-0x48(%rbp)
	boot_map_region(boot_pml4e, UENVS, envsize, PADDR(envs), PTE_U|PTE_P);
  80042024f3:	48 b8 50 22 48 04 80 	movabs $0x8004482250,%rax
  80042024fa:	00 00 00 
  80042024fd:	48 8b 00             	mov    (%rax),%rax
  8004202500:	48 89 45 b0          	mov    %rax,-0x50(%rbp)
  8004202504:	48 b8 ff ff ff 03 80 	movabs $0x8003ffffff,%rax
  800420250b:	00 00 00 
  800420250e:	48 39 45 b0          	cmp    %rax,-0x50(%rbp)
  8004202512:	77 32                	ja     8004202546 <x64_vm_init+0x2a1>
  8004202514:	48 8b 45 b0          	mov    -0x50(%rbp),%rax
  8004202518:	48 89 c1             	mov    %rax,%rcx
  800420251b:	48 ba b0 c8 21 04 80 	movabs $0x800421c8b0,%rdx
  8004202522:	00 00 00 
  8004202525:	be 2c 01 00 00       	mov    $0x12c,%esi
  800420252a:	48 bf b6 c7 21 04 80 	movabs $0x800421c7b6,%rdi
  8004202531:	00 00 00 
  8004202534:	b8 00 00 00 00       	mov    $0x0,%eax
  8004202539:	49 b8 c2 04 20 04 80 	movabs $0x80042004c2,%r8
  8004202540:	00 00 00 
  8004202543:	41 ff d0             	callq  *%r8
  8004202546:	48 b8 00 00 00 fc 7f 	movabs $0xffffff7ffc000000,%rax
  800420254d:	ff ff ff 
  8004202550:	48 89 c1             	mov    %rax,%rcx
  8004202553:	48 03 4d b0          	add    -0x50(%rbp),%rcx
  8004202557:	48 b8 68 37 48 04 80 	movabs $0x8004483768,%rax
  800420255e:	00 00 00 
  8004202561:	48 8b 00             	mov    (%rax),%rax
  8004202564:	48 8b 55 b8          	mov    -0x48(%rbp),%rdx
  8004202568:	41 b8 05 00 00 00    	mov    $0x5,%r8d
  800420256e:	48 be 00 00 80 00 80 	movabs $0x8000800000,%rsi
  8004202575:	00 00 00 
  8004202578:	48 89 c7             	mov    %rax,%rdi
  800420257b:	48 b8 89 33 20 04 80 	movabs $0x8004203389,%rax
  8004202582:	00 00 00 
  8004202585:	ff d0                	callq  *%rax
	//     * [KSTACKTOP-PTSIZE, KSTACKTOP-KSTKSIZE) -- not backed; so if
	//       the kernel overflows its stack, it will fault rather than
	//       overwrite memory.  Known as a "guard page".
	//     Permissions: kernel RW, user NONE
	// Your code goes here:
	boot_map_region(boot_pml4e, KSTACKTOP-KSTKSIZE, KSTKSIZE, PADDR(bootstack), PTE_P|PTE_W);
  8004202587:	48 b8 00 00 22 04 80 	movabs $0x8004220000,%rax
  800420258e:	00 00 00 
  8004202591:	48 89 45 a8          	mov    %rax,-0x58(%rbp)
  8004202595:	48 b8 ff ff ff 03 80 	movabs $0x8003ffffff,%rax
  800420259c:	00 00 00 
  800420259f:	48 39 45 a8          	cmp    %rax,-0x58(%rbp)
  80042025a3:	77 32                	ja     80042025d7 <x64_vm_init+0x332>
  80042025a5:	48 8b 45 a8          	mov    -0x58(%rbp),%rax
  80042025a9:	48 89 c1             	mov    %rax,%rcx
  80042025ac:	48 ba b0 c8 21 04 80 	movabs $0x800421c8b0,%rdx
  80042025b3:	00 00 00 
  80042025b6:	be 39 01 00 00       	mov    $0x139,%esi
  80042025bb:	48 bf b6 c7 21 04 80 	movabs $0x800421c7b6,%rdi
  80042025c2:	00 00 00 
  80042025c5:	b8 00 00 00 00       	mov    $0x0,%eax
  80042025ca:	49 b8 c2 04 20 04 80 	movabs $0x80042004c2,%r8
  80042025d1:	00 00 00 
  80042025d4:	41 ff d0             	callq  *%r8
  80042025d7:	48 b8 00 00 00 fc 7f 	movabs $0xffffff7ffc000000,%rax
  80042025de:	ff ff ff 
  80042025e1:	48 89 c2             	mov    %rax,%rdx
  80042025e4:	48 03 55 a8          	add    -0x58(%rbp),%rdx
  80042025e8:	48 b8 68 37 48 04 80 	movabs $0x8004483768,%rax
  80042025ef:	00 00 00 
  80042025f2:	48 8b 00             	mov    (%rax),%rax
  80042025f5:	41 b8 03 00 00 00    	mov    $0x3,%r8d
  80042025fb:	48 89 d1             	mov    %rdx,%rcx
  80042025fe:	ba 00 00 01 00       	mov    $0x10000,%edx
  8004202603:	48 be 00 00 ff 03 80 	movabs $0x8003ff0000,%rsi
  800420260a:	00 00 00 
  800420260d:	48 89 c7             	mov    %rax,%rdi
  8004202610:	48 b8 89 33 20 04 80 	movabs $0x8004203389,%rax
  8004202617:	00 00 00 
  800420261a:	ff d0                	callq  *%rax
	// of physical pages to be npages.
	// Ie.  the VA range [KERNBASE, npages*PGSIZE) should map to
	//      the PA range [0, npages*PGSIZE)
	// Permissions: kernel RW, user NONE
	// Your code goes here: 
	boot_map_region(boot_pml4e, KERNBASE, npages*PGSIZE, (physaddr_t)0x0, PTE_P|PTE_W);
  800420261c:	48 b8 70 37 48 04 80 	movabs $0x8004483770,%rax
  8004202623:	00 00 00 
  8004202626:	48 8b 00             	mov    (%rax),%rax
  8004202629:	48 89 c2             	mov    %rax,%rdx
  800420262c:	48 c1 e2 0c          	shl    $0xc,%rdx
  8004202630:	48 b8 68 37 48 04 80 	movabs $0x8004483768,%rax
  8004202637:	00 00 00 
  800420263a:	48 8b 00             	mov    (%rax),%rax
  800420263d:	41 b8 03 00 00 00    	mov    $0x3,%r8d
  8004202643:	b9 00 00 00 00       	mov    $0x0,%ecx
  8004202648:	48 be 00 00 00 04 80 	movabs $0x8004000000,%rsi
  800420264f:	00 00 00 
  8004202652:	48 89 c7             	mov    %rax,%rdi
  8004202655:	48 b8 89 33 20 04 80 	movabs $0x8004203389,%rax
  800420265c:	00 00 00 
  800420265f:	ff d0                	callq  *%rax

	// Check that the initial page directory has been set up correctly.
	// Initialize the SMP-related parts of the memory map
	mem_init_mp();
  8004202661:	48 b8 7e 27 20 04 80 	movabs $0x800420277e,%rax
  8004202668:	00 00 00 
  800420266b:	ff d0                	callq  *%rax
	/* check_boot_pml4e(boot_pml4e); */

	//////////////////////////////////////////////////////////////////////
	// Permissions: kernel RW, user NONE

	lcr3(boot_cr3);
  800420266d:	48 b8 60 37 48 04 80 	movabs $0x8004483760,%rax
  8004202674:	00 00 00 
  8004202677:	48 8b 00             	mov    (%rax),%rax
  800420267a:	48 89 85 70 ff ff ff 	mov    %rax,-0x90(%rbp)
}

    static __inline void
lcr3(uint64_t val)
{
    __asm __volatile("movq %0,%%cr3" : : "r" (val));
  8004202681:	48 8b 85 70 ff ff ff 	mov    -0x90(%rbp),%rax
  8004202688:	0f 22 d8             	mov    %rax,%cr3
	
	pdpe_t *pdpe = KADDR(PTE_ADDR(pml4e[1]));
  800420268b:	48 8b 45 f8          	mov    -0x8(%rbp),%rax
  800420268f:	48 83 c0 08          	add    $0x8,%rax
  8004202693:	48 8b 00             	mov    (%rax),%rax
  8004202696:	48 25 00 f0 ff ff    	and    $0xfffffffffffff000,%rax
  800420269c:	48 89 45 a0          	mov    %rax,-0x60(%rbp)
  80042026a0:	48 8b 45 a0          	mov    -0x60(%rbp),%rax
  80042026a4:	48 c1 e8 0c          	shr    $0xc,%rax
  80042026a8:	89 45 9c             	mov    %eax,-0x64(%rbp)
  80042026ab:	8b 55 9c             	mov    -0x64(%rbp),%edx
  80042026ae:	48 b8 70 37 48 04 80 	movabs $0x8004483770,%rax
  80042026b5:	00 00 00 
  80042026b8:	48 8b 00             	mov    (%rax),%rax
  80042026bb:	48 39 c2             	cmp    %rax,%rdx
  80042026be:	72 32                	jb     80042026f2 <x64_vm_init+0x44d>
  80042026c0:	48 8b 45 a0          	mov    -0x60(%rbp),%rax
  80042026c4:	48 89 c1             	mov    %rax,%rcx
  80042026c7:	48 ba 28 c7 21 04 80 	movabs $0x800421c728,%rdx
  80042026ce:	00 00 00 
  80042026d1:	be 52 01 00 00       	mov    $0x152,%esi
  80042026d6:	48 bf b6 c7 21 04 80 	movabs $0x800421c7b6,%rdi
  80042026dd:	00 00 00 
  80042026e0:	b8 00 00 00 00       	mov    $0x0,%eax
  80042026e5:	49 b8 c2 04 20 04 80 	movabs $0x80042004c2,%r8
  80042026ec:	00 00 00 
  80042026ef:	41 ff d0             	callq  *%r8
  80042026f2:	48 b8 00 00 00 04 80 	movabs $0x8004000000,%rax
  80042026f9:	00 00 00 
  80042026fc:	48 03 45 a0          	add    -0x60(%rbp),%rax
  8004202700:	48 89 45 90          	mov    %rax,-0x70(%rbp)
	pde_t *pgdir = KADDR(PTE_ADDR(pdpe[0]));
  8004202704:	48 8b 45 90          	mov    -0x70(%rbp),%rax
  8004202708:	48 8b 00             	mov    (%rax),%rax
  800420270b:	48 25 00 f0 ff ff    	and    $0xfffffffffffff000,%rax
  8004202711:	48 89 45 88          	mov    %rax,-0x78(%rbp)
  8004202715:	48 8b 45 88          	mov    -0x78(%rbp),%rax
  8004202719:	48 c1 e8 0c          	shr    $0xc,%rax
  800420271d:	89 45 84             	mov    %eax,-0x7c(%rbp)
  8004202720:	8b 55 84             	mov    -0x7c(%rbp),%edx
  8004202723:	48 b8 70 37 48 04 80 	movabs $0x8004483770,%rax
  800420272a:	00 00 00 
  800420272d:	48 8b 00             	mov    (%rax),%rax
  8004202730:	48 39 c2             	cmp    %rax,%rdx
  8004202733:	72 32                	jb     8004202767 <x64_vm_init+0x4c2>
  8004202735:	48 8b 45 88          	mov    -0x78(%rbp),%rax
  8004202739:	48 89 c1             	mov    %rax,%rcx
  800420273c:	48 ba 28 c7 21 04 80 	movabs $0x800421c728,%rdx
  8004202743:	00 00 00 
  8004202746:	be 53 01 00 00       	mov    $0x153,%esi
  800420274b:	48 bf b6 c7 21 04 80 	movabs $0x800421c7b6,%rdi
  8004202752:	00 00 00 
  8004202755:	b8 00 00 00 00       	mov    $0x0,%eax
  800420275a:	49 b8 c2 04 20 04 80 	movabs $0x80042004c2,%r8
  8004202761:	00 00 00 
  8004202764:	41 ff d0             	callq  *%r8
  8004202767:	48 b8 00 00 00 04 80 	movabs $0x8004000000,%rax
  800420276e:	00 00 00 
  8004202771:	48 03 45 88          	add    -0x78(%rbp),%rax
  8004202775:	48 89 85 78 ff ff ff 	mov    %rax,-0x88(%rbp)

	/* check_page_free_list(1); */
	/* check_page_alloc(); */
	/* page_check(); */
	/* check_page_free_list(0); */
}
  800420277c:	c9                   	leaveq 
  800420277d:	c3                   	retq   

000000800420277e <mem_init_mp>:
// Modify mappings in boot_pml4e to support SMP
//   - Map the per-CPU stacks in the region [KSTACKTOP-PTSIZE, KSTACKTOP)
//
static void
mem_init_mp(void)
{
  800420277e:	55                   	push   %rbp
  800420277f:	48 89 e5             	mov    %rsp,%rbp
  8004202782:	48 83 ec 20          	sub    $0x20,%rsp
	//             it will fault rather than overwrite another CPU's stack.
	//             Known as a "guard page".
	//     Permissions: kernel RW, user NONE
	//
	// LAB 4: Your code here:
	size_t ncpus = 0;
  8004202786:	48 c7 45 f8 00 00 00 	movq   $0x0,-0x8(%rbp)
  800420278d:	00 
	for (;ncpus < NCPU ; ncpus++) {
  800420278e:	e9 d1 00 00 00       	jmpq   8004202864 <mem_init_mp+0xe6>
		size_t kstacktop_ncpus = KSTACKTOP - ncpus * (KSTKSIZE+KSTKGAP);
  8004202793:	48 8b 55 f8          	mov    -0x8(%rbp),%rdx
  8004202797:	48 89 d0             	mov    %rdx,%rax
  800420279a:	48 01 c0             	add    %rax,%rax
  800420279d:	48 01 d0             	add    %rdx,%rax
  80042027a0:	48 c1 e0 0f          	shl    $0xf,%rax
  80042027a4:	48 ba 00 00 00 04 80 	movabs $0x8004000000,%rdx
  80042027ab:	00 00 00 
  80042027ae:	48 89 d1             	mov    %rdx,%rcx
  80042027b1:	48 29 c1             	sub    %rax,%rcx
  80042027b4:	48 89 c8             	mov    %rcx,%rax
  80042027b7:	48 89 45 f0          	mov    %rax,-0x10(%rbp)
		boot_map_region(boot_pml4e, kstacktop_ncpus-KSTKSIZE, KSTKSIZE, PADDR(percpu_kstacks[ncpus]), PTE_P|PTE_W);
  80042027bb:	48 8b 45 f8          	mov    -0x8(%rbp),%rax
  80042027bf:	48 89 c2             	mov    %rax,%rdx
  80042027c2:	48 c1 e2 10          	shl    $0x10,%rdx
  80042027c6:	48 b8 00 60 48 04 80 	movabs $0x8004486000,%rax
  80042027cd:	00 00 00 
  80042027d0:	48 01 d0             	add    %rdx,%rax
  80042027d3:	48 89 45 e8          	mov    %rax,-0x18(%rbp)
  80042027d7:	48 b8 ff ff ff 03 80 	movabs $0x8003ffffff,%rax
  80042027de:	00 00 00 
  80042027e1:	48 39 45 e8          	cmp    %rax,-0x18(%rbp)
  80042027e5:	77 32                	ja     8004202819 <mem_init_mp+0x9b>
  80042027e7:	48 8b 45 e8          	mov    -0x18(%rbp),%rax
  80042027eb:	48 89 c1             	mov    %rax,%rcx
  80042027ee:	48 ba b0 c8 21 04 80 	movabs $0x800421c8b0,%rdx
  80042027f5:	00 00 00 
  80042027f8:	be 75 01 00 00       	mov    $0x175,%esi
  80042027fd:	48 bf b6 c7 21 04 80 	movabs $0x800421c7b6,%rdi
  8004202804:	00 00 00 
  8004202807:	b8 00 00 00 00       	mov    $0x0,%eax
  800420280c:	49 b8 c2 04 20 04 80 	movabs $0x80042004c2,%r8
  8004202813:	00 00 00 
  8004202816:	41 ff d0             	callq  *%r8
  8004202819:	48 b8 00 00 00 fc 7f 	movabs $0xffffff7ffc000000,%rax
  8004202820:	ff ff ff 
  8004202823:	48 89 c2             	mov    %rax,%rdx
  8004202826:	48 03 55 e8          	add    -0x18(%rbp),%rdx
  800420282a:	48 8b 45 f0          	mov    -0x10(%rbp),%rax
  800420282e:	48 8d b0 00 00 ff ff 	lea    -0x10000(%rax),%rsi
  8004202835:	48 b8 68 37 48 04 80 	movabs $0x8004483768,%rax
  800420283c:	00 00 00 
  800420283f:	48 8b 00             	mov    (%rax),%rax
  8004202842:	41 b8 03 00 00 00    	mov    $0x3,%r8d
  8004202848:	48 89 d1             	mov    %rdx,%rcx
  800420284b:	ba 00 00 01 00       	mov    $0x10000,%edx
  8004202850:	48 89 c7             	mov    %rax,%rdi
  8004202853:	48 b8 89 33 20 04 80 	movabs $0x8004203389,%rax
  800420285a:	00 00 00 
  800420285d:	ff d0                	callq  *%rax
	//             Known as a "guard page".
	//     Permissions: kernel RW, user NONE
	//
	// LAB 4: Your code here:
	size_t ncpus = 0;
	for (;ncpus < NCPU ; ncpus++) {
  800420285f:	48 83 45 f8 01       	addq   $0x1,-0x8(%rbp)
  8004202864:	48 83 7d f8 00       	cmpq   $0x0,-0x8(%rbp)
  8004202869:	0f 84 24 ff ff ff    	je     8004202793 <mem_init_mp+0x15>
		size_t kstacktop_ncpus = KSTACKTOP - ncpus * (KSTKSIZE+KSTKGAP);
		boot_map_region(boot_pml4e, kstacktop_ncpus-KSTKSIZE, KSTKSIZE, PADDR(percpu_kstacks[ncpus]), PTE_P|PTE_W);
	}

}
  800420286f:	c9                   	leaveq 
  8004202870:	c3                   	retq   

0000008004202871 <page_init>:
// allocator functions below to allocate and deallocate physical
// memory via the page_free_list.
//
void
page_init(void)
{
  8004202871:	55                   	push   %rbp
  8004202872:	48 89 e5             	mov    %rsp,%rbp
  8004202875:	53                   	push   %rbx
  8004202876:	48 83 ec 28          	sub    $0x28,%rsp
	// NB: Make sure you preserve the direction in which your page_free_list 
	// is constructed
	// NB: Remember to mark the memory used for initial boot page table i.e (va>=BOOT_PAGE_TABLE_START && va < BOOT_PAGE_TABLE_END) as in-use (not free)

    size_t i;
    struct PageInfo* last = NULL;
  800420287a:	48 c7 45 e0 00 00 00 	movq   $0x0,-0x20(%rbp)
  8004202881:	00 
    for (i = 0; i < npages; i++) {
  8004202882:	48 c7 45 e8 00 00 00 	movq   $0x0,-0x18(%rbp)
  8004202889:	00 
  800420288a:	e9 be 02 00 00       	jmpq   8004202b4d <page_init+0x2dc>
        pages[i].pp_ref = 0;
  800420288f:	48 b8 78 37 48 04 80 	movabs $0x8004483778,%rax
  8004202896:	00 00 00 
  8004202899:	48 8b 00             	mov    (%rax),%rax
  800420289c:	48 8b 55 e8          	mov    -0x18(%rbp),%rdx
  80042028a0:	48 c1 e2 04          	shl    $0x4,%rdx
  80042028a4:	48 01 d0             	add    %rdx,%rax
  80042028a7:	66 c7 40 08 00 00    	movw   $0x0,0x8(%rax)
        pages[i].pp_link = NULL;
  80042028ad:	48 b8 78 37 48 04 80 	movabs $0x8004483778,%rax
  80042028b4:	00 00 00 
  80042028b7:	48 8b 00             	mov    (%rax),%rax
  80042028ba:	48 8b 55 e8          	mov    -0x18(%rbp),%rdx
  80042028be:	48 c1 e2 04          	shl    $0x4,%rdx
  80042028c2:	48 01 d0             	add    %rdx,%rax
  80042028c5:	48 c7 00 00 00 00 00 	movq   $0x0,(%rax)
        //For the first page.
        if (i > 1 && last)
  80042028cc:	48 83 7d e8 01       	cmpq   $0x1,-0x18(%rbp)
  80042028d1:	76 28                	jbe    80042028fb <page_init+0x8a>
  80042028d3:	48 83 7d e0 00       	cmpq   $0x0,-0x20(%rbp)
  80042028d8:	74 21                	je     80042028fb <page_init+0x8a>
            last->pp_link = &pages[i];
  80042028da:	48 b8 78 37 48 04 80 	movabs $0x8004483778,%rax
  80042028e1:	00 00 00 
  80042028e4:	48 8b 00             	mov    (%rax),%rax
  80042028e7:	48 8b 55 e8          	mov    -0x18(%rbp),%rdx
  80042028eb:	48 c1 e2 04          	shl    $0x4,%rdx
  80042028ef:	48 01 c2             	add    %rax,%rdx
  80042028f2:	48 8b 45 e0          	mov    -0x20(%rbp),%rax
  80042028f6:	48 89 10             	mov    %rdx,(%rax)
  80042028f9:	eb 25                	jmp    8004202920 <page_init+0xaf>
        else
            page_free_list = &pages[i];
  80042028fb:	48 b8 78 37 48 04 80 	movabs $0x8004483778,%rax
  8004202902:	00 00 00 
  8004202905:	48 8b 00             	mov    (%rax),%rax
  8004202908:	48 8b 55 e8          	mov    -0x18(%rbp),%rdx
  800420290c:	48 c1 e2 04          	shl    $0x4,%rdx
  8004202910:	48 01 c2             	add    %rax,%rdx
  8004202913:	48 b8 38 22 48 04 80 	movabs $0x8004482238,%rax
  800420291a:	00 00 00 
  800420291d:	48 89 10             	mov    %rdx,(%rax)

        //For the IO hole.
        if (page2pa(&pages[i]) >= PADDR(KERNBASE+IOPHYSMEM) && page2pa(&pages[i]) <= PADDR(boot_alloc(0))) {
  8004202920:	48 b8 78 37 48 04 80 	movabs $0x8004483778,%rax
  8004202927:	00 00 00 
  800420292a:	48 8b 00             	mov    (%rax),%rax
  800420292d:	48 8b 55 e8          	mov    -0x18(%rbp),%rdx
  8004202931:	48 c1 e2 04          	shl    $0x4,%rdx
  8004202935:	48 01 d0             	add    %rdx,%rax
  8004202938:	48 89 c7             	mov    %rax,%rdi
  800420293b:	48 b8 ec 17 20 04 80 	movabs $0x80042017ec,%rax
  8004202942:	00 00 00 
  8004202945:	ff d0                	callq  *%rax
  8004202947:	c7 45 d8 00 00 0a 04 	movl   $0x40a0000,-0x28(%rbp)
  800420294e:	c7 45 dc 80 00 00 00 	movl   $0x80,-0x24(%rbp)
  8004202955:	48 ba ff ff ff 03 80 	movabs $0x8003ffffff,%rdx
  800420295c:	00 00 00 
  800420295f:	48 39 55 d8          	cmp    %rdx,-0x28(%rbp)
  8004202963:	77 32                	ja     8004202997 <page_init+0x126>
  8004202965:	48 8b 45 d8          	mov    -0x28(%rbp),%rax
  8004202969:	48 89 c1             	mov    %rax,%rcx
  800420296c:	48 ba b0 c8 21 04 80 	movabs $0x800421c8b0,%rdx
  8004202973:	00 00 00 
  8004202976:	be ae 01 00 00       	mov    $0x1ae,%esi
  800420297b:	48 bf b6 c7 21 04 80 	movabs $0x800421c7b6,%rdi
  8004202982:	00 00 00 
  8004202985:	b8 00 00 00 00       	mov    $0x0,%eax
  800420298a:	49 b8 c2 04 20 04 80 	movabs $0x80042004c2,%r8
  8004202991:	00 00 00 
  8004202994:	41 ff d0             	callq  *%r8
  8004202997:	48 ba 00 00 00 fc 7f 	movabs $0xffffff7ffc000000,%rdx
  800420299e:	ff ff ff 
  80042029a1:	48 03 55 d8          	add    -0x28(%rbp),%rdx
  80042029a5:	48 39 d0             	cmp    %rdx,%rax
  80042029a8:	0f 82 f3 00 00 00    	jb     8004202aa1 <page_init+0x230>
  80042029ae:	48 b8 78 37 48 04 80 	movabs $0x8004483778,%rax
  80042029b5:	00 00 00 
  80042029b8:	48 8b 00             	mov    (%rax),%rax
  80042029bb:	48 8b 55 e8          	mov    -0x18(%rbp),%rdx
  80042029bf:	48 c1 e2 04          	shl    $0x4,%rdx
  80042029c3:	48 01 d0             	add    %rdx,%rax
  80042029c6:	48 89 c7             	mov    %rax,%rdi
  80042029c9:	48 b8 ec 17 20 04 80 	movabs $0x80042017ec,%rax
  80042029d0:	00 00 00 
  80042029d3:	ff d0                	callq  *%rax
  80042029d5:	48 89 c3             	mov    %rax,%rbx
  80042029d8:	bf 00 00 00 00       	mov    $0x0,%edi
  80042029dd:	48 b8 c6 21 20 04 80 	movabs $0x80042021c6,%rax
  80042029e4:	00 00 00 
  80042029e7:	ff d0                	callq  *%rax
  80042029e9:	48 89 45 d0          	mov    %rax,-0x30(%rbp)
  80042029ed:	48 b8 ff ff ff 03 80 	movabs $0x8003ffffff,%rax
  80042029f4:	00 00 00 
  80042029f7:	48 39 45 d0          	cmp    %rax,-0x30(%rbp)
  80042029fb:	77 32                	ja     8004202a2f <page_init+0x1be>
  80042029fd:	48 8b 45 d0          	mov    -0x30(%rbp),%rax
  8004202a01:	48 89 c1             	mov    %rax,%rcx
  8004202a04:	48 ba b0 c8 21 04 80 	movabs $0x800421c8b0,%rdx
  8004202a0b:	00 00 00 
  8004202a0e:	be ae 01 00 00       	mov    $0x1ae,%esi
  8004202a13:	48 bf b6 c7 21 04 80 	movabs $0x800421c7b6,%rdi
  8004202a1a:	00 00 00 
  8004202a1d:	b8 00 00 00 00       	mov    $0x0,%eax
  8004202a22:	49 b8 c2 04 20 04 80 	movabs $0x80042004c2,%r8
  8004202a29:	00 00 00 
  8004202a2c:	41 ff d0             	callq  *%r8
  8004202a2f:	48 b8 00 00 00 fc 7f 	movabs $0xffffff7ffc000000,%rax
  8004202a36:	ff ff ff 
  8004202a39:	48 03 45 d0          	add    -0x30(%rbp),%rax
  8004202a3d:	48 39 c3             	cmp    %rax,%rbx
  8004202a40:	77 5f                	ja     8004202aa1 <page_init+0x230>
            pages[i].pp_link = NULL;
  8004202a42:	48 b8 78 37 48 04 80 	movabs $0x8004483778,%rax
  8004202a49:	00 00 00 
  8004202a4c:	48 8b 00             	mov    (%rax),%rax
  8004202a4f:	48 8b 55 e8          	mov    -0x18(%rbp),%rdx
  8004202a53:	48 c1 e2 04          	shl    $0x4,%rdx
  8004202a57:	48 01 d0             	add    %rdx,%rax
  8004202a5a:	48 c7 00 00 00 00 00 	movq   $0x0,(%rax)
            pages[i].pp_ref += 1;
  8004202a61:	48 b8 78 37 48 04 80 	movabs $0x8004483778,%rax
  8004202a68:	00 00 00 
  8004202a6b:	48 8b 00             	mov    (%rax),%rax
  8004202a6e:	48 8b 55 e8          	mov    -0x18(%rbp),%rdx
  8004202a72:	48 c1 e2 04          	shl    $0x4,%rdx
  8004202a76:	48 01 c2             	add    %rax,%rdx
  8004202a79:	48 b8 78 37 48 04 80 	movabs $0x8004483778,%rax
  8004202a80:	00 00 00 
  8004202a83:	48 8b 00             	mov    (%rax),%rax
  8004202a86:	48 8b 4d e8          	mov    -0x18(%rbp),%rcx
  8004202a8a:	48 c1 e1 04          	shl    $0x4,%rcx
  8004202a8e:	48 01 c8             	add    %rcx,%rax
  8004202a91:	0f b7 40 08          	movzwl 0x8(%rax),%eax
  8004202a95:	83 c0 01             	add    $0x1,%eax
  8004202a98:	66 89 42 08          	mov    %ax,0x8(%rdx)
  8004202a9c:	e9 a7 00 00 00       	jmpq   8004202b48 <page_init+0x2d7>
        }
	
		else if(page2pa(&pages[i]) == MPENTRY_PADDR) {
  8004202aa1:	48 b8 78 37 48 04 80 	movabs $0x8004483778,%rax
  8004202aa8:	00 00 00 
  8004202aab:	48 8b 00             	mov    (%rax),%rax
  8004202aae:	48 8b 55 e8          	mov    -0x18(%rbp),%rdx
  8004202ab2:	48 c1 e2 04          	shl    $0x4,%rdx
  8004202ab6:	48 01 d0             	add    %rdx,%rax
  8004202ab9:	48 89 c7             	mov    %rax,%rdi
  8004202abc:	48 b8 ec 17 20 04 80 	movabs $0x80042017ec,%rax
  8004202ac3:	00 00 00 
  8004202ac6:	ff d0                	callq  *%rax
  8004202ac8:	48 3d 00 70 00 00    	cmp    $0x7000,%rax
  8004202ace:	75 5c                	jne    8004202b2c <page_init+0x2bb>
			pages[i].pp_link = NULL;
  8004202ad0:	48 b8 78 37 48 04 80 	movabs $0x8004483778,%rax
  8004202ad7:	00 00 00 
  8004202ada:	48 8b 00             	mov    (%rax),%rax
  8004202add:	48 8b 55 e8          	mov    -0x18(%rbp),%rdx
  8004202ae1:	48 c1 e2 04          	shl    $0x4,%rdx
  8004202ae5:	48 01 d0             	add    %rdx,%rax
  8004202ae8:	48 c7 00 00 00 00 00 	movq   $0x0,(%rax)
			pages[i].pp_ref += 1;
  8004202aef:	48 b8 78 37 48 04 80 	movabs $0x8004483778,%rax
  8004202af6:	00 00 00 
  8004202af9:	48 8b 00             	mov    (%rax),%rax
  8004202afc:	48 8b 55 e8          	mov    -0x18(%rbp),%rdx
  8004202b00:	48 c1 e2 04          	shl    $0x4,%rdx
  8004202b04:	48 01 c2             	add    %rax,%rdx
  8004202b07:	48 b8 78 37 48 04 80 	movabs $0x8004483778,%rax
  8004202b0e:	00 00 00 
  8004202b11:	48 8b 00             	mov    (%rax),%rax
  8004202b14:	48 8b 4d e8          	mov    -0x18(%rbp),%rcx
  8004202b18:	48 c1 e1 04          	shl    $0x4,%rcx
  8004202b1c:	48 01 c8             	add    %rcx,%rax
  8004202b1f:	0f b7 40 08          	movzwl 0x8(%rax),%eax
  8004202b23:	83 c0 01             	add    $0x1,%eax
  8004202b26:	66 89 42 08          	mov    %ax,0x8(%rdx)
  8004202b2a:	eb 1c                	jmp    8004202b48 <page_init+0x2d7>
		}
        //Keep hold of the link in free page list
        else
            last = &pages[i];
  8004202b2c:	48 b8 78 37 48 04 80 	movabs $0x8004483778,%rax
  8004202b33:	00 00 00 
  8004202b36:	48 8b 00             	mov    (%rax),%rax
  8004202b39:	48 8b 55 e8          	mov    -0x18(%rbp),%rdx
  8004202b3d:	48 c1 e2 04          	shl    $0x4,%rdx
  8004202b41:	48 01 d0             	add    %rdx,%rax
  8004202b44:	48 89 45 e0          	mov    %rax,-0x20(%rbp)
	// is constructed
	// NB: Remember to mark the memory used for initial boot page table i.e (va>=BOOT_PAGE_TABLE_START && va < BOOT_PAGE_TABLE_END) as in-use (not free)

    size_t i;
    struct PageInfo* last = NULL;
    for (i = 0; i < npages; i++) {
  8004202b48:	48 83 45 e8 01       	addq   $0x1,-0x18(%rbp)
  8004202b4d:	48 b8 70 37 48 04 80 	movabs $0x8004483770,%rax
  8004202b54:	00 00 00 
  8004202b57:	48 8b 00             	mov    (%rax),%rax
  8004202b5a:	48 39 45 e8          	cmp    %rax,-0x18(%rbp)
  8004202b5e:	0f 82 2b fd ff ff    	jb     800420288f <page_init+0x1e>
		}
        //Keep hold of the link in free page list
        else
            last = &pages[i];
    }
}
  8004202b64:	48 83 c4 28          	add    $0x28,%rsp
  8004202b68:	5b                   	pop    %rbx
  8004202b69:	5d                   	pop    %rbp
  8004202b6a:	c3                   	retq   

0000008004202b6b <page_alloc>:
// Returns NULL if out of free memory.
//
// Hint: use page2kva and memset
struct PageInfo *
page_alloc(int alloc_flags)
{
  8004202b6b:	55                   	push   %rbp
  8004202b6c:	48 89 e5             	mov    %rsp,%rbp
  8004202b6f:	48 83 ec 20          	sub    $0x20,%rsp
  8004202b73:	89 7d ec             	mov    %edi,-0x14(%rbp)
	// Fill this function in
	struct PageInfo* phypage = page_free_list;
  8004202b76:	48 b8 38 22 48 04 80 	movabs $0x8004482238,%rax
  8004202b7d:	00 00 00 
  8004202b80:	48 8b 00             	mov    (%rax),%rax
  8004202b83:	48 89 45 f8          	mov    %rax,-0x8(%rbp)
    if (phypage) {
  8004202b87:	48 83 7d f8 00       	cmpq   $0x0,-0x8(%rbp)
  8004202b8c:	0f 84 ad 00 00 00    	je     8004202c3f <page_alloc+0xd4>
        if(phypage->pp_link == phypage)
  8004202b92:	48 8b 45 f8          	mov    -0x8(%rbp),%rax
  8004202b96:	48 8b 00             	mov    (%rax),%rax
  8004202b99:	48 3b 45 f8          	cmp    -0x8(%rbp),%rax
  8004202b9d:	75 13                	jne    8004202bb2 <page_alloc+0x47>
            page_free_list = NULL;
  8004202b9f:	48 b8 38 22 48 04 80 	movabs $0x8004482238,%rax
  8004202ba6:	00 00 00 
  8004202ba9:	48 c7 00 00 00 00 00 	movq   $0x0,(%rax)
  8004202bb0:	eb 14                	jmp    8004202bc6 <page_alloc+0x5b>
        else
            page_free_list = phypage->pp_link;
  8004202bb2:	48 8b 45 f8          	mov    -0x8(%rbp),%rax
  8004202bb6:	48 8b 10             	mov    (%rax),%rdx
  8004202bb9:	48 b8 38 22 48 04 80 	movabs $0x8004482238,%rax
  8004202bc0:	00 00 00 
  8004202bc3:	48 89 10             	mov    %rdx,(%rax)
        phypage->pp_link = NULL;
  8004202bc6:	48 8b 45 f8          	mov    -0x8(%rbp),%rax
  8004202bca:	48 c7 00 00 00 00 00 	movq   $0x0,(%rax)
        if(alloc_flags & ALLOC_ZERO)
  8004202bd1:	8b 45 ec             	mov    -0x14(%rbp),%eax
  8004202bd4:	83 e0 01             	and    $0x1,%eax
  8004202bd7:	84 c0                	test   %al,%al
  8004202bd9:	74 2c                	je     8004202c07 <page_alloc+0x9c>
            memset(page2kva(phypage),'\0',PGSIZE);
  8004202bdb:	48 8b 45 f8          	mov    -0x8(%rbp),%rax
  8004202bdf:	48 89 c7             	mov    %rax,%rdi
  8004202be2:	48 b8 82 18 20 04 80 	movabs $0x8004201882,%rax
  8004202be9:	00 00 00 
  8004202bec:	ff d0                	callq  *%rax
  8004202bee:	ba 00 10 00 00       	mov    $0x1000,%edx
  8004202bf3:	be 00 00 00 00       	mov    $0x0,%esi
  8004202bf8:	48 89 c7             	mov    %rax,%rdi
  8004202bfb:	48 b8 47 03 21 04 80 	movabs $0x8004210347,%rax
  8004202c02:	00 00 00 
  8004202c05:	ff d0                	callq  *%rax
        if(alloc_flags == 0)
  8004202c07:	83 7d ec 00          	cmpl   $0x0,-0x14(%rbp)
  8004202c0b:	75 2c                	jne    8004202c39 <page_alloc+0xce>
            memset(page2kva(phypage),0,PGSIZE);
  8004202c0d:	48 8b 45 f8          	mov    -0x8(%rbp),%rax
  8004202c11:	48 89 c7             	mov    %rax,%rdi
  8004202c14:	48 b8 82 18 20 04 80 	movabs $0x8004201882,%rax
  8004202c1b:	00 00 00 
  8004202c1e:	ff d0                	callq  *%rax
  8004202c20:	ba 00 10 00 00       	mov    $0x1000,%edx
  8004202c25:	be 00 00 00 00       	mov    $0x0,%esi
  8004202c2a:	48 89 c7             	mov    %rax,%rdi
  8004202c2d:	48 b8 47 03 21 04 80 	movabs $0x8004210347,%rax
  8004202c34:	00 00 00 
  8004202c37:	ff d0                	callq  *%rax
        return phypage;
  8004202c39:	48 8b 45 f8          	mov    -0x8(%rbp),%rax
  8004202c3d:	eb 05                	jmp    8004202c44 <page_alloc+0xd9>
    }
    return NULL;
  8004202c3f:	b8 00 00 00 00       	mov    $0x0,%eax
}
  8004202c44:	c9                   	leaveq 
  8004202c45:	c3                   	retq   

0000008004202c46 <page_initpp>:
// The result has null links and 0 refcount.
// Note that the corresponding physical page is NOT initialized!
//
static void
page_initpp(struct PageInfo *pp)
{
  8004202c46:	55                   	push   %rbp
  8004202c47:	48 89 e5             	mov    %rsp,%rbp
  8004202c4a:	48 83 ec 10          	sub    $0x10,%rsp
  8004202c4e:	48 89 7d f8          	mov    %rdi,-0x8(%rbp)
	memset(pp, 0, sizeof(*pp));
  8004202c52:	48 8b 45 f8          	mov    -0x8(%rbp),%rax
  8004202c56:	ba 10 00 00 00       	mov    $0x10,%edx
  8004202c5b:	be 00 00 00 00       	mov    $0x0,%esi
  8004202c60:	48 89 c7             	mov    %rax,%rdi
  8004202c63:	48 b8 47 03 21 04 80 	movabs $0x8004210347,%rax
  8004202c6a:	00 00 00 
  8004202c6d:	ff d0                	callq  *%rax
}
  8004202c6f:	c9                   	leaveq 
  8004202c70:	c3                   	retq   

0000008004202c71 <page_free>:
// Return a page to the free list.
// (This function should only be called when pp->pp_ref reaches 0.)
//
void
page_free(struct PageInfo *pp)
{
  8004202c71:	55                   	push   %rbp
  8004202c72:	48 89 e5             	mov    %rsp,%rbp
  8004202c75:	48 83 ec 20          	sub    $0x20,%rsp
  8004202c79:	48 89 7d e8          	mov    %rdi,-0x18(%rbp)
	// Fill this function in
	// Hint: You may want to panic if pp->pp_ref is nonzero or
	// pp->pp_link is not NULL.
	if(pp) {
  8004202c7d:	48 83 7d e8 00       	cmpq   $0x0,-0x18(%rbp)
  8004202c82:	0f 84 9e 00 00 00    	je     8004202d26 <page_free+0xb5>
        if (pp->pp_link || pp->pp_ref)
  8004202c88:	48 8b 45 e8          	mov    -0x18(%rbp),%rax
  8004202c8c:	48 8b 00             	mov    (%rax),%rax
  8004202c8f:	48 85 c0             	test   %rax,%rax
  8004202c92:	75 0d                	jne    8004202ca1 <page_free+0x30>
  8004202c94:	48 8b 45 e8          	mov    -0x18(%rbp),%rax
  8004202c98:	0f b7 40 08          	movzwl 0x8(%rax),%eax
  8004202c9c:	66 85 c0             	test   %ax,%ax
  8004202c9f:	74 2a                	je     8004202ccb <page_free+0x5a>
           	panic("Not able to free page either being used by something else or is already free");
  8004202ca1:	48 ba d8 c8 21 04 80 	movabs $0x800421c8d8,%rdx
  8004202ca8:	00 00 00 
  8004202cab:	be f3 01 00 00       	mov    $0x1f3,%esi
  8004202cb0:	48 bf b6 c7 21 04 80 	movabs $0x800421c7b6,%rdi
  8004202cb7:	00 00 00 
  8004202cba:	b8 00 00 00 00       	mov    $0x0,%eax
  8004202cbf:	48 b9 c2 04 20 04 80 	movabs $0x80042004c2,%rcx
  8004202cc6:	00 00 00 
  8004202cc9:	ff d1                	callq  *%rcx
        struct PageInfo* last = page_free_list;
  8004202ccb:	48 b8 38 22 48 04 80 	movabs $0x8004482238,%rax
  8004202cd2:	00 00 00 
  8004202cd5:	48 8b 00             	mov    (%rax),%rax
  8004202cd8:	48 89 45 f8          	mov    %rax,-0x8(%rbp)
        if(last) {
  8004202cdc:	48 83 7d f8 00       	cmpq   $0x0,-0x8(%rbp)
  8004202ce1:	74 27                	je     8004202d0a <page_free+0x99>
            pp->pp_link = page_free_list;
  8004202ce3:	48 b8 38 22 48 04 80 	movabs $0x8004482238,%rax
  8004202cea:	00 00 00 
  8004202ced:	48 8b 10             	mov    (%rax),%rdx
  8004202cf0:	48 8b 45 e8          	mov    -0x18(%rbp),%rax
  8004202cf4:	48 89 10             	mov    %rdx,(%rax)
            page_free_list = pp;
  8004202cf7:	48 b8 38 22 48 04 80 	movabs $0x8004482238,%rax
  8004202cfe:	00 00 00 
  8004202d01:	48 8b 55 e8          	mov    -0x18(%rbp),%rdx
  8004202d05:	48 89 10             	mov    %rdx,(%rax)
  8004202d08:	eb 1c                	jmp    8004202d26 <page_free+0xb5>
        }
        else {
            page_free_list = pp;
  8004202d0a:	48 b8 38 22 48 04 80 	movabs $0x8004482238,%rax
  8004202d11:	00 00 00 
  8004202d14:	48 8b 55 e8          	mov    -0x18(%rbp),%rdx
  8004202d18:	48 89 10             	mov    %rdx,(%rax)
            pp->pp_link = pp;
  8004202d1b:	48 8b 45 e8          	mov    -0x18(%rbp),%rax
  8004202d1f:	48 8b 55 e8          	mov    -0x18(%rbp),%rdx
  8004202d23:	48 89 10             	mov    %rdx,(%rax)
        }
    }
}
  8004202d26:	c9                   	leaveq 
  8004202d27:	c3                   	retq   

0000008004202d28 <page_decref>:
// Decrement the reference count on a page,
// freeing it if there are no more refs.
//
void
page_decref(struct PageInfo* pp)
{
  8004202d28:	55                   	push   %rbp
  8004202d29:	48 89 e5             	mov    %rsp,%rbp
  8004202d2c:	48 83 ec 10          	sub    $0x10,%rsp
  8004202d30:	48 89 7d f8          	mov    %rdi,-0x8(%rbp)
	if (--pp->pp_ref == 0)
  8004202d34:	48 8b 45 f8          	mov    -0x8(%rbp),%rax
  8004202d38:	0f b7 40 08          	movzwl 0x8(%rax),%eax
  8004202d3c:	8d 50 ff             	lea    -0x1(%rax),%edx
  8004202d3f:	48 8b 45 f8          	mov    -0x8(%rbp),%rax
  8004202d43:	66 89 50 08          	mov    %dx,0x8(%rax)
  8004202d47:	48 8b 45 f8          	mov    -0x8(%rbp),%rax
  8004202d4b:	0f b7 40 08          	movzwl 0x8(%rax),%eax
  8004202d4f:	66 85 c0             	test   %ax,%ax
  8004202d52:	75 13                	jne    8004202d67 <page_decref+0x3f>
		page_free(pp);
  8004202d54:	48 8b 45 f8          	mov    -0x8(%rbp),%rax
  8004202d58:	48 89 c7             	mov    %rax,%rdi
  8004202d5b:	48 b8 71 2c 20 04 80 	movabs $0x8004202c71,%rax
  8004202d62:	00 00 00 
  8004202d65:	ff d0                	callq  *%rax
}
  8004202d67:	c9                   	leaveq 
  8004202d68:	c3                   	retq   

0000008004202d69 <pml4e_walk>:
// Hint 3: look at inc/mmu.h for useful macros that mainipulate page
// table, page directory,page directory pointer and pml4 entries.
//

pte_t *
pml4e_walk(pml4e_t *pml4e, const void *va, int create) {
  8004202d69:	55                   	push   %rbp
  8004202d6a:	48 89 e5             	mov    %rsp,%rbp
  8004202d6d:	48 83 ec 60          	sub    $0x60,%rsp
  8004202d71:	48 89 7d b8          	mov    %rdi,-0x48(%rbp)
  8004202d75:	48 89 75 b0          	mov    %rsi,-0x50(%rbp)
  8004202d79:	89 55 ac             	mov    %edx,-0x54(%rbp)

	if (pml4e) {
  8004202d7c:	48 83 7d b8 00       	cmpq   $0x0,-0x48(%rbp)
  8004202d81:	0f 84 21 02 00 00    	je     8004202fa8 <pml4e_walk+0x23f>
        pml4e_t* level4 = &pml4e[PML4(va)] ;
  8004202d87:	48 8b 45 b0          	mov    -0x50(%rbp),%rax
  8004202d8b:	48 c1 e8 27          	shr    $0x27,%rax
  8004202d8f:	25 ff 01 00 00       	and    $0x1ff,%eax
  8004202d94:	48 c1 e0 03          	shl    $0x3,%rax
  8004202d98:	48 03 45 b8          	add    -0x48(%rbp),%rax
  8004202d9c:	48 89 45 f8          	mov    %rax,-0x8(%rbp)
        pdpe_t* level3 = NULL;
  8004202da0:	48 c7 45 f0 00 00 00 	movq   $0x0,-0x10(%rbp)
  8004202da7:	00 
		if (*level4 == 0) {
  8004202da8:	48 8b 45 f8          	mov    -0x8(%rbp),%rax
  8004202dac:	48 8b 00             	mov    (%rax),%rax
  8004202daf:	48 85 c0             	test   %rax,%rax
  8004202db2:	0f 85 54 01 00 00    	jne    8004202f0c <pml4e_walk+0x1a3>
            if (create) {
  8004202db8:	83 7d ac 00          	cmpl   $0x0,-0x54(%rbp)
  8004202dbc:	0f 84 40 01 00 00    	je     8004202f02 <pml4e_walk+0x199>
                struct PageInfo* pp = page_alloc(0);
  8004202dc2:	bf 00 00 00 00       	mov    $0x0,%edi
  8004202dc7:	48 b8 6b 2b 20 04 80 	movabs $0x8004202b6b,%rax
  8004202dce:	00 00 00 
  8004202dd1:	ff d0                	callq  *%rax
  8004202dd3:	48 89 45 e8          	mov    %rax,-0x18(%rbp)
                if (!pp)
  8004202dd7:	48 83 7d e8 00       	cmpq   $0x0,-0x18(%rbp)
  8004202ddc:	75 0a                	jne    8004202de8 <pml4e_walk+0x7f>
                    return NULL;
  8004202dde:	b8 00 00 00 00       	mov    $0x0,%eax
  8004202de3:	e9 ea 01 00 00       	jmpq   8004202fd2 <pml4e_walk+0x269>
                pp->pp_ref++;
  8004202de8:	48 8b 45 e8          	mov    -0x18(%rbp),%rax
  8004202dec:	0f b7 40 08          	movzwl 0x8(%rax),%eax
  8004202df0:	8d 50 01             	lea    0x1(%rax),%edx
  8004202df3:	48 8b 45 e8          	mov    -0x18(%rbp),%rax
  8004202df7:	66 89 50 08          	mov    %dx,0x8(%rax)
                level3 = (pdpe_t*)page2kva(pp);
  8004202dfb:	48 8b 45 e8          	mov    -0x18(%rbp),%rax
  8004202dff:	48 89 c7             	mov    %rax,%rdi
  8004202e02:	48 b8 82 18 20 04 80 	movabs $0x8004201882,%rax
  8004202e09:	00 00 00 
  8004202e0c:	ff d0                	callq  *%rax
  8004202e0e:	48 89 45 f0          	mov    %rax,-0x10(%rbp)
                *level4 = (pml4e_t)PADDR(level3);
  8004202e12:	48 8b 45 f0          	mov    -0x10(%rbp),%rax
  8004202e16:	48 89 45 e0          	mov    %rax,-0x20(%rbp)
  8004202e1a:	48 b8 ff ff ff 03 80 	movabs $0x8003ffffff,%rax
  8004202e21:	00 00 00 
  8004202e24:	48 39 45 e0          	cmp    %rax,-0x20(%rbp)
  8004202e28:	77 32                	ja     8004202e5c <pml4e_walk+0xf3>
  8004202e2a:	48 8b 45 e0          	mov    -0x20(%rbp),%rax
  8004202e2e:	48 89 c1             	mov    %rax,%rcx
  8004202e31:	48 ba b0 c8 21 04 80 	movabs $0x800421c8b0,%rdx
  8004202e38:	00 00 00 
  8004202e3b:	be 31 02 00 00       	mov    $0x231,%esi
  8004202e40:	48 bf b6 c7 21 04 80 	movabs $0x800421c7b6,%rdi
  8004202e47:	00 00 00 
  8004202e4a:	b8 00 00 00 00       	mov    $0x0,%eax
  8004202e4f:	49 b8 c2 04 20 04 80 	movabs $0x80042004c2,%r8
  8004202e56:	00 00 00 
  8004202e59:	41 ff d0             	callq  *%r8
  8004202e5c:	48 b8 00 00 00 fc 7f 	movabs $0xffffff7ffc000000,%rax
  8004202e63:	ff ff ff 
  8004202e66:	48 89 c2             	mov    %rax,%rdx
  8004202e69:	48 03 55 e0          	add    -0x20(%rbp),%rdx
  8004202e6d:	48 8b 45 f8          	mov    -0x8(%rbp),%rax
  8004202e71:	48 89 10             	mov    %rdx,(%rax)
                *level4 |= PTE_USER;
  8004202e74:	48 8b 45 f8          	mov    -0x8(%rbp),%rax
  8004202e78:	48 8b 00             	mov    (%rax),%rax
  8004202e7b:	48 89 c2             	mov    %rax,%rdx
  8004202e7e:	48 81 ca 07 0e 00 00 	or     $0xe07,%rdx
  8004202e85:	48 8b 45 f8          	mov    -0x8(%rbp),%rax
  8004202e89:	48 89 10             	mov    %rdx,(%rax)
                memset(level3, 0, PGSIZE);
  8004202e8c:	48 8b 45 f0          	mov    -0x10(%rbp),%rax
  8004202e90:	ba 00 10 00 00       	mov    $0x1000,%edx
  8004202e95:	be 00 00 00 00       	mov    $0x0,%esi
  8004202e9a:	48 89 c7             	mov    %rax,%rdi
  8004202e9d:	48 b8 47 03 21 04 80 	movabs $0x8004210347,%rax
  8004202ea4:	00 00 00 
  8004202ea7:	ff d0                	callq  *%rax
				pte_t *level1 = pdpe_walk(level3, va, create);
  8004202ea9:	8b 55 ac             	mov    -0x54(%rbp),%edx
  8004202eac:	48 8b 4d b0          	mov    -0x50(%rbp),%rcx
  8004202eb0:	48 8b 45 f0          	mov    -0x10(%rbp),%rax
  8004202eb4:	48 89 ce             	mov    %rcx,%rsi
  8004202eb7:	48 89 c7             	mov    %rax,%rdi
  8004202eba:	48 b8 d4 2f 20 04 80 	movabs $0x8004202fd4,%rax
  8004202ec1:	00 00 00 
  8004202ec4:	ff d0                	callq  *%rax
  8004202ec6:	48 89 45 d8          	mov    %rax,-0x28(%rbp)
                if (!level1) {
  8004202eca:	48 83 7d d8 00       	cmpq   $0x0,-0x28(%rbp)
  8004202ecf:	75 28                	jne    8004202ef9 <pml4e_walk+0x190>
                    page_decref(pp);
  8004202ed1:	48 8b 45 e8          	mov    -0x18(%rbp),%rax
  8004202ed5:	48 89 c7             	mov    %rax,%rdi
  8004202ed8:	48 b8 28 2d 20 04 80 	movabs $0x8004202d28,%rax
  8004202edf:	00 00 00 
  8004202ee2:	ff d0                	callq  *%rax
                    *level4 = 0;
  8004202ee4:	48 8b 45 f8          	mov    -0x8(%rbp),%rax
  8004202ee8:	48 c7 00 00 00 00 00 	movq   $0x0,(%rax)
                    return NULL;
  8004202eef:	b8 00 00 00 00       	mov    $0x0,%eax
  8004202ef4:	e9 d9 00 00 00       	jmpq   8004202fd2 <pml4e_walk+0x269>
                }
                return level1;
  8004202ef9:	48 8b 45 d8          	mov    -0x28(%rbp),%rax
  8004202efd:	e9 d0 00 00 00       	jmpq   8004202fd2 <pml4e_walk+0x269>
            }
            else {
                return NULL;
  8004202f02:	b8 00 00 00 00       	mov    $0x0,%eax
  8004202f07:	e9 c6 00 00 00       	jmpq   8004202fd2 <pml4e_walk+0x269>
            }
        }
        else {
            level3 = (pdpe_t*)KADDR(PTE_ADDR(*level4));
  8004202f0c:	48 8b 45 f8          	mov    -0x8(%rbp),%rax
  8004202f10:	48 8b 00             	mov    (%rax),%rax
  8004202f13:	48 25 00 f0 ff ff    	and    $0xfffffffffffff000,%rax
  8004202f19:	48 89 45 d0          	mov    %rax,-0x30(%rbp)
  8004202f1d:	48 8b 45 d0          	mov    -0x30(%rbp),%rax
  8004202f21:	48 c1 e8 0c          	shr    $0xc,%rax
  8004202f25:	89 45 cc             	mov    %eax,-0x34(%rbp)
  8004202f28:	8b 55 cc             	mov    -0x34(%rbp),%edx
  8004202f2b:	48 b8 70 37 48 04 80 	movabs $0x8004483770,%rax
  8004202f32:	00 00 00 
  8004202f35:	48 8b 00             	mov    (%rax),%rax
  8004202f38:	48 39 c2             	cmp    %rax,%rdx
  8004202f3b:	72 32                	jb     8004202f6f <pml4e_walk+0x206>
  8004202f3d:	48 8b 45 d0          	mov    -0x30(%rbp),%rax
  8004202f41:	48 89 c1             	mov    %rax,%rcx
  8004202f44:	48 ba 28 c7 21 04 80 	movabs $0x800421c728,%rdx
  8004202f4b:	00 00 00 
  8004202f4e:	be 41 02 00 00       	mov    $0x241,%esi
  8004202f53:	48 bf b6 c7 21 04 80 	movabs $0x800421c7b6,%rdi
  8004202f5a:	00 00 00 
  8004202f5d:	b8 00 00 00 00       	mov    $0x0,%eax
  8004202f62:	49 b8 c2 04 20 04 80 	movabs $0x80042004c2,%r8
  8004202f69:	00 00 00 
  8004202f6c:	41 ff d0             	callq  *%r8
  8004202f6f:	48 b8 00 00 00 04 80 	movabs $0x8004000000,%rax
  8004202f76:	00 00 00 
  8004202f79:	48 03 45 d0          	add    -0x30(%rbp),%rax
  8004202f7d:	48 89 45 f0          	mov    %rax,-0x10(%rbp)
            pte_t *level1 = pdpe_walk(level3, va, create);
  8004202f81:	8b 55 ac             	mov    -0x54(%rbp),%edx
  8004202f84:	48 8b 4d b0          	mov    -0x50(%rbp),%rcx
  8004202f88:	48 8b 45 f0          	mov    -0x10(%rbp),%rax
  8004202f8c:	48 89 ce             	mov    %rcx,%rsi
  8004202f8f:	48 89 c7             	mov    %rax,%rdi
  8004202f92:	48 b8 d4 2f 20 04 80 	movabs $0x8004202fd4,%rax
  8004202f99:	00 00 00 
  8004202f9c:	ff d0                	callq  *%rax
  8004202f9e:	48 89 45 c0          	mov    %rax,-0x40(%rbp)
            return level1;
  8004202fa2:	48 8b 45 c0          	mov    -0x40(%rbp),%rax
  8004202fa6:	eb 2a                	jmp    8004202fd2 <pml4e_walk+0x269>
        }
    }
    else
		panic("'page_free_list' is a null pointer!");
  8004202fa8:	48 ba 28 c9 21 04 80 	movabs $0x800421c928,%rdx
  8004202faf:	00 00 00 
  8004202fb2:	be 47 02 00 00       	mov    $0x247,%esi
  8004202fb7:	48 bf b6 c7 21 04 80 	movabs $0x800421c7b6,%rdi
  8004202fbe:	00 00 00 
  8004202fc1:	b8 00 00 00 00       	mov    $0x0,%eax
  8004202fc6:	48 b9 c2 04 20 04 80 	movabs $0x80042004c2,%rcx
  8004202fcd:	00 00 00 
  8004202fd0:	ff d1                	callq  *%rcx
}
  8004202fd2:	c9                   	leaveq 
  8004202fd3:	c3                   	retq   

0000008004202fd4 <pdpe_walk>:
// Given a pdpe i.e page directory pointer pdpe_walk returns the pointer to page table entry
// The programming logic in this function is similar to pml4e_walk.
// It calls the pgdir_walk which returns the page_table entry pointer.
// Hints are the same as in pml4e_walk
pte_t *
pdpe_walk(pdpe_t *pdpe,const void *va,int create) {
  8004202fd4:	55                   	push   %rbp
  8004202fd5:	48 89 e5             	mov    %rsp,%rbp
  8004202fd8:	48 83 ec 60          	sub    $0x60,%rsp
  8004202fdc:	48 89 7d b8          	mov    %rdi,-0x48(%rbp)
  8004202fe0:	48 89 75 b0          	mov    %rsi,-0x50(%rbp)
  8004202fe4:	89 55 ac             	mov    %edx,-0x54(%rbp)
	
	pdpe_t* level3 = &pdpe[PDPE(va)];
  8004202fe7:	48 8b 45 b0          	mov    -0x50(%rbp),%rax
  8004202feb:	48 c1 e8 1e          	shr    $0x1e,%rax
  8004202fef:	25 ff 01 00 00       	and    $0x1ff,%eax
  8004202ff4:	48 c1 e0 03          	shl    $0x3,%rax
  8004202ff8:	48 03 45 b8          	add    -0x48(%rbp),%rax
  8004202ffc:	48 89 45 f8          	mov    %rax,-0x8(%rbp)
    pde_t* level2 = NULL;
  8004203000:	48 c7 45 f0 00 00 00 	movq   $0x0,-0x10(%rbp)
  8004203007:	00 
    if (*level3 == 0) {
  8004203008:	48 8b 45 f8          	mov    -0x8(%rbp),%rax
  800420300c:	48 8b 00             	mov    (%rax),%rax
  800420300f:	48 85 c0             	test   %rax,%rax
  8004203012:	0f 85 54 01 00 00    	jne    800420316c <pdpe_walk+0x198>
        if (create) {
  8004203018:	83 7d ac 00          	cmpl   $0x0,-0x54(%rbp)
  800420301c:	0f 84 40 01 00 00    	je     8004203162 <pdpe_walk+0x18e>
            struct PageInfo* pp = page_alloc(0);
  8004203022:	bf 00 00 00 00       	mov    $0x0,%edi
  8004203027:	48 b8 6b 2b 20 04 80 	movabs $0x8004202b6b,%rax
  800420302e:	00 00 00 
  8004203031:	ff d0                	callq  *%rax
  8004203033:	48 89 45 e8          	mov    %rax,-0x18(%rbp)
            if (!pp) 
  8004203037:	48 83 7d e8 00       	cmpq   $0x0,-0x18(%rbp)
  800420303c:	75 0a                	jne    8004203048 <pdpe_walk+0x74>
                return NULL;
  800420303e:	b8 00 00 00 00       	mov    $0x0,%eax
  8004203043:	e9 be 01 00 00       	jmpq   8004203206 <pdpe_walk+0x232>
            pp->pp_ref++;
  8004203048:	48 8b 45 e8          	mov    -0x18(%rbp),%rax
  800420304c:	0f b7 40 08          	movzwl 0x8(%rax),%eax
  8004203050:	8d 50 01             	lea    0x1(%rax),%edx
  8004203053:	48 8b 45 e8          	mov    -0x18(%rbp),%rax
  8004203057:	66 89 50 08          	mov    %dx,0x8(%rax)
            level2 = (pde_t*)page2kva(pp);
  800420305b:	48 8b 45 e8          	mov    -0x18(%rbp),%rax
  800420305f:	48 89 c7             	mov    %rax,%rdi
  8004203062:	48 b8 82 18 20 04 80 	movabs $0x8004201882,%rax
  8004203069:	00 00 00 
  800420306c:	ff d0                	callq  *%rax
  800420306e:	48 89 45 f0          	mov    %rax,-0x10(%rbp)
            *level3 = (pdpe_t)PADDR(level2);
  8004203072:	48 8b 45 f0          	mov    -0x10(%rbp),%rax
  8004203076:	48 89 45 e0          	mov    %rax,-0x20(%rbp)
  800420307a:	48 b8 ff ff ff 03 80 	movabs $0x8003ffffff,%rax
  8004203081:	00 00 00 
  8004203084:	48 39 45 e0          	cmp    %rax,-0x20(%rbp)
  8004203088:	77 32                	ja     80042030bc <pdpe_walk+0xe8>
  800420308a:	48 8b 45 e0          	mov    -0x20(%rbp),%rax
  800420308e:	48 89 c1             	mov    %rax,%rcx
  8004203091:	48 ba b0 c8 21 04 80 	movabs $0x800421c8b0,%rdx
  8004203098:	00 00 00 
  800420309b:	be 5b 02 00 00       	mov    $0x25b,%esi
  80042030a0:	48 bf b6 c7 21 04 80 	movabs $0x800421c7b6,%rdi
  80042030a7:	00 00 00 
  80042030aa:	b8 00 00 00 00       	mov    $0x0,%eax
  80042030af:	49 b8 c2 04 20 04 80 	movabs $0x80042004c2,%r8
  80042030b6:	00 00 00 
  80042030b9:	41 ff d0             	callq  *%r8
  80042030bc:	48 b8 00 00 00 fc 7f 	movabs $0xffffff7ffc000000,%rax
  80042030c3:	ff ff ff 
  80042030c6:	48 89 c2             	mov    %rax,%rdx
  80042030c9:	48 03 55 e0          	add    -0x20(%rbp),%rdx
  80042030cd:	48 8b 45 f8          	mov    -0x8(%rbp),%rax
  80042030d1:	48 89 10             	mov    %rdx,(%rax)
            *level3 |= PTE_USER;
  80042030d4:	48 8b 45 f8          	mov    -0x8(%rbp),%rax
  80042030d8:	48 8b 00             	mov    (%rax),%rax
  80042030db:	48 89 c2             	mov    %rax,%rdx
  80042030de:	48 81 ca 07 0e 00 00 	or     $0xe07,%rdx
  80042030e5:	48 8b 45 f8          	mov    -0x8(%rbp),%rax
  80042030e9:	48 89 10             	mov    %rdx,(%rax)
			memset(level2, 0, PGSIZE);
  80042030ec:	48 8b 45 f0          	mov    -0x10(%rbp),%rax
  80042030f0:	ba 00 10 00 00       	mov    $0x1000,%edx
  80042030f5:	be 00 00 00 00       	mov    $0x0,%esi
  80042030fa:	48 89 c7             	mov    %rax,%rdi
  80042030fd:	48 b8 47 03 21 04 80 	movabs $0x8004210347,%rax
  8004203104:	00 00 00 
  8004203107:	ff d0                	callq  *%rax
			pte_t *level1 =  pgdir_walk(level2, va, create);
  8004203109:	8b 55 ac             	mov    -0x54(%rbp),%edx
  800420310c:	48 8b 4d b0          	mov    -0x50(%rbp),%rcx
  8004203110:	48 8b 45 f0          	mov    -0x10(%rbp),%rax
  8004203114:	48 89 ce             	mov    %rcx,%rsi
  8004203117:	48 89 c7             	mov    %rax,%rdi
  800420311a:	48 b8 08 32 20 04 80 	movabs $0x8004203208,%rax
  8004203121:	00 00 00 
  8004203124:	ff d0                	callq  *%rax
  8004203126:	48 89 45 d8          	mov    %rax,-0x28(%rbp)
            if (!level1) {
  800420312a:	48 83 7d d8 00       	cmpq   $0x0,-0x28(%rbp)
  800420312f:	75 28                	jne    8004203159 <pdpe_walk+0x185>
                page_decref(pp);
  8004203131:	48 8b 45 e8          	mov    -0x18(%rbp),%rax
  8004203135:	48 89 c7             	mov    %rax,%rdi
  8004203138:	48 b8 28 2d 20 04 80 	movabs $0x8004202d28,%rax
  800420313f:	00 00 00 
  8004203142:	ff d0                	callq  *%rax
                *level3 = 0;
  8004203144:	48 8b 45 f8          	mov    -0x8(%rbp),%rax
  8004203148:	48 c7 00 00 00 00 00 	movq   $0x0,(%rax)
                return NULL;
  800420314f:	b8 00 00 00 00       	mov    $0x0,%eax
  8004203154:	e9 ad 00 00 00       	jmpq   8004203206 <pdpe_walk+0x232>
            }
            return level1;
  8004203159:	48 8b 45 d8          	mov    -0x28(%rbp),%rax
  800420315d:	e9 a4 00 00 00       	jmpq   8004203206 <pdpe_walk+0x232>
        }
        else {
            return NULL;
  8004203162:	b8 00 00 00 00       	mov    $0x0,%eax
  8004203167:	e9 9a 00 00 00       	jmpq   8004203206 <pdpe_walk+0x232>
        }
    }
    else {
        level2 = (pde_t*)KADDR(PTE_ADDR(*level3));
  800420316c:	48 8b 45 f8          	mov    -0x8(%rbp),%rax
  8004203170:	48 8b 00             	mov    (%rax),%rax
  8004203173:	48 25 00 f0 ff ff    	and    $0xfffffffffffff000,%rax
  8004203179:	48 89 45 d0          	mov    %rax,-0x30(%rbp)
  800420317d:	48 8b 45 d0          	mov    -0x30(%rbp),%rax
  8004203181:	48 c1 e8 0c          	shr    $0xc,%rax
  8004203185:	89 45 cc             	mov    %eax,-0x34(%rbp)
  8004203188:	8b 55 cc             	mov    -0x34(%rbp),%edx
  800420318b:	48 b8 70 37 48 04 80 	movabs $0x8004483770,%rax
  8004203192:	00 00 00 
  8004203195:	48 8b 00             	mov    (%rax),%rax
  8004203198:	48 39 c2             	cmp    %rax,%rdx
  800420319b:	72 32                	jb     80042031cf <pdpe_walk+0x1fb>
  800420319d:	48 8b 45 d0          	mov    -0x30(%rbp),%rax
  80042031a1:	48 89 c1             	mov    %rax,%rcx
  80042031a4:	48 ba 28 c7 21 04 80 	movabs $0x800421c728,%rdx
  80042031ab:	00 00 00 
  80042031ae:	be 6b 02 00 00       	mov    $0x26b,%esi
  80042031b3:	48 bf b6 c7 21 04 80 	movabs $0x800421c7b6,%rdi
  80042031ba:	00 00 00 
  80042031bd:	b8 00 00 00 00       	mov    $0x0,%eax
  80042031c2:	49 b8 c2 04 20 04 80 	movabs $0x80042004c2,%r8
  80042031c9:	00 00 00 
  80042031cc:	41 ff d0             	callq  *%r8
  80042031cf:	48 b8 00 00 00 04 80 	movabs $0x8004000000,%rax
  80042031d6:	00 00 00 
  80042031d9:	48 03 45 d0          	add    -0x30(%rbp),%rax
  80042031dd:	48 89 45 f0          	mov    %rax,-0x10(%rbp)
        pte_t *level1 =  pgdir_walk(level2, va, create);
  80042031e1:	8b 55 ac             	mov    -0x54(%rbp),%edx
  80042031e4:	48 8b 4d b0          	mov    -0x50(%rbp),%rcx
  80042031e8:	48 8b 45 f0          	mov    -0x10(%rbp),%rax
  80042031ec:	48 89 ce             	mov    %rcx,%rsi
  80042031ef:	48 89 c7             	mov    %rax,%rdi
  80042031f2:	48 b8 08 32 20 04 80 	movabs $0x8004203208,%rax
  80042031f9:	00 00 00 
  80042031fc:	ff d0                	callq  *%rax
  80042031fe:	48 89 45 c0          	mov    %rax,-0x40(%rbp)
        return level1;
  8004203202:	48 8b 45 c0          	mov    -0x40(%rbp),%rax
    }
}
  8004203206:	c9                   	leaveq 
  8004203207:	c3                   	retq   

0000008004203208 <pgdir_walk>:
// a pointer to the page table entry (PTE). 
// The programming logic and the hints are the same as pml4e_walk
// and pdpe_walk.

pte_t *
pgdir_walk(pde_t *pgdir, const void *va, int create) {
  8004203208:	55                   	push   %rbp
  8004203209:	48 89 e5             	mov    %rsp,%rbp
  800420320c:	48 83 ec 50          	sub    $0x50,%rsp
  8004203210:	48 89 7d c8          	mov    %rdi,-0x38(%rbp)
  8004203214:	48 89 75 c0          	mov    %rsi,-0x40(%rbp)
  8004203218:	89 55 bc             	mov    %edx,-0x44(%rbp)
	// Fill this function in
	pde_t* level2 = &pgdir[PDX(va)];
  800420321b:	48 8b 45 c0          	mov    -0x40(%rbp),%rax
  800420321f:	48 c1 e8 15          	shr    $0x15,%rax
  8004203223:	25 ff 01 00 00       	and    $0x1ff,%eax
  8004203228:	48 c1 e0 03          	shl    $0x3,%rax
  800420322c:	48 03 45 c8          	add    -0x38(%rbp),%rax
  8004203230:	48 89 45 f8          	mov    %rax,-0x8(%rbp)
    pte_t* level1 = NULL;
  8004203234:	48 c7 45 f0 00 00 00 	movq   $0x0,-0x10(%rbp)
  800420323b:	00 
    if (*level2 == 0) {
  800420323c:	48 8b 45 f8          	mov    -0x8(%rbp),%rax
  8004203240:	48 8b 00             	mov    (%rax),%rax
  8004203243:	48 85 c0             	test   %rax,%rax
  8004203246:	0f 85 ad 00 00 00    	jne    80042032f9 <pgdir_walk+0xf1>
        if (create) {
  800420324c:	83 7d bc 00          	cmpl   $0x0,-0x44(%rbp)
  8004203250:	0f 84 99 00 00 00    	je     80042032ef <pgdir_walk+0xe7>
            struct PageInfo* pp = page_alloc(0);
  8004203256:	bf 00 00 00 00       	mov    $0x0,%edi
  800420325b:	48 b8 6b 2b 20 04 80 	movabs $0x8004202b6b,%rax
  8004203262:	00 00 00 
  8004203265:	ff d0                	callq  *%rax
  8004203267:	48 89 45 e8          	mov    %rax,-0x18(%rbp)
            if (!pp)
  800420326b:	48 83 7d e8 00       	cmpq   $0x0,-0x18(%rbp)
  8004203270:	75 0a                	jne    800420327c <pgdir_walk+0x74>
                return NULL;
  8004203272:	b8 00 00 00 00       	mov    $0x0,%eax
  8004203277:	e9 0b 01 00 00       	jmpq   8004203387 <pgdir_walk+0x17f>
            pp->pp_ref++;
  800420327c:	48 8b 45 e8          	mov    -0x18(%rbp),%rax
  8004203280:	0f b7 40 08          	movzwl 0x8(%rax),%eax
  8004203284:	8d 50 01             	lea    0x1(%rax),%edx
  8004203287:	48 8b 45 e8          	mov    -0x18(%rbp),%rax
  800420328b:	66 89 50 08          	mov    %dx,0x8(%rax)
            *level2 = page2pa(pp);
  800420328f:	48 8b 45 e8          	mov    -0x18(%rbp),%rax
  8004203293:	48 89 c7             	mov    %rax,%rdi
  8004203296:	48 b8 ec 17 20 04 80 	movabs $0x80042017ec,%rax
  800420329d:	00 00 00 
  80042032a0:	ff d0                	callq  *%rax
  80042032a2:	48 8b 55 f8          	mov    -0x8(%rbp),%rdx
  80042032a6:	48 89 02             	mov    %rax,(%rdx)
            *level2 |= PTE_USER;
  80042032a9:	48 8b 45 f8          	mov    -0x8(%rbp),%rax
  80042032ad:	48 8b 00             	mov    (%rax),%rax
  80042032b0:	48 89 c2             	mov    %rax,%rdx
  80042032b3:	48 81 ca 07 0e 00 00 	or     $0xe07,%rdx
  80042032ba:	48 8b 45 f8          	mov    -0x8(%rbp),%rax
  80042032be:	48 89 10             	mov    %rdx,(%rax)
			memset(page2kva(pp), 0, PGSIZE);
  80042032c1:	48 8b 45 e8          	mov    -0x18(%rbp),%rax
  80042032c5:	48 89 c7             	mov    %rax,%rdi
  80042032c8:	48 b8 82 18 20 04 80 	movabs $0x8004201882,%rax
  80042032cf:	00 00 00 
  80042032d2:	ff d0                	callq  *%rax
  80042032d4:	ba 00 10 00 00       	mov    $0x1000,%edx
  80042032d9:	be 00 00 00 00       	mov    $0x0,%esi
  80042032de:	48 89 c7             	mov    %rax,%rdi
  80042032e1:	48 b8 47 03 21 04 80 	movabs $0x8004210347,%rax
  80042032e8:	00 00 00 
  80042032eb:	ff d0                	callq  *%rax
  80042032ed:	eb 0a                	jmp    80042032f9 <pgdir_walk+0xf1>
        }
        else
            return NULL;
  80042032ef:	b8 00 00 00 00       	mov    $0x0,%eax
  80042032f4:	e9 8e 00 00 00       	jmpq   8004203387 <pgdir_walk+0x17f>
    }
    level1 = (pte_t*)KADDR(PTE_ADDR(*level2));
  80042032f9:	48 8b 45 f8          	mov    -0x8(%rbp),%rax
  80042032fd:	48 8b 00             	mov    (%rax),%rax
  8004203300:	48 25 00 f0 ff ff    	and    $0xfffffffffffff000,%rax
  8004203306:	48 89 45 e0          	mov    %rax,-0x20(%rbp)
  800420330a:	48 8b 45 e0          	mov    -0x20(%rbp),%rax
  800420330e:	48 c1 e8 0c          	shr    $0xc,%rax
  8004203312:	89 45 dc             	mov    %eax,-0x24(%rbp)
  8004203315:	8b 55 dc             	mov    -0x24(%rbp),%edx
  8004203318:	48 b8 70 37 48 04 80 	movabs $0x8004483770,%rax
  800420331f:	00 00 00 
  8004203322:	48 8b 00             	mov    (%rax),%rax
  8004203325:	48 39 c2             	cmp    %rax,%rdx
  8004203328:	72 32                	jb     800420335c <pgdir_walk+0x154>
  800420332a:	48 8b 45 e0          	mov    -0x20(%rbp),%rax
  800420332e:	48 89 c1             	mov    %rax,%rcx
  8004203331:	48 ba 28 c7 21 04 80 	movabs $0x800421c728,%rdx
  8004203338:	00 00 00 
  800420333b:	be 87 02 00 00       	mov    $0x287,%esi
  8004203340:	48 bf b6 c7 21 04 80 	movabs $0x800421c7b6,%rdi
  8004203347:	00 00 00 
  800420334a:	b8 00 00 00 00       	mov    $0x0,%eax
  800420334f:	49 b8 c2 04 20 04 80 	movabs $0x80042004c2,%r8
  8004203356:	00 00 00 
  8004203359:	41 ff d0             	callq  *%r8
  800420335c:	48 b8 00 00 00 04 80 	movabs $0x8004000000,%rax
  8004203363:	00 00 00 
  8004203366:	48 03 45 e0          	add    -0x20(%rbp),%rax
  800420336a:	48 89 45 f0          	mov    %rax,-0x10(%rbp)
    level1 = &level1[PTX(va)];
  800420336e:	48 8b 45 c0          	mov    -0x40(%rbp),%rax
  8004203372:	48 c1 e8 0c          	shr    $0xc,%rax
  8004203376:	25 ff 01 00 00       	and    $0x1ff,%eax
  800420337b:	48 c1 e0 03          	shl    $0x3,%rax
  800420337f:	48 01 45 f0          	add    %rax,-0x10(%rbp)
    return level1;
  8004203383:	48 8b 45 f0          	mov    -0x10(%rbp),%rax
}
  8004203387:	c9                   	leaveq 
  8004203388:	c3                   	retq   

0000008004203389 <boot_map_region>:
// mapped pages.
//
// Hint: the TA solution uses pml4e_walk
static void
boot_map_region(pml4e_t *pml4e, uintptr_t la, size_t size, physaddr_t pa, int perm)
{
  8004203389:	55                   	push   %rbp
  800420338a:	48 89 e5             	mov    %rsp,%rbp
  800420338d:	48 83 ec 40          	sub    $0x40,%rsp
  8004203391:	48 89 7d e8          	mov    %rdi,-0x18(%rbp)
  8004203395:	48 89 75 e0          	mov    %rsi,-0x20(%rbp)
  8004203399:	48 89 55 d8          	mov    %rdx,-0x28(%rbp)
  800420339d:	48 89 4d d0          	mov    %rcx,-0x30(%rbp)
  80042033a1:	44 89 45 cc          	mov    %r8d,-0x34(%rbp)
	// Fill this function in
	size_t i;
    for(i=0; i < size; i+=PGSIZE)
  80042033a5:	48 c7 45 f8 00 00 00 	movq   $0x0,-0x8(%rbp)
  80042033ac:	00 
  80042033ad:	eb 71                	jmp    8004203420 <boot_map_region+0x97>
    {
        pte_t* ventry = pml4e_walk(pml4e, (void*)(la+i), 1);
  80042033af:	48 8b 45 f8          	mov    -0x8(%rbp),%rax
  80042033b3:	48 8b 55 e0          	mov    -0x20(%rbp),%rdx
  80042033b7:	48 01 d0             	add    %rdx,%rax
  80042033ba:	48 89 c1             	mov    %rax,%rcx
  80042033bd:	48 8b 45 e8          	mov    -0x18(%rbp),%rax
  80042033c1:	ba 01 00 00 00       	mov    $0x1,%edx
  80042033c6:	48 89 ce             	mov    %rcx,%rsi
  80042033c9:	48 89 c7             	mov    %rax,%rdi
  80042033cc:	48 b8 69 2d 20 04 80 	movabs $0x8004202d69,%rax
  80042033d3:	00 00 00 
  80042033d6:	ff d0                	callq  *%rax
  80042033d8:	48 89 45 f0          	mov    %rax,-0x10(%rbp)
        if (ventry) {
  80042033dc:	48 83 7d f0 00       	cmpq   $0x0,-0x10(%rbp)
  80042033e1:	74 35                	je     8004203418 <boot_map_region+0x8f>
            *ventry = PTE_ADDR(pa+i); //Just in case
  80042033e3:	48 8b 45 f8          	mov    -0x8(%rbp),%rax
  80042033e7:	48 8b 55 d0          	mov    -0x30(%rbp),%rdx
  80042033eb:	48 01 d0             	add    %rdx,%rax
  80042033ee:	48 89 c2             	mov    %rax,%rdx
  80042033f1:	48 81 e2 00 f0 ff ff 	and    $0xfffffffffffff000,%rdx
  80042033f8:	48 8b 45 f0          	mov    -0x10(%rbp),%rax
  80042033fc:	48 89 10             	mov    %rdx,(%rax)
            *ventry |= perm|PTE_P;
  80042033ff:	48 8b 45 f0          	mov    -0x10(%rbp),%rax
  8004203403:	48 8b 10             	mov    (%rax),%rdx
  8004203406:	8b 45 cc             	mov    -0x34(%rbp),%eax
  8004203409:	83 c8 01             	or     $0x1,%eax
  800420340c:	48 98                	cltq   
  800420340e:	48 09 c2             	or     %rax,%rdx
  8004203411:	48 8b 45 f0          	mov    -0x10(%rbp),%rax
  8004203415:	48 89 10             	mov    %rdx,(%rax)
static void
boot_map_region(pml4e_t *pml4e, uintptr_t la, size_t size, physaddr_t pa, int perm)
{
	// Fill this function in
	size_t i;
    for(i=0; i < size; i+=PGSIZE)
  8004203418:	48 81 45 f8 00 10 00 	addq   $0x1000,-0x8(%rbp)
  800420341f:	00 
  8004203420:	48 8b 45 f8          	mov    -0x8(%rbp),%rax
  8004203424:	48 3b 45 d8          	cmp    -0x28(%rbp),%rax
  8004203428:	72 85                	jb     80042033af <boot_map_region+0x26>
            *ventry = PTE_ADDR(pa+i); //Just in case
            *ventry |= perm|PTE_P;
        }
    }

}
  800420342a:	c9                   	leaveq 
  800420342b:	c3                   	retq   

000000800420342c <page_insert>:
// Hint: The TA solution is implemented using pml4e_walk, page_remove,
// and page2pa.
//
int
page_insert(pml4e_t *pml4e, struct PageInfo *pp, void *va, int perm)
{
  800420342c:	55                   	push   %rbp
  800420342d:	48 89 e5             	mov    %rsp,%rbp
  8004203430:	53                   	push   %rbx
  8004203431:	48 83 ec 38          	sub    $0x38,%rsp
  8004203435:	48 89 7d d8          	mov    %rdi,-0x28(%rbp)
  8004203439:	48 89 75 d0          	mov    %rsi,-0x30(%rbp)
  800420343d:	48 89 55 c8          	mov    %rdx,-0x38(%rbp)
  8004203441:	89 4d c4             	mov    %ecx,-0x3c(%rbp)
	// Fill this function in
	pte_t* page_entry = pml4e_walk(pml4e, va, 1);
  8004203444:	48 8b 4d c8          	mov    -0x38(%rbp),%rcx
  8004203448:	48 8b 45 d8          	mov    -0x28(%rbp),%rax
  800420344c:	ba 01 00 00 00       	mov    $0x1,%edx
  8004203451:	48 89 ce             	mov    %rcx,%rsi
  8004203454:	48 89 c7             	mov    %rax,%rdi
  8004203457:	48 b8 69 2d 20 04 80 	movabs $0x8004202d69,%rax
  800420345e:	00 00 00 
  8004203461:	ff d0                	callq  *%rax
  8004203463:	48 89 45 e8          	mov    %rax,-0x18(%rbp)

    if (page_entry) {
  8004203467:	48 83 7d e8 00       	cmpq   $0x0,-0x18(%rbp)
  800420346c:	0f 84 01 01 00 00    	je     8004203573 <page_insert+0x147>
        if (PTE_ADDR(*page_entry) == page2pa(pp)){
  8004203472:	48 8b 45 e8          	mov    -0x18(%rbp),%rax
  8004203476:	48 8b 00             	mov    (%rax),%rax
  8004203479:	48 89 c3             	mov    %rax,%rbx
  800420347c:	48 81 e3 00 f0 ff ff 	and    $0xfffffffffffff000,%rbx
  8004203483:	48 8b 45 d0          	mov    -0x30(%rbp),%rax
  8004203487:	48 89 c7             	mov    %rax,%rdi
  800420348a:	48 b8 ec 17 20 04 80 	movabs $0x80042017ec,%rax
  8004203491:	00 00 00 
  8004203494:	ff d0                	callq  *%rax
  8004203496:	48 39 c3             	cmp    %rax,%rbx
  8004203499:	75 4b                	jne    80042034e6 <page_insert+0xba>
            *page_entry = PTE_ADDR(*page_entry) | perm | PTE_P;
  800420349b:	48 8b 45 e8          	mov    -0x18(%rbp),%rax
  800420349f:	48 8b 00             	mov    (%rax),%rax
  80042034a2:	48 89 c2             	mov    %rax,%rdx
  80042034a5:	48 81 e2 00 f0 ff ff 	and    $0xfffffffffffff000,%rdx
  80042034ac:	8b 45 c4             	mov    -0x3c(%rbp),%eax
  80042034af:	48 98                	cltq   
  80042034b1:	48 09 d0             	or     %rdx,%rax
  80042034b4:	48 89 c2             	mov    %rax,%rdx
  80042034b7:	48 83 ca 01          	or     $0x1,%rdx
  80042034bb:	48 8b 45 e8          	mov    -0x18(%rbp),%rax
  80042034bf:	48 89 10             	mov    %rdx,(%rax)
			tlb_invalidate(pml4e, va);
  80042034c2:	48 8b 55 c8          	mov    -0x38(%rbp),%rdx
  80042034c6:	48 8b 45 d8          	mov    -0x28(%rbp),%rax
  80042034ca:	48 89 d6             	mov    %rdx,%rsi
  80042034cd:	48 89 c7             	mov    %rax,%rdi
  80042034d0:	48 b8 77 36 20 04 80 	movabs $0x8004203677,%rax
  80042034d7:	00 00 00 
  80042034da:	ff d0                	callq  *%rax
            return 0;
  80042034dc:	b8 00 00 00 00       	mov    $0x0,%eax
  80042034e1:	e9 92 00 00 00       	jmpq   8004203578 <page_insert+0x14c>
        }
        if(*page_entry != 0) {
  80042034e6:	48 8b 45 e8          	mov    -0x18(%rbp),%rax
  80042034ea:	48 8b 00             	mov    (%rax),%rax
  80042034ed:	48 85 c0             	test   %rax,%rax
  80042034f0:	74 34                	je     8004203526 <page_insert+0xfa>
            page_remove(pml4e, va);
  80042034f2:	48 8b 55 c8          	mov    -0x38(%rbp),%rdx
  80042034f6:	48 8b 45 d8          	mov    -0x28(%rbp),%rax
  80042034fa:	48 89 d6             	mov    %rdx,%rsi
  80042034fd:	48 89 c7             	mov    %rax,%rdi
  8004203500:	48 b8 fc 35 20 04 80 	movabs $0x80042035fc,%rax
  8004203507:	00 00 00 
  800420350a:	ff d0                	callq  *%rax
            tlb_invalidate(pml4e, va);
  800420350c:	48 8b 55 c8          	mov    -0x38(%rbp),%rdx
  8004203510:	48 8b 45 d8          	mov    -0x28(%rbp),%rax
  8004203514:	48 89 d6             	mov    %rdx,%rsi
  8004203517:	48 89 c7             	mov    %rax,%rdi
  800420351a:	48 b8 77 36 20 04 80 	movabs $0x8004203677,%rax
  8004203521:	00 00 00 
  8004203524:	ff d0                	callq  *%rax
        }
        *page_entry = page2pa(pp);
  8004203526:	48 8b 45 d0          	mov    -0x30(%rbp),%rax
  800420352a:	48 89 c7             	mov    %rax,%rdi
  800420352d:	48 b8 ec 17 20 04 80 	movabs $0x80042017ec,%rax
  8004203534:	00 00 00 
  8004203537:	ff d0                	callq  *%rax
  8004203539:	48 8b 55 e8          	mov    -0x18(%rbp),%rdx
  800420353d:	48 89 02             	mov    %rax,(%rdx)
        *page_entry |= perm | PTE_P;
  8004203540:	48 8b 45 e8          	mov    -0x18(%rbp),%rax
  8004203544:	48 8b 10             	mov    (%rax),%rdx
  8004203547:	8b 45 c4             	mov    -0x3c(%rbp),%eax
  800420354a:	83 c8 01             	or     $0x1,%eax
  800420354d:	48 98                	cltq   
  800420354f:	48 09 c2             	or     %rax,%rdx
  8004203552:	48 8b 45 e8          	mov    -0x18(%rbp),%rax
  8004203556:	48 89 10             	mov    %rdx,(%rax)
        pp->pp_ref += 1;
  8004203559:	48 8b 45 d0          	mov    -0x30(%rbp),%rax
  800420355d:	0f b7 40 08          	movzwl 0x8(%rax),%eax
  8004203561:	8d 50 01             	lea    0x1(%rax),%edx
  8004203564:	48 8b 45 d0          	mov    -0x30(%rbp),%rax
  8004203568:	66 89 50 08          	mov    %dx,0x8(%rax)
        return 0;
  800420356c:	b8 00 00 00 00       	mov    $0x0,%eax
  8004203571:	eb 05                	jmp    8004203578 <page_insert+0x14c>
    }
    return -E_NO_MEM;
  8004203573:	b8 fc ff ff ff       	mov    $0xfffffffc,%eax
}
  8004203578:	48 83 c4 38          	add    $0x38,%rsp
  800420357c:	5b                   	pop    %rbx
  800420357d:	5d                   	pop    %rbp
  800420357e:	c3                   	retq   

000000800420357f <page_lookup>:
//
// Hint: the TA solution uses pml4e_walk and pa2page.
//
struct PageInfo *
page_lookup(pml4e_t *pml4e, void *va, pte_t **pte_store)
{
  800420357f:	55                   	push   %rbp
  8004203580:	48 89 e5             	mov    %rsp,%rbp
  8004203583:	48 83 ec 30          	sub    $0x30,%rsp
  8004203587:	48 89 7d e8          	mov    %rdi,-0x18(%rbp)
  800420358b:	48 89 75 e0          	mov    %rsi,-0x20(%rbp)
  800420358f:	48 89 55 d8          	mov    %rdx,-0x28(%rbp)
	// Fill this function in
	pte_t* level1 = pml4e_walk(pml4e, va, 0);
  8004203593:	48 8b 4d e0          	mov    -0x20(%rbp),%rcx
  8004203597:	48 8b 45 e8          	mov    -0x18(%rbp),%rax
  800420359b:	ba 00 00 00 00       	mov    $0x0,%edx
  80042035a0:	48 89 ce             	mov    %rcx,%rsi
  80042035a3:	48 89 c7             	mov    %rax,%rdi
  80042035a6:	48 b8 69 2d 20 04 80 	movabs $0x8004202d69,%rax
  80042035ad:	00 00 00 
  80042035b0:	ff d0                	callq  *%rax
  80042035b2:	48 89 45 f8          	mov    %rax,-0x8(%rbp)
    if (level1) {
  80042035b6:	48 83 7d f8 00       	cmpq   $0x0,-0x8(%rbp)
  80042035bb:	74 38                	je     80042035f5 <page_lookup+0x76>
        if(pte_store)
  80042035bd:	48 83 7d d8 00       	cmpq   $0x0,-0x28(%rbp)
  80042035c2:	74 0b                	je     80042035cf <page_lookup+0x50>
            *pte_store = level1;
  80042035c4:	48 8b 45 d8          	mov    -0x28(%rbp),%rax
  80042035c8:	48 8b 55 f8          	mov    -0x8(%rbp),%rdx
  80042035cc:	48 89 10             	mov    %rdx,(%rax)
        physaddr_t pt = PTE_ADDR(*level1); //To remove permission bits
  80042035cf:	48 8b 45 f8          	mov    -0x8(%rbp),%rax
  80042035d3:	48 8b 00             	mov    (%rax),%rax
  80042035d6:	48 25 00 f0 ff ff    	and    $0xfffffffffffff000,%rax
  80042035dc:	48 89 45 f0          	mov    %rax,-0x10(%rbp)
        return pa2page(pt);
  80042035e0:	48 8b 45 f0          	mov    -0x10(%rbp),%rax
  80042035e4:	48 89 c7             	mov    %rax,%rdi
  80042035e7:	48 b8 11 18 20 04 80 	movabs $0x8004201811,%rax
  80042035ee:	00 00 00 
  80042035f1:	ff d0                	callq  *%rax
  80042035f3:	eb 05                	jmp    80042035fa <page_lookup+0x7b>
    }
    return NULL;
  80042035f5:	b8 00 00 00 00       	mov    $0x0,%eax
}
  80042035fa:	c9                   	leaveq 
  80042035fb:	c3                   	retq   

00000080042035fc <page_remove>:
// Hint: The TA solution is implemented using page_lookup,
// 	tlb_invalidate, and page_decref.
//
void
page_remove(pml4e_t *pml4e, void *va)
{
  80042035fc:	55                   	push   %rbp
  80042035fd:	48 89 e5             	mov    %rsp,%rbp
  8004203600:	48 83 ec 20          	sub    $0x20,%rsp
  8004203604:	48 89 7d e8          	mov    %rdi,-0x18(%rbp)
  8004203608:	48 89 75 e0          	mov    %rsi,-0x20(%rbp)
	// Fill this function in
	pte_t* ptentry = NULL;
  800420360c:	48 c7 45 f0 00 00 00 	movq   $0x0,-0x10(%rbp)
  8004203613:	00 
    struct PageInfo *pp = page_lookup(pml4e, va, &ptentry);
  8004203614:	48 8d 55 f0          	lea    -0x10(%rbp),%rdx
  8004203618:	48 8b 4d e0          	mov    -0x20(%rbp),%rcx
  800420361c:	48 8b 45 e8          	mov    -0x18(%rbp),%rax
  8004203620:	48 89 ce             	mov    %rcx,%rsi
  8004203623:	48 89 c7             	mov    %rax,%rdi
  8004203626:	48 b8 7f 35 20 04 80 	movabs $0x800420357f,%rax
  800420362d:	00 00 00 
  8004203630:	ff d0                	callq  *%rax
  8004203632:	48 89 45 f8          	mov    %rax,-0x8(%rbp)
    if(pp) {
  8004203636:	48 83 7d f8 00       	cmpq   $0x0,-0x8(%rbp)
  800420363b:	74 38                	je     8004203675 <page_remove+0x79>
        page_decref(pp);
  800420363d:	48 8b 45 f8          	mov    -0x8(%rbp),%rax
  8004203641:	48 89 c7             	mov    %rax,%rdi
  8004203644:	48 b8 28 2d 20 04 80 	movabs $0x8004202d28,%rax
  800420364b:	00 00 00 
  800420364e:	ff d0                	callq  *%rax
        *ptentry = 0;
  8004203650:	48 8b 45 f0          	mov    -0x10(%rbp),%rax
  8004203654:	48 c7 00 00 00 00 00 	movq   $0x0,(%rax)
        tlb_invalidate(pml4e, va);
  800420365b:	48 8b 55 e0          	mov    -0x20(%rbp),%rdx
  800420365f:	48 8b 45 e8          	mov    -0x18(%rbp),%rax
  8004203663:	48 89 d6             	mov    %rdx,%rsi
  8004203666:	48 89 c7             	mov    %rax,%rdi
  8004203669:	48 b8 77 36 20 04 80 	movabs $0x8004203677,%rax
  8004203670:	00 00 00 
  8004203673:	ff d0                	callq  *%rax
    }
}
  8004203675:	c9                   	leaveq 
  8004203676:	c3                   	retq   

0000008004203677 <tlb_invalidate>:
// Invalidate a TLB entry, but only if the page tables being
// edited are the ones currently in use by the processor.
//
void
tlb_invalidate(pml4e_t *pml4e, void *va)
{
  8004203677:	55                   	push   %rbp
  8004203678:	48 89 e5             	mov    %rsp,%rbp
  800420367b:	48 83 ec 20          	sub    $0x20,%rsp
  800420367f:	48 89 7d e8          	mov    %rdi,-0x18(%rbp)
  8004203683:	48 89 75 e0          	mov    %rsi,-0x20(%rbp)
	// Flush the entry only if we're modifying the current address space.
	assert(pml4e!=NULL);
  8004203687:	48 83 7d e8 00       	cmpq   $0x0,-0x18(%rbp)
  800420368c:	75 35                	jne    80042036c3 <tlb_invalidate+0x4c>
  800420368e:	48 b9 4c c9 21 04 80 	movabs $0x800421c94c,%rcx
  8004203695:	00 00 00 
  8004203698:	48 ba a1 c7 21 04 80 	movabs $0x800421c7a1,%rdx
  800420369f:	00 00 00 
  80042036a2:	be 14 03 00 00       	mov    $0x314,%esi
  80042036a7:	48 bf b6 c7 21 04 80 	movabs $0x800421c7b6,%rdi
  80042036ae:	00 00 00 
  80042036b1:	b8 00 00 00 00       	mov    $0x0,%eax
  80042036b6:	49 b8 c2 04 20 04 80 	movabs $0x80042004c2,%r8
  80042036bd:	00 00 00 
  80042036c0:	41 ff d0             	callq  *%r8
	if (!curenv || curenv->env_pml4e == pml4e)
  80042036c3:	48 b8 2d 73 21 04 80 	movabs $0x800421732d,%rax
  80042036ca:	00 00 00 
  80042036cd:	ff d0                	callq  *%rax
  80042036cf:	48 98                	cltq   
  80042036d1:	48 c1 e0 03          	shl    $0x3,%rax
  80042036d5:	48 89 c2             	mov    %rax,%rdx
  80042036d8:	48 c1 e2 04          	shl    $0x4,%rdx
  80042036dc:	48 01 c2             	add    %rax,%rdx
  80042036df:	48 b8 20 50 48 04 80 	movabs $0x8004485020,%rax
  80042036e6:	00 00 00 
  80042036e9:	48 01 d0             	add    %rdx,%rax
  80042036ec:	48 8b 40 08          	mov    0x8(%rax),%rax
  80042036f0:	48 85 c0             	test   %rax,%rax
  80042036f3:	74 3a                	je     800420372f <tlb_invalidate+0xb8>
  80042036f5:	48 b8 2d 73 21 04 80 	movabs $0x800421732d,%rax
  80042036fc:	00 00 00 
  80042036ff:	ff d0                	callq  *%rax
  8004203701:	48 98                	cltq   
  8004203703:	48 c1 e0 03          	shl    $0x3,%rax
  8004203707:	48 89 c2             	mov    %rax,%rdx
  800420370a:	48 c1 e2 04          	shl    $0x4,%rdx
  800420370e:	48 01 c2             	add    %rax,%rdx
  8004203711:	48 b8 20 50 48 04 80 	movabs $0x8004485020,%rax
  8004203718:	00 00 00 
  800420371b:	48 01 d0             	add    %rdx,%rax
  800420371e:	48 8b 40 08          	mov    0x8(%rax),%rax
  8004203722:	48 8b 80 e0 00 00 00 	mov    0xe0(%rax),%rax
  8004203729:	48 3b 45 e8          	cmp    -0x18(%rbp),%rax
  800420372d:	75 0f                	jne    800420373e <tlb_invalidate+0xc7>
  800420372f:	48 8b 45 e0          	mov    -0x20(%rbp),%rax
  8004203733:	48 89 45 f8          	mov    %rax,-0x8(%rbp)
}

    static __inline void 
invlpg(void *addr)
{ 
    __asm __volatile("invlpg (%0)" : : "r" (addr) : "memory");
  8004203737:	48 8b 45 f8          	mov    -0x8(%rbp),%rax
  800420373b:	0f 01 38             	invlpg (%rax)
		invlpg(va);
}
  800420373e:	c9                   	leaveq 
  800420373f:	c3                   	retq   

0000008004203740 <mmio_map_region>:
// location.  Return the base of the reserved region.  size does *not*
// have to be multiple of PGSIZE.
//
void *
mmio_map_region(physaddr_t pa, size_t size)
{
  8004203740:	55                   	push   %rbp
  8004203741:	48 89 e5             	mov    %rsp,%rbp
  8004203744:	48 83 ec 30          	sub    $0x30,%rsp
  8004203748:	48 89 7d d8          	mov    %rdi,-0x28(%rbp)
  800420374c:	48 89 75 d0          	mov    %rsi,-0x30(%rbp)
	// okay to simply panic if this happens).
	//
	// Hint: The staff solution uses boot_map_region.
	//
	// Your code here:
	size_t newsize = ROUNDUP(size, PGSIZE);
  8004203750:	48 c7 45 f8 00 10 00 	movq   $0x1000,-0x8(%rbp)
  8004203757:	00 
  8004203758:	48 8b 45 f8          	mov    -0x8(%rbp),%rax
  800420375c:	48 8b 55 d0          	mov    -0x30(%rbp),%rdx
  8004203760:	48 01 d0             	add    %rdx,%rax
  8004203763:	48 83 e8 01          	sub    $0x1,%rax
  8004203767:	48 89 45 f0          	mov    %rax,-0x10(%rbp)
  800420376b:	48 8b 45 f0          	mov    -0x10(%rbp),%rax
  800420376f:	ba 00 00 00 00       	mov    $0x0,%edx
  8004203774:	48 f7 75 f8          	divq   -0x8(%rbp)
  8004203778:	48 89 d0             	mov    %rdx,%rax
