
obj/fs/fs:     file format elf64-x86-64


Disassembly of section .text:

0000000000800020 <_start>:
// starts us running when we are initially loaded into a new environment.
.text
.globl _start
_start:
	// See if we were started with arguments on the stack
	movabs $USTACKTOP, %rax
  800020:	48 b8 00 e0 7f ef 00 	movabs $0xef7fe000,%rax
  800027:	00 00 00 
	cmpq %rax,%rsp
  80002a:	48 39 c4             	cmp    %rax,%rsp
	jne args_exist
  80002d:	75 04                	jne    800033 <args_exist>

	// If not, push dummy argc/argv arguments.
	// This happens when we are loaded by the kernel,
	// because the kernel does not know about passing arguments.
	pushq $0
  80002f:	6a 00                	pushq  $0x0
	pushq $0
  800031:	6a 00                	pushq  $0x0

0000000000800033 <args_exist>:

args_exist:
	movq 8(%rsp), %rsi
  800033:	48 8b 74 24 08       	mov    0x8(%rsp),%rsi
	movq (%rsp), %rdi
  800038:	48 8b 3c 24          	mov    (%rsp),%rdi
	call libmain
  80003c:	e8 33 2d 00 00       	callq  802d74 <libmain>
1:	jmp 1b
  800041:	eb fe                	jmp    800041 <args_exist+0xe>
	...

0000000000800044 <ide_wait_ready>:

static int diskno = 1;

static int
ide_wait_ready(bool check_error)
{
  800044:	55                   	push   %rbp
  800045:	48 89 e5             	mov    %rsp,%rbp
  800048:	53                   	push   %rbx
  800049:	48 83 ec 18          	sub    $0x18,%rsp
  80004d:	89 f8                	mov    %edi,%eax
  80004f:	88 45 e4             	mov    %al,-0x1c(%rbp)
	int r;

	while (((r = inb(0x1F7)) & (IDE_BSY|IDE_DRDY)) != IDE_DRDY)
  800052:	c7 45 f0 f7 01 00 00 	movl   $0x1f7,-0x10(%rbp)

    static __inline uint8_t
inb(int port)
{
    uint8_t data;
    __asm __volatile("inb %w1,%0" : "=a" (data) : "d" (port));
  800059:	8b 55 f0             	mov    -0x10(%rbp),%edx
  80005c:	89 55 e0             	mov    %edx,-0x20(%rbp)
  80005f:	8b 55 e0             	mov    -0x20(%rbp),%edx
  800062:	ec                   	in     (%dx),%al
  800063:	89 c3                	mov    %eax,%ebx
  800065:	88 5d ef             	mov    %bl,-0x11(%rbp)
    return data;
  800068:	0f b6 45 ef          	movzbl -0x11(%rbp),%eax
  80006c:	0f b6 c0             	movzbl %al,%eax
  80006f:	89 45 f4             	mov    %eax,-0xc(%rbp)
  800072:	8b 45 f4             	mov    -0xc(%rbp),%eax
  800075:	25 c0 00 00 00       	and    $0xc0,%eax
  80007a:	83 f8 40             	cmp    $0x40,%eax
  80007d:	75 d3                	jne    800052 <ide_wait_ready+0xe>
		/* do nothing */;

	if (check_error && (r & (IDE_DF|IDE_ERR)) != 0)
  80007f:	80 7d e4 00          	cmpb   $0x0,-0x1c(%rbp)
  800083:	74 11                	je     800096 <ide_wait_ready+0x52>
  800085:	8b 45 f4             	mov    -0xc(%rbp),%eax
  800088:	83 e0 21             	and    $0x21,%eax
  80008b:	85 c0                	test   %eax,%eax
  80008d:	74 07                	je     800096 <ide_wait_ready+0x52>
		return -1;
  80008f:	b8 ff ff ff ff       	mov    $0xffffffff,%eax
  800094:	eb 05                	jmp    80009b <ide_wait_ready+0x57>
	return 0;
  800096:	b8 00 00 00 00       	mov    $0x0,%eax
}
  80009b:	48 83 c4 18          	add    $0x18,%rsp
  80009f:	5b                   	pop    %rbx
  8000a0:	5d                   	pop    %rbp
  8000a1:	c3                   	retq   

00000000008000a2 <ide_probe_disk1>:

bool
ide_probe_disk1(void)
{
  8000a2:	55                   	push   %rbp
  8000a3:	48 89 e5             	mov    %rsp,%rbp
  8000a6:	53                   	push   %rbx
  8000a7:	48 83 ec 38          	sub    $0x38,%rsp
	int r, x;

	// wait for Device 0 to be ready
	ide_wait_ready(0);
  8000ab:	bf 00 00 00 00       	mov    $0x0,%edi
  8000b0:	48 b8 44 00 80 00 00 	movabs $0x800044,%rax
  8000b7:	00 00 00 
  8000ba:	ff d0                	callq  *%rax
  8000bc:	c7 45 e4 f6 01 00 00 	movl   $0x1f6,-0x1c(%rbp)
  8000c3:	c6 45 e3 f0          	movb   $0xf0,-0x1d(%rbp)
}

    static __inline void
outb(int port, uint8_t data)
{
    __asm __volatile("outb %0,%w1" : : "a" (data), "d" (port));
  8000c7:	0f b6 45 e3          	movzbl -0x1d(%rbp),%eax
  8000cb:	8b 55 e4             	mov    -0x1c(%rbp),%edx
  8000ce:	ee                   	out    %al,(%dx)

	// switch to Device 1
	outb(0x1F6, 0xE0 | (1<<4));

	// check for Device 1 to be ready for a while
	for (x = 0;
  8000cf:	c7 45 ec 00 00 00 00 	movl   $0x0,-0x14(%rbp)
  8000d6:	eb 04                	jmp    8000dc <ide_probe_disk1+0x3a>
	     x < 1000 && ((r = inb(0x1F7)) & (IDE_BSY|IDE_DF|IDE_ERR)) != 0;
	     x++)
  8000d8:	83 45 ec 01          	addl   $0x1,-0x14(%rbp)

	// switch to Device 1
	outb(0x1F6, 0xE0 | (1<<4));

	// check for Device 1 to be ready for a while
	for (x = 0;
  8000dc:	81 7d ec e7 03 00 00 	cmpl   $0x3e7,-0x14(%rbp)
  8000e3:	7f 2c                	jg     800111 <ide_probe_disk1+0x6f>
  8000e5:	c7 45 dc f7 01 00 00 	movl   $0x1f7,-0x24(%rbp)

    static __inline uint8_t
inb(int port)
{
    uint8_t data;
    __asm __volatile("inb %w1,%0" : "=a" (data) : "d" (port));
  8000ec:	8b 55 dc             	mov    -0x24(%rbp),%edx
  8000ef:	89 55 cc             	mov    %edx,-0x34(%rbp)
  8000f2:	8b 55 cc             	mov    -0x34(%rbp),%edx
  8000f5:	ec                   	in     (%dx),%al
  8000f6:	89 c3                	mov    %eax,%ebx
  8000f8:	88 5d db             	mov    %bl,-0x25(%rbp)
    return data;
  8000fb:	0f b6 45 db          	movzbl -0x25(%rbp),%eax
	     x < 1000 && ((r = inb(0x1F7)) & (IDE_BSY|IDE_DF|IDE_ERR)) != 0;
  8000ff:	0f b6 c0             	movzbl %al,%eax
  800102:	89 45 e8             	mov    %eax,-0x18(%rbp)
  800105:	8b 45 e8             	mov    -0x18(%rbp),%eax
  800108:	25 a1 00 00 00       	and    $0xa1,%eax
  80010d:	85 c0                	test   %eax,%eax
  80010f:	75 c7                	jne    8000d8 <ide_probe_disk1+0x36>
  800111:	c7 45 d4 f6 01 00 00 	movl   $0x1f6,-0x2c(%rbp)
  800118:	c6 45 d3 e0          	movb   $0xe0,-0x2d(%rbp)
}

    static __inline void
outb(int port, uint8_t data)
{
    __asm __volatile("outb %0,%w1" : : "a" (data), "d" (port));
  80011c:	0f b6 45 d3          	movzbl -0x2d(%rbp),%eax
  800120:	8b 55 d4             	mov    -0x2c(%rbp),%edx
  800123:	ee                   	out    %al,(%dx)
		/* do nothing */;

	// switch back to Device 0
	outb(0x1F6, 0xE0 | (0<<4));

	cprintf("Device 1 presence: %d\n", (x < 1000));
  800124:	81 7d ec e7 03 00 00 	cmpl   $0x3e7,-0x14(%rbp)
  80012b:	0f 9e c0             	setle  %al
  80012e:	0f b6 c0             	movzbl %al,%eax
  800131:	89 c6                	mov    %eax,%esi
  800133:	48 bf 60 69 80 00 00 	movabs $0x806960,%rdi
  80013a:	00 00 00 
  80013d:	b8 00 00 00 00       	mov    $0x0,%eax
  800142:	48 ba 7b 30 80 00 00 	movabs $0x80307b,%rdx
  800149:	00 00 00 
  80014c:	ff d2                	callq  *%rdx
	return (x < 1000);
  80014e:	81 7d ec e7 03 00 00 	cmpl   $0x3e7,-0x14(%rbp)
  800155:	0f 9e c0             	setle  %al
}
  800158:	48 83 c4 38          	add    $0x38,%rsp
  80015c:	5b                   	pop    %rbx
  80015d:	5d                   	pop    %rbp
  80015e:	c3                   	retq   

000000000080015f <ide_set_disk>:

void
ide_set_disk(int d)
{
  80015f:	55                   	push   %rbp
  800160:	48 89 e5             	mov    %rsp,%rbp
  800163:	48 83 ec 10          	sub    $0x10,%rsp
  800167:	89 7d fc             	mov    %edi,-0x4(%rbp)
	if (d != 0 && d != 1)
  80016a:	83 7d fc 00          	cmpl   $0x0,-0x4(%rbp)
  80016e:	74 30                	je     8001a0 <ide_set_disk+0x41>
  800170:	83 7d fc 01          	cmpl   $0x1,-0x4(%rbp)
  800174:	74 2a                	je     8001a0 <ide_set_disk+0x41>
		panic("bad disk number");
  800176:	48 ba 77 69 80 00 00 	movabs $0x806977,%rdx
  80017d:	00 00 00 
  800180:	be 3a 00 00 00       	mov    $0x3a,%esi
  800185:	48 bf 87 69 80 00 00 	movabs $0x806987,%rdi
  80018c:	00 00 00 
  80018f:	b8 00 00 00 00       	mov    $0x0,%eax
  800194:	48 b9 40 2e 80 00 00 	movabs $0x802e40,%rcx
  80019b:	00 00 00 
  80019e:	ff d1                	callq  *%rcx
	diskno = d;
  8001a0:	48 b8 00 90 80 00 00 	movabs $0x809000,%rax
  8001a7:	00 00 00 
  8001aa:	8b 55 fc             	mov    -0x4(%rbp),%edx
  8001ad:	89 10                	mov    %edx,(%rax)
}
  8001af:	c9                   	leaveq 
  8001b0:	c3                   	retq   

00000000008001b1 <ide_read>:

int
ide_read(uint32_t secno, void *dst, size_t nsecs)
{
  8001b1:	55                   	push   %rbp
  8001b2:	48 89 e5             	mov    %rsp,%rbp
  8001b5:	41 54                	push   %r12
  8001b7:	53                   	push   %rbx
  8001b8:	48 83 ec 70          	sub    $0x70,%rsp
  8001bc:	89 7d 9c             	mov    %edi,-0x64(%rbp)
  8001bf:	48 89 75 90          	mov    %rsi,-0x70(%rbp)
  8001c3:	48 89 55 88          	mov    %rdx,-0x78(%rbp)
	int r;

	assert(nsecs <= 256);
  8001c7:	48 81 7d 88 00 01 00 	cmpq   $0x100,-0x78(%rbp)
  8001ce:	00 
  8001cf:	76 35                	jbe    800206 <ide_read+0x55>
  8001d1:	48 b9 90 69 80 00 00 	movabs $0x806990,%rcx
  8001d8:	00 00 00 
  8001db:	48 ba 9d 69 80 00 00 	movabs $0x80699d,%rdx
  8001e2:	00 00 00 
  8001e5:	be 43 00 00 00       	mov    $0x43,%esi
  8001ea:	48 bf 87 69 80 00 00 	movabs $0x806987,%rdi
  8001f1:	00 00 00 
  8001f4:	b8 00 00 00 00       	mov    $0x0,%eax
  8001f9:	49 b8 40 2e 80 00 00 	movabs $0x802e40,%r8
  800200:	00 00 00 
  800203:	41 ff d0             	callq  *%r8

	ide_wait_ready(0);
  800206:	bf 00 00 00 00       	mov    $0x0,%edi
  80020b:	48 b8 44 00 80 00 00 	movabs $0x800044,%rax
  800212:	00 00 00 
  800215:	ff d0                	callq  *%rax

	outb(0x1F2, nsecs);
  800217:	48 8b 45 88          	mov    -0x78(%rbp),%rax
  80021b:	0f b6 c0             	movzbl %al,%eax
  80021e:	c7 45 e8 f2 01 00 00 	movl   $0x1f2,-0x18(%rbp)
  800225:	88 45 e7             	mov    %al,-0x19(%rbp)
  800228:	0f b6 45 e7          	movzbl -0x19(%rbp),%eax
  80022c:	8b 55 e8             	mov    -0x18(%rbp),%edx
  80022f:	ee                   	out    %al,(%dx)
	outb(0x1F3, secno & 0xFF);
  800230:	8b 45 9c             	mov    -0x64(%rbp),%eax
  800233:	0f b6 c0             	movzbl %al,%eax
  800236:	c7 45 e0 f3 01 00 00 	movl   $0x1f3,-0x20(%rbp)
  80023d:	88 45 df             	mov    %al,-0x21(%rbp)
  800240:	0f b6 45 df          	movzbl -0x21(%rbp),%eax
  800244:	8b 55 e0             	mov    -0x20(%rbp),%edx
  800247:	ee                   	out    %al,(%dx)
	outb(0x1F4, (secno >> 8) & 0xFF);
  800248:	8b 45 9c             	mov    -0x64(%rbp),%eax
  80024b:	c1 e8 08             	shr    $0x8,%eax
  80024e:	0f b6 c0             	movzbl %al,%eax
  800251:	c7 45 d8 f4 01 00 00 	movl   $0x1f4,-0x28(%rbp)
  800258:	88 45 d7             	mov    %al,-0x29(%rbp)
  80025b:	0f b6 45 d7          	movzbl -0x29(%rbp),%eax
  80025f:	8b 55 d8             	mov    -0x28(%rbp),%edx
  800262:	ee                   	out    %al,(%dx)
	outb(0x1F5, (secno >> 16) & 0xFF);
  800263:	8b 45 9c             	mov    -0x64(%rbp),%eax
  800266:	c1 e8 10             	shr    $0x10,%eax
  800269:	0f b6 c0             	movzbl %al,%eax
  80026c:	c7 45 d0 f5 01 00 00 	movl   $0x1f5,-0x30(%rbp)
  800273:	88 45 cf             	mov    %al,-0x31(%rbp)
  800276:	0f b6 45 cf          	movzbl -0x31(%rbp),%eax
  80027a:	8b 55 d0             	mov    -0x30(%rbp),%edx
  80027d:	ee                   	out    %al,(%dx)
	outb(0x1F6, 0xE0 | ((diskno&1)<<4) | ((secno>>24)&0x0F));
  80027e:	48 b8 00 90 80 00 00 	movabs $0x809000,%rax
  800285:	00 00 00 
  800288:	8b 00                	mov    (%rax),%eax
  80028a:	83 e0 01             	and    $0x1,%eax
  80028d:	89 c2                	mov    %eax,%edx
  80028f:	c1 e2 04             	shl    $0x4,%edx
  800292:	8b 45 9c             	mov    -0x64(%rbp),%eax
  800295:	c1 e8 18             	shr    $0x18,%eax
  800298:	83 e0 0f             	and    $0xf,%eax
  80029b:	09 d0                	or     %edx,%eax
  80029d:	83 c8 e0             	or     $0xffffffe0,%eax
  8002a0:	0f b6 c0             	movzbl %al,%eax
  8002a3:	c7 45 c8 f6 01 00 00 	movl   $0x1f6,-0x38(%rbp)
  8002aa:	88 45 c7             	mov    %al,-0x39(%rbp)
  8002ad:	0f b6 45 c7          	movzbl -0x39(%rbp),%eax
  8002b1:	8b 55 c8             	mov    -0x38(%rbp),%edx
  8002b4:	ee                   	out    %al,(%dx)
  8002b5:	c7 45 c0 f7 01 00 00 	movl   $0x1f7,-0x40(%rbp)
  8002bc:	c6 45 bf 20          	movb   $0x20,-0x41(%rbp)
  8002c0:	0f b6 45 bf          	movzbl -0x41(%rbp),%eax
  8002c4:	8b 55 c0             	mov    -0x40(%rbp),%edx
  8002c7:	ee                   	out    %al,(%dx)
	outb(0x1F7, 0x20);	// CMD 0x20 means read sector

	for (; nsecs > 0; nsecs--, dst += SECTSIZE) {
  8002c8:	eb 67                	jmp    800331 <ide_read+0x180>
		if ((r = ide_wait_ready(1)) < 0)
  8002ca:	bf 01 00 00 00       	mov    $0x1,%edi
  8002cf:	48 b8 44 00 80 00 00 	movabs $0x800044,%rax
  8002d6:	00 00 00 
  8002d9:	ff d0                	callq  *%rax
  8002db:	89 45 ec             	mov    %eax,-0x14(%rbp)
  8002de:	83 7d ec 00          	cmpl   $0x0,-0x14(%rbp)
  8002e2:	79 05                	jns    8002e9 <ide_read+0x138>
			return r;
  8002e4:	8b 45 ec             	mov    -0x14(%rbp),%eax
  8002e7:	eb 54                	jmp    80033d <ide_read+0x18c>
  8002e9:	c7 45 b8 f0 01 00 00 	movl   $0x1f0,-0x48(%rbp)
  8002f0:	48 8b 45 90          	mov    -0x70(%rbp),%rax
  8002f4:	48 89 45 b0          	mov    %rax,-0x50(%rbp)
  8002f8:	c7 45 ac 80 00 00 00 	movl   $0x80,-0x54(%rbp)
}

    static __inline void
insl(int port, void *addr, int cnt)
{
    __asm __volatile("cld\n\trepne\n\tinsl"			:
  8002ff:	8b 45 b8             	mov    -0x48(%rbp),%eax
  800302:	48 8b 4d b0          	mov    -0x50(%rbp),%rcx
  800306:	8b 55 ac             	mov    -0x54(%rbp),%edx
  800309:	49 89 cc             	mov    %rcx,%r12
  80030c:	89 d3                	mov    %edx,%ebx
  80030e:	4c 89 e7             	mov    %r12,%rdi
  800311:	89 d9                	mov    %ebx,%ecx
  800313:	89 c2                	mov    %eax,%edx
  800315:	fc                   	cld    
  800316:	f2 6d                	repnz insl (%dx),%es:(%rdi)
  800318:	89 cb                	mov    %ecx,%ebx
  80031a:	49 89 fc             	mov    %rdi,%r12
  80031d:	4c 89 65 b0          	mov    %r12,-0x50(%rbp)
  800321:	89 5d ac             	mov    %ebx,-0x54(%rbp)
	outb(0x1F4, (secno >> 8) & 0xFF);
	outb(0x1F5, (secno >> 16) & 0xFF);
	outb(0x1F6, 0xE0 | ((diskno&1)<<4) | ((secno>>24)&0x0F));
	outb(0x1F7, 0x20);	// CMD 0x20 means read sector

	for (; nsecs > 0; nsecs--, dst += SECTSIZE) {
  800324:	48 83 6d 88 01       	subq   $0x1,-0x78(%rbp)
  800329:	48 81 45 90 00 02 00 	addq   $0x200,-0x70(%rbp)
  800330:	00 
  800331:	48 83 7d 88 00       	cmpq   $0x0,-0x78(%rbp)
  800336:	75 92                	jne    8002ca <ide_read+0x119>
		if ((r = ide_wait_ready(1)) < 0)
			return r;
		insl(0x1F0, dst, SECTSIZE/4);
	}

	return 0;
  800338:	b8 00 00 00 00       	mov    $0x0,%eax
}
  80033d:	48 83 c4 70          	add    $0x70,%rsp
  800341:	5b                   	pop    %rbx
  800342:	41 5c                	pop    %r12
  800344:	5d                   	pop    %rbp
  800345:	c3                   	retq   

0000000000800346 <ide_write>:

int
ide_write(uint32_t secno, const void *src, size_t nsecs)
{
  800346:	55                   	push   %rbp
  800347:	48 89 e5             	mov    %rsp,%rbp
  80034a:	41 54                	push   %r12
  80034c:	53                   	push   %rbx
  80034d:	48 83 ec 70          	sub    $0x70,%rsp
  800351:	89 7d 9c             	mov    %edi,-0x64(%rbp)
  800354:	48 89 75 90          	mov    %rsi,-0x70(%rbp)
  800358:	48 89 55 88          	mov    %rdx,-0x78(%rbp)
	int r;

	assert(nsecs <= 256);
  80035c:	48 81 7d 88 00 01 00 	cmpq   $0x100,-0x78(%rbp)
  800363:	00 
  800364:	76 35                	jbe    80039b <ide_write+0x55>
  800366:	48 b9 90 69 80 00 00 	movabs $0x806990,%rcx
  80036d:	00 00 00 
  800370:	48 ba 9d 69 80 00 00 	movabs $0x80699d,%rdx
  800377:	00 00 00 
  80037a:	be 5c 00 00 00       	mov    $0x5c,%esi
  80037f:	48 bf 87 69 80 00 00 	movabs $0x806987,%rdi
  800386:	00 00 00 
  800389:	b8 00 00 00 00       	mov    $0x0,%eax
  80038e:	49 b8 40 2e 80 00 00 	movabs $0x802e40,%r8
  800395:	00 00 00 
  800398:	41 ff d0             	callq  *%r8

	ide_wait_ready(0);
  80039b:	bf 00 00 00 00       	mov    $0x0,%edi
  8003a0:	48 b8 44 00 80 00 00 	movabs $0x800044,%rax
  8003a7:	00 00 00 
  8003aa:	ff d0                	callq  *%rax

	outb(0x1F2, nsecs);
  8003ac:	48 8b 45 88          	mov    -0x78(%rbp),%rax
  8003b0:	0f b6 c0             	movzbl %al,%eax
  8003b3:	c7 45 e8 f2 01 00 00 	movl   $0x1f2,-0x18(%rbp)
  8003ba:	88 45 e7             	mov    %al,-0x19(%rbp)
}

    static __inline void
outb(int port, uint8_t data)
{
    __asm __volatile("outb %0,%w1" : : "a" (data), "d" (port));
  8003bd:	0f b6 45 e7          	movzbl -0x19(%rbp),%eax
  8003c1:	8b 55 e8             	mov    -0x18(%rbp),%edx
  8003c4:	ee                   	out    %al,(%dx)
	outb(0x1F3, secno & 0xFF);
  8003c5:	8b 45 9c             	mov    -0x64(%rbp),%eax
  8003c8:	0f b6 c0             	movzbl %al,%eax
  8003cb:	c7 45 e0 f3 01 00 00 	movl   $0x1f3,-0x20(%rbp)
  8003d2:	88 45 df             	mov    %al,-0x21(%rbp)
  8003d5:	0f b6 45 df          	movzbl -0x21(%rbp),%eax
  8003d9:	8b 55 e0             	mov    -0x20(%rbp),%edx
  8003dc:	ee                   	out    %al,(%dx)
	outb(0x1F4, (secno >> 8) & 0xFF);
  8003dd:	8b 45 9c             	mov    -0x64(%rbp),%eax
  8003e0:	c1 e8 08             	shr    $0x8,%eax
  8003e3:	0f b6 c0             	movzbl %al,%eax
  8003e6:	c7 45 d8 f4 01 00 00 	movl   $0x1f4,-0x28(%rbp)
  8003ed:	88 45 d7             	mov    %al,-0x29(%rbp)
  8003f0:	0f b6 45 d7          	movzbl -0x29(%rbp),%eax
  8003f4:	8b 55 d8             	mov    -0x28(%rbp),%edx
  8003f7:	ee                   	out    %al,(%dx)
	outb(0x1F5, (secno >> 16) & 0xFF);
  8003f8:	8b 45 9c             	mov    -0x64(%rbp),%eax
  8003fb:	c1 e8 10             	shr    $0x10,%eax
  8003fe:	0f b6 c0             	movzbl %al,%eax
  800401:	c7 45 d0 f5 01 00 00 	movl   $0x1f5,-0x30(%rbp)
  800408:	88 45 cf             	mov    %al,-0x31(%rbp)
  80040b:	0f b6 45 cf          	movzbl -0x31(%rbp),%eax
  80040f:	8b 55 d0             	mov    -0x30(%rbp),%edx
  800412:	ee                   	out    %al,(%dx)
	outb(0x1F6, 0xE0 | ((diskno&1)<<4) | ((secno>>24)&0x0F));
  800413:	48 b8 00 90 80 00 00 	movabs $0x809000,%rax
  80041a:	00 00 00 
  80041d:	8b 00                	mov    (%rax),%eax
  80041f:	83 e0 01             	and    $0x1,%eax
  800422:	89 c2                	mov    %eax,%edx
  800424:	c1 e2 04             	shl    $0x4,%edx
  800427:	8b 45 9c             	mov    -0x64(%rbp),%eax
  80042a:	c1 e8 18             	shr    $0x18,%eax
  80042d:	83 e0 0f             	and    $0xf,%eax
  800430:	09 d0                	or     %edx,%eax
  800432:	83 c8 e0             	or     $0xffffffe0,%eax
  800435:	0f b6 c0             	movzbl %al,%eax
  800438:	c7 45 c8 f6 01 00 00 	movl   $0x1f6,-0x38(%rbp)
  80043f:	88 45 c7             	mov    %al,-0x39(%rbp)
  800442:	0f b6 45 c7          	movzbl -0x39(%rbp),%eax
  800446:	8b 55 c8             	mov    -0x38(%rbp),%edx
  800449:	ee                   	out    %al,(%dx)
  80044a:	c7 45 c0 f7 01 00 00 	movl   $0x1f7,-0x40(%rbp)
  800451:	c6 45 bf 30          	movb   $0x30,-0x41(%rbp)
  800455:	0f b6 45 bf          	movzbl -0x41(%rbp),%eax
  800459:	8b 55 c0             	mov    -0x40(%rbp),%edx
  80045c:	ee                   	out    %al,(%dx)
	outb(0x1F7, 0x30);	// CMD 0x30 means write sector

	for (; nsecs > 0; nsecs--, src += SECTSIZE) {
  80045d:	eb 67                	jmp    8004c6 <ide_write+0x180>
		if ((r = ide_wait_ready(1)) < 0)
  80045f:	bf 01 00 00 00       	mov    $0x1,%edi
  800464:	48 b8 44 00 80 00 00 	movabs $0x800044,%rax
  80046b:	00 00 00 
  80046e:	ff d0                	callq  *%rax
  800470:	89 45 ec             	mov    %eax,-0x14(%rbp)
  800473:	83 7d ec 00          	cmpl   $0x0,-0x14(%rbp)
  800477:	79 05                	jns    80047e <ide_write+0x138>
			return r;
  800479:	8b 45 ec             	mov    -0x14(%rbp),%eax
  80047c:	eb 54                	jmp    8004d2 <ide_write+0x18c>
  80047e:	c7 45 b8 f0 01 00 00 	movl   $0x1f0,-0x48(%rbp)
  800485:	48 8b 45 90          	mov    -0x70(%rbp),%rax
  800489:	48 89 45 b0          	mov    %rax,-0x50(%rbp)
  80048d:	c7 45 ac 80 00 00 00 	movl   $0x80,-0x54(%rbp)
}

    static __inline void
outsl(int port, const void *addr, int cnt)
{
    __asm __volatile("cld\n\trepne\n\toutsl"		:
  800494:	8b 45 b8             	mov    -0x48(%rbp),%eax
  800497:	48 8b 4d b0          	mov    -0x50(%rbp),%rcx
  80049b:	8b 55 ac             	mov    -0x54(%rbp),%edx
  80049e:	49 89 cc             	mov    %rcx,%r12
  8004a1:	89 d3                	mov    %edx,%ebx
  8004a3:	4c 89 e6             	mov    %r12,%rsi
  8004a6:	89 d9                	mov    %ebx,%ecx
  8004a8:	89 c2                	mov    %eax,%edx
  8004aa:	fc                   	cld    
  8004ab:	f2 6f                	repnz outsl %ds:(%rsi),(%dx)
  8004ad:	89 cb                	mov    %ecx,%ebx
  8004af:	49 89 f4             	mov    %rsi,%r12
  8004b2:	4c 89 65 b0          	mov    %r12,-0x50(%rbp)
  8004b6:	89 5d ac             	mov    %ebx,-0x54(%rbp)
	outb(0x1F4, (secno >> 8) & 0xFF);
	outb(0x1F5, (secno >> 16) & 0xFF);
	outb(0x1F6, 0xE0 | ((diskno&1)<<4) | ((secno>>24)&0x0F));
	outb(0x1F7, 0x30);	// CMD 0x30 means write sector

	for (; nsecs > 0; nsecs--, src += SECTSIZE) {
  8004b9:	48 83 6d 88 01       	subq   $0x1,-0x78(%rbp)
  8004be:	48 81 45 90 00 02 00 	addq   $0x200,-0x70(%rbp)
  8004c5:	00 
  8004c6:	48 83 7d 88 00       	cmpq   $0x0,-0x78(%rbp)
  8004cb:	75 92                	jne    80045f <ide_write+0x119>
		if ((r = ide_wait_ready(1)) < 0)
			return r;
		outsl(0x1F0, src, SECTSIZE/4);
	}

	return 0;
  8004cd:	b8 00 00 00 00       	mov    $0x0,%eax
}
  8004d2:	48 83 c4 70          	add    $0x70,%rsp
  8004d6:	5b                   	pop    %rbx
  8004d7:	41 5c                	pop    %r12
  8004d9:	5d                   	pop    %rbp
  8004da:	c3                   	retq   
	...

00000000008004dc <diskaddr>:
#include "fs.h"

// Return the virtual address of this disk block.
void*
diskaddr(uint64_t blockno)
{
  8004dc:	55                   	push   %rbp
  8004dd:	48 89 e5             	mov    %rsp,%rbp
  8004e0:	48 83 ec 10          	sub    $0x10,%rsp
  8004e4:	48 89 7d f8          	mov    %rdi,-0x8(%rbp)
	if (blockno == 0 || (super && blockno >= super->s_nblocks))
  8004e8:	48 83 7d f8 00       	cmpq   $0x0,-0x8(%rbp)
  8004ed:	74 2a                	je     800519 <diskaddr+0x3d>
  8004ef:	48 b8 10 20 81 00 00 	movabs $0x812010,%rax
  8004f6:	00 00 00 
  8004f9:	48 8b 00             	mov    (%rax),%rax
  8004fc:	48 85 c0             	test   %rax,%rax
  8004ff:	74 4a                	je     80054b <diskaddr+0x6f>
  800501:	48 b8 10 20 81 00 00 	movabs $0x812010,%rax
  800508:	00 00 00 
  80050b:	48 8b 00             	mov    (%rax),%rax
  80050e:	8b 40 04             	mov    0x4(%rax),%eax
  800511:	89 c0                	mov    %eax,%eax
  800513:	48 3b 45 f8          	cmp    -0x8(%rbp),%rax
  800517:	77 32                	ja     80054b <diskaddr+0x6f>
		panic("bad block number %08x in diskaddr", blockno);
  800519:	48 8b 45 f8          	mov    -0x8(%rbp),%rax
  80051d:	48 89 c1             	mov    %rax,%rcx
  800520:	48 ba b8 69 80 00 00 	movabs $0x8069b8,%rdx
  800527:	00 00 00 
  80052a:	be 09 00 00 00       	mov    $0x9,%esi
  80052f:	48 bf da 69 80 00 00 	movabs $0x8069da,%rdi
  800536:	00 00 00 
  800539:	b8 00 00 00 00       	mov    $0x0,%eax
  80053e:	49 b8 40 2e 80 00 00 	movabs $0x802e40,%r8
  800545:	00 00 00 
  800548:	41 ff d0             	callq  *%r8
	return (char*) (DISKMAP + blockno * BLKSIZE);
  80054b:	48 8b 45 f8          	mov    -0x8(%rbp),%rax
  80054f:	48 05 00 00 01 00    	add    $0x10000,%rax
  800555:	48 c1 e0 0c          	shl    $0xc,%rax
}
  800559:	c9                   	leaveq 
  80055a:	c3                   	retq   

000000000080055b <va_is_mapped>:

// Is this virtual address mapped?
bool
va_is_mapped(void *va)
{
  80055b:	55                   	push   %rbp
  80055c:	48 89 e5             	mov    %rsp,%rbp
  80055f:	48 83 ec 08          	sub    $0x8,%rsp
  800563:	48 89 7d f8          	mov    %rdi,-0x8(%rbp)
	return (uvpml4e[VPML4E(va)] & PTE_P) && (uvpde[VPDPE(va)] & PTE_P) && (uvpd[VPD(va)] & PTE_P) && (uvpt[PGNUM(va)] & PTE_P);
  800567:	48 8b 45 f8          	mov    -0x8(%rbp),%rax
  80056b:	48 89 c2             	mov    %rax,%rdx
  80056e:	48 c1 ea 27          	shr    $0x27,%rdx
  800572:	48 b8 00 20 40 80 00 	movabs $0x10080402000,%rax
  800579:	01 00 00 
  80057c:	48 8b 04 d0          	mov    (%rax,%rdx,8),%rax
  800580:	83 e0 01             	and    $0x1,%eax
  800583:	84 c0                	test   %al,%al
  800585:	74 67                	je     8005ee <va_is_mapped+0x93>
  800587:	48 8b 45 f8          	mov    -0x8(%rbp),%rax
  80058b:	48 89 c2             	mov    %rax,%rdx
  80058e:	48 c1 ea 1e          	shr    $0x1e,%rdx
  800592:	48 b8 00 00 40 80 00 	movabs $0x10080400000,%rax
  800599:	01 00 00 
  80059c:	48 8b 04 d0          	mov    (%rax,%rdx,8),%rax
  8005a0:	83 e0 01             	and    $0x1,%eax
  8005a3:	84 c0                	test   %al,%al
  8005a5:	74 47                	je     8005ee <va_is_mapped+0x93>
  8005a7:	48 8b 45 f8          	mov    -0x8(%rbp),%rax
  8005ab:	48 89 c2             	mov    %rax,%rdx
  8005ae:	48 c1 ea 15          	shr    $0x15,%rdx
  8005b2:	48 b8 00 00 00 80 00 	movabs $0x10080000000,%rax
  8005b9:	01 00 00 
  8005bc:	48 8b 04 d0          	mov    (%rax,%rdx,8),%rax
  8005c0:	83 e0 01             	and    $0x1,%eax
  8005c3:	84 c0                	test   %al,%al
  8005c5:	74 27                	je     8005ee <va_is_mapped+0x93>
  8005c7:	48 8b 45 f8          	mov    -0x8(%rbp),%rax
  8005cb:	48 89 c2             	mov    %rax,%rdx
  8005ce:	48 c1 ea 0c          	shr    $0xc,%rdx
  8005d2:	48 b8 00 00 00 00 00 	movabs $0x10000000000,%rax
  8005d9:	01 00 00 
  8005dc:	48 8b 04 d0          	mov    (%rax,%rdx,8),%rax
  8005e0:	83 e0 01             	and    $0x1,%eax
  8005e3:	84 c0                	test   %al,%al
  8005e5:	74 07                	je     8005ee <va_is_mapped+0x93>
  8005e7:	b8 01 00 00 00       	mov    $0x1,%eax
  8005ec:	eb 05                	jmp    8005f3 <va_is_mapped+0x98>
  8005ee:	b8 00 00 00 00       	mov    $0x0,%eax
}
  8005f3:	c9                   	leaveq 
  8005f4:	c3                   	retq   

00000000008005f5 <va_is_dirty>:

// Is this virtual address dirty?
bool
va_is_dirty(void *va)
{
  8005f5:	55                   	push   %rbp
  8005f6:	48 89 e5             	mov    %rsp,%rbp
  8005f9:	48 83 ec 08          	sub    $0x8,%rsp
  8005fd:	48 89 7d f8          	mov    %rdi,-0x8(%rbp)
	return (uvpt[PGNUM(va)] & PTE_D) != 0;
  800601:	48 8b 45 f8          	mov    -0x8(%rbp),%rax
  800605:	48 89 c2             	mov    %rax,%rdx
  800608:	48 c1 ea 0c          	shr    $0xc,%rdx
  80060c:	48 b8 00 00 00 00 00 	movabs $0x10000000000,%rax
  800613:	01 00 00 
  800616:	48 8b 04 d0          	mov    (%rax,%rdx,8),%rax
  80061a:	83 e0 40             	and    $0x40,%eax
  80061d:	48 85 c0             	test   %rax,%rax
  800620:	0f 95 c0             	setne  %al
}
  800623:	c9                   	leaveq 
  800624:	c3                   	retq   

0000000000800625 <bc_pgfault>:

// Fault any disk block that is read in to memory by
// loading it from disk.
static void
bc_pgfault(struct UTrapframe *utf)
{
  800625:	55                   	push   %rbp
  800626:	48 89 e5             	mov    %rsp,%rbp
  800629:	48 83 ec 50          	sub    $0x50,%rsp
  80062d:	48 89 7d b8          	mov    %rdi,-0x48(%rbp)
	void *addr = (void *) utf->utf_fault_va;
  800631:	48 8b 45 b8          	mov    -0x48(%rbp),%rax
  800635:	48 8b 00             	mov    (%rax),%rax
  800638:	48 89 45 f8          	mov    %rax,-0x8(%rbp)
	uint64_t blockno = ((uint64_t)addr - DISKMAP) / BLKSIZE;
  80063c:	48 8b 45 f8          	mov    -0x8(%rbp),%rax
  800640:	48 2d 00 00 00 10    	sub    $0x10000000,%rax
  800646:	48 c1 e8 0c          	shr    $0xc,%rax
  80064a:	48 89 45 f0          	mov    %rax,-0x10(%rbp)
	int r;

	// Check that the fault was within the block cache region
	if (addr < (void*)DISKMAP || addr >= (void*)(DISKMAP + DISKSIZE))
  80064e:	48 81 7d f8 ff ff ff 	cmpq   $0xfffffff,-0x8(%rbp)
  800655:	0f 
  800656:	76 0b                	jbe    800663 <bc_pgfault+0x3e>
  800658:	b8 ff ff ff cf       	mov    $0xcfffffff,%eax
  80065d:	48 39 45 f8          	cmp    %rax,-0x8(%rbp)
  800661:	76 4b                	jbe    8006ae <bc_pgfault+0x89>
		panic("page fault in FS: eip %08x, va %08x, err %04x",
  800663:	48 8b 45 b8          	mov    -0x48(%rbp),%rax
  800667:	48 8b 48 08          	mov    0x8(%rax),%rcx
  80066b:	48 8b 45 b8          	mov    -0x48(%rbp),%rax
  80066f:	48 8b 80 88 00 00 00 	mov    0x88(%rax),%rax
  800676:	48 8b 55 f8          	mov    -0x8(%rbp),%rdx
  80067a:	49 89 c9             	mov    %rcx,%r9
  80067d:	49 89 d0             	mov    %rdx,%r8
  800680:	48 89 c1             	mov    %rax,%rcx
  800683:	48 ba e8 69 80 00 00 	movabs $0x8069e8,%rdx
  80068a:	00 00 00 
  80068d:	be 27 00 00 00       	mov    $0x27,%esi
  800692:	48 bf da 69 80 00 00 	movabs $0x8069da,%rdi
  800699:	00 00 00 
  80069c:	b8 00 00 00 00       	mov    $0x0,%eax
  8006a1:	49 ba 40 2e 80 00 00 	movabs $0x802e40,%r10
  8006a8:	00 00 00 
  8006ab:	41 ff d2             	callq  *%r10
		      utf->utf_rip, addr, utf->utf_err);

	// Sanity check the block number.
	if (super && blockno >= super->s_nblocks)
  8006ae:	48 b8 10 20 81 00 00 	movabs $0x812010,%rax
  8006b5:	00 00 00 
  8006b8:	48 8b 00             	mov    (%rax),%rax
  8006bb:	48 85 c0             	test   %rax,%rax
  8006be:	74 4a                	je     80070a <bc_pgfault+0xe5>
  8006c0:	48 b8 10 20 81 00 00 	movabs $0x812010,%rax
  8006c7:	00 00 00 
  8006ca:	48 8b 00             	mov    (%rax),%rax
  8006cd:	8b 40 04             	mov    0x4(%rax),%eax
  8006d0:	89 c0                	mov    %eax,%eax
  8006d2:	48 3b 45 f0          	cmp    -0x10(%rbp),%rax
  8006d6:	77 32                	ja     80070a <bc_pgfault+0xe5>
		panic("reading non-existent block %08x\n", blockno);
  8006d8:	48 8b 45 f0          	mov    -0x10(%rbp),%rax
  8006dc:	48 89 c1             	mov    %rax,%rcx
  8006df:	48 ba 18 6a 80 00 00 	movabs $0x806a18,%rdx
  8006e6:	00 00 00 
  8006e9:	be 2b 00 00 00       	mov    $0x2b,%esi
  8006ee:	48 bf da 69 80 00 00 	movabs $0x8069da,%rdi
  8006f5:	00 00 00 
  8006f8:	b8 00 00 00 00       	mov    $0x0,%eax
  8006fd:	49 b8 40 2e 80 00 00 	movabs $0x802e40,%r8
  800704:	00 00 00 
  800707:	41 ff d0             	callq  *%r8
	// the reader: why do we do this *after* reading the block
	// in?)
	// if (bitmap && block_is_free(blockno))
	//	panic("reading free block %08x\n", blockno);
	// LAB 5: you code here:
	void *new_addr = ROUNDDOWN(addr, PGSIZE);
  80070a:	48 8b 45 f8          	mov    -0x8(%rbp),%rax
  80070e:	48 89 45 e8          	mov    %rax,-0x18(%rbp)
  800712:	48 8b 45 e8          	mov    -0x18(%rbp),%rax
  800716:	48 25 00 f0 ff ff    	and    $0xfffffffffffff000,%rax
  80071c:	48 89 45 e0          	mov    %rax,-0x20(%rbp)
	r = sys_page_alloc(0, new_addr, PTE_P|PTE_W|PTE_U);
  800720:	48 8b 45 e0          	mov    -0x20(%rbp),%rax
  800724:	ba 07 00 00 00       	mov    $0x7,%edx
  800729:	48 89 c6             	mov    %rax,%rsi
  80072c:	bf 00 00 00 00       	mov    $0x0,%edi
  800731:	48 b8 84 45 80 00 00 	movabs $0x804584,%rax
  800738:	00 00 00 
  80073b:	ff d0                	callq  *%rax
  80073d:	89 45 dc             	mov    %eax,-0x24(%rbp)
	if(r<0)
  800740:	83 7d dc 00          	cmpl   $0x0,-0x24(%rbp)
  800744:	79 30                	jns    800776 <bc_pgfault+0x151>
		panic("Something wrong with allocation %e",r);
  800746:	8b 45 dc             	mov    -0x24(%rbp),%eax
  800749:	89 c1                	mov    %eax,%ecx
  80074b:	48 ba 40 6a 80 00 00 	movabs $0x806a40,%rdx
  800752:	00 00 00 
  800755:	be 3c 00 00 00       	mov    $0x3c,%esi
  80075a:	48 bf da 69 80 00 00 	movabs $0x8069da,%rdi
  800761:	00 00 00 
  800764:	b8 00 00 00 00       	mov    $0x0,%eax
  800769:	49 b8 40 2e 80 00 00 	movabs $0x802e40,%r8
  800770:	00 00 00 
  800773:	41 ff d0             	callq  *%r8
	uint64_t sec_no = BLKSECTS * blockno;
  800776:	48 8b 45 f0          	mov    -0x10(%rbp),%rax
  80077a:	48 c1 e0 03          	shl    $0x3,%rax
  80077e:	48 89 45 d0          	mov    %rax,-0x30(%rbp)
	size_t nsecs = BLKSECTS;
  800782:	48 c7 45 c8 08 00 00 	movq   $0x8,-0x38(%rbp)
  800789:	00 
	r = ide_read(sec_no, new_addr, nsecs);
  80078a:	48 8b 45 d0          	mov    -0x30(%rbp),%rax
  80078e:	48 8b 55 c8          	mov    -0x38(%rbp),%rdx
  800792:	48 8b 4d e0          	mov    -0x20(%rbp),%rcx
  800796:	48 89 ce             	mov    %rcx,%rsi
  800799:	89 c7                	mov    %eax,%edi
  80079b:	48 b8 b1 01 80 00 00 	movabs $0x8001b1,%rax
  8007a2:	00 00 00 
  8007a5:	ff d0                	callq  *%rax
  8007a7:	89 45 dc             	mov    %eax,-0x24(%rbp)
	if(r<0)
  8007aa:	83 7d dc 00          	cmpl   $0x0,-0x24(%rbp)
  8007ae:	79 30                	jns    8007e0 <bc_pgfault+0x1bb>
		panic("Something wrong with reading from the disk %e",r);
  8007b0:	8b 45 dc             	mov    -0x24(%rbp),%eax
  8007b3:	89 c1                	mov    %eax,%ecx
  8007b5:	48 ba 68 6a 80 00 00 	movabs $0x806a68,%rdx
  8007bc:	00 00 00 
  8007bf:	be 41 00 00 00       	mov    $0x41,%esi
  8007c4:	48 bf da 69 80 00 00 	movabs $0x8069da,%rdi
  8007cb:	00 00 00 
  8007ce:	b8 00 00 00 00       	mov    $0x0,%eax
  8007d3:	49 b8 40 2e 80 00 00 	movabs $0x802e40,%r8
  8007da:	00 00 00 
  8007dd:	41 ff d0             	callq  *%r8
}
  8007e0:	c9                   	leaveq 
  8007e1:	c3                   	retq   

00000000008007e2 <flush_block>:
// Hint: Use va_is_mapped, va_is_dirty, and ide_write.
// Hint: Use the PTE_SYSCALL constant when calling sys_page_map.
// Hint: Don't forget to round addr down.
void
flush_block(void *addr)
{
  8007e2:	55                   	push   %rbp
  8007e3:	48 89 e5             	mov    %rsp,%rbp
  8007e6:	48 83 ec 20          	sub    $0x20,%rsp
  8007ea:	48 89 7d e8          	mov    %rdi,-0x18(%rbp)
	uint64_t blockno = ((uint64_t)addr - DISKMAP) / BLKSIZE;
  8007ee:	48 8b 45 e8          	mov    -0x18(%rbp),%rax
  8007f2:	48 2d 00 00 00 10    	sub    $0x10000000,%rax
  8007f8:	48 c1 e8 0c          	shr    $0xc,%rax
  8007fc:	48 89 45 f8          	mov    %rax,-0x8(%rbp)

	if (addr < (void*)DISKMAP || addr >= (void*)(DISKMAP + DISKSIZE))
  800800:	48 81 7d e8 ff ff ff 	cmpq   $0xfffffff,-0x18(%rbp)
  800807:	0f 
  800808:	76 0b                	jbe    800815 <flush_block+0x33>
  80080a:	b8 ff ff ff cf       	mov    $0xcfffffff,%eax
  80080f:	48 39 45 e8          	cmp    %rax,-0x18(%rbp)
  800813:	76 32                	jbe    800847 <flush_block+0x65>
		panic("flush_block of bad va %08x", addr);
  800815:	48 8b 45 e8          	mov    -0x18(%rbp),%rax
  800819:	48 89 c1             	mov    %rax,%rcx
  80081c:	48 ba 96 6a 80 00 00 	movabs $0x806a96,%rdx
  800823:	00 00 00 
  800826:	be 51 00 00 00       	mov    $0x51,%esi
  80082b:	48 bf da 69 80 00 00 	movabs $0x8069da,%rdi
  800832:	00 00 00 
  800835:	b8 00 00 00 00       	mov    $0x0,%eax
  80083a:	49 b8 40 2e 80 00 00 	movabs $0x802e40,%r8
  800841:	00 00 00 
  800844:	41 ff d0             	callq  *%r8

	// LAB 5: Your code here.
	//panic("flush_block not implemented");
}
  800847:	c9                   	leaveq 
  800848:	c3                   	retq   

0000000000800849 <check_bc>:

// Test that the block cache works, by smashing the superblock and
// reading it back.
static void
check_bc(void)
{
  800849:	55                   	push   %rbp
  80084a:	48 89 e5             	mov    %rsp,%rbp
  80084d:	48 81 ec 10 01 00 00 	sub    $0x110,%rsp
	struct Super backup;

	// back up super block
	memmove(&backup, diskaddr(1), sizeof backup);
  800854:	bf 01 00 00 00       	mov    $0x1,%edi
  800859:	48 b8 dc 04 80 00 00 	movabs $0x8004dc,%rax
  800860:	00 00 00 
  800863:	ff d0                	callq  *%rax
  800865:	48 89 c1             	mov    %rax,%rcx
  800868:	48 8d 85 f0 fe ff ff 	lea    -0x110(%rbp),%rax
  80086f:	ba 08 01 00 00       	mov    $0x108,%edx
  800874:	48 89 ce             	mov    %rcx,%rsi
  800877:	48 89 c7             	mov    %rax,%rdi
  80087a:	48 b8 6e 3f 80 00 00 	movabs $0x803f6e,%rax
  800881:	00 00 00 
  800884:	ff d0                	callq  *%rax

	// smash it
	strcpy(diskaddr(1), "OOPS!\n");
  800886:	bf 01 00 00 00       	mov    $0x1,%edi
  80088b:	48 b8 dc 04 80 00 00 	movabs $0x8004dc,%rax
  800892:	00 00 00 
  800895:	ff d0                	callq  *%rax
  800897:	48 be b1 6a 80 00 00 	movabs $0x806ab1,%rsi
  80089e:	00 00 00 
  8008a1:	48 89 c7             	mov    %rax,%rdi
  8008a4:	48 b8 4c 3c 80 00 00 	movabs $0x803c4c,%rax
  8008ab:	00 00 00 
  8008ae:	ff d0                	callq  *%rax
	flush_block(diskaddr(1));
  8008b0:	bf 01 00 00 00       	mov    $0x1,%edi
  8008b5:	48 b8 dc 04 80 00 00 	movabs $0x8004dc,%rax
  8008bc:	00 00 00 
  8008bf:	ff d0                	callq  *%rax
  8008c1:	48 89 c7             	mov    %rax,%rdi
  8008c4:	48 b8 e2 07 80 00 00 	movabs $0x8007e2,%rax
  8008cb:	00 00 00 
  8008ce:	ff d0                	callq  *%rax
	assert(va_is_mapped(diskaddr(1)));
  8008d0:	bf 01 00 00 00       	mov    $0x1,%edi
  8008d5:	48 b8 dc 04 80 00 00 	movabs $0x8004dc,%rax
  8008dc:	00 00 00 
  8008df:	ff d0                	callq  *%rax
  8008e1:	48 89 c7             	mov    %rax,%rdi
  8008e4:	48 b8 5b 05 80 00 00 	movabs $0x80055b,%rax
  8008eb:	00 00 00 
  8008ee:	ff d0                	callq  *%rax
  8008f0:	83 f0 01             	xor    $0x1,%eax
  8008f3:	84 c0                	test   %al,%al
  8008f5:	74 35                	je     80092c <check_bc+0xe3>
  8008f7:	48 b9 b8 6a 80 00 00 	movabs $0x806ab8,%rcx
  8008fe:	00 00 00 
  800901:	48 ba d2 6a 80 00 00 	movabs $0x806ad2,%rdx
  800908:	00 00 00 
  80090b:	be 64 00 00 00       	mov    $0x64,%esi
  800910:	48 bf da 69 80 00 00 	movabs $0x8069da,%rdi
  800917:	00 00 00 
  80091a:	b8 00 00 00 00       	mov    $0x0,%eax
  80091f:	49 b8 40 2e 80 00 00 	movabs $0x802e40,%r8
  800926:	00 00 00 
  800929:	41 ff d0             	callq  *%r8
	assert(!va_is_dirty(diskaddr(1)));
  80092c:	bf 01 00 00 00       	mov    $0x1,%edi
  800931:	48 b8 dc 04 80 00 00 	movabs $0x8004dc,%rax
  800938:	00 00 00 
  80093b:	ff d0                	callq  *%rax
  80093d:	48 89 c7             	mov    %rax,%rdi
  800940:	48 b8 f5 05 80 00 00 	movabs $0x8005f5,%rax
  800947:	00 00 00 
  80094a:	ff d0                	callq  *%rax
  80094c:	84 c0                	test   %al,%al
  80094e:	74 35                	je     800985 <check_bc+0x13c>
  800950:	48 b9 e7 6a 80 00 00 	movabs $0x806ae7,%rcx
  800957:	00 00 00 
  80095a:	48 ba d2 6a 80 00 00 	movabs $0x806ad2,%rdx
  800961:	00 00 00 
  800964:	be 65 00 00 00       	mov    $0x65,%esi
  800969:	48 bf da 69 80 00 00 	movabs $0x8069da,%rdi
  800970:	00 00 00 
  800973:	b8 00 00 00 00       	mov    $0x0,%eax
  800978:	49 b8 40 2e 80 00 00 	movabs $0x802e40,%r8
  80097f:	00 00 00 
  800982:	41 ff d0             	callq  *%r8

	// clear it out
	sys_page_unmap(0, diskaddr(1));
  800985:	bf 01 00 00 00       	mov    $0x1,%edi
  80098a:	48 b8 dc 04 80 00 00 	movabs $0x8004dc,%rax
  800991:	00 00 00 
  800994:	ff d0                	callq  *%rax
  800996:	48 89 c6             	mov    %rax,%rsi
  800999:	bf 00 00 00 00       	mov    $0x0,%edi
  80099e:	48 b8 2f 46 80 00 00 	movabs $0x80462f,%rax
  8009a5:	00 00 00 
  8009a8:	ff d0                	callq  *%rax
	assert(!va_is_mapped(diskaddr(1)));
  8009aa:	bf 01 00 00 00       	mov    $0x1,%edi
  8009af:	48 b8 dc 04 80 00 00 	movabs $0x8004dc,%rax
  8009b6:	00 00 00 
  8009b9:	ff d0                	callq  *%rax
  8009bb:	48 89 c7             	mov    %rax,%rdi
  8009be:	48 b8 5b 05 80 00 00 	movabs $0x80055b,%rax
  8009c5:	00 00 00 
  8009c8:	ff d0                	callq  *%rax
  8009ca:	84 c0                	test   %al,%al
  8009cc:	74 35                	je     800a03 <check_bc+0x1ba>
  8009ce:	48 b9 01 6b 80 00 00 	movabs $0x806b01,%rcx
  8009d5:	00 00 00 
  8009d8:	48 ba d2 6a 80 00 00 	movabs $0x806ad2,%rdx
  8009df:	00 00 00 
  8009e2:	be 69 00 00 00       	mov    $0x69,%esi
  8009e7:	48 bf da 69 80 00 00 	movabs $0x8069da,%rdi
  8009ee:	00 00 00 
  8009f1:	b8 00 00 00 00       	mov    $0x0,%eax
  8009f6:	49 b8 40 2e 80 00 00 	movabs $0x802e40,%r8
  8009fd:	00 00 00 
  800a00:	41 ff d0             	callq  *%r8

	// read it back in
	assert(strcmp(diskaddr(1), "OOPS!\n") == 0);
  800a03:	bf 01 00 00 00       	mov    $0x1,%edi
  800a08:	48 b8 dc 04 80 00 00 	movabs $0x8004dc,%rax
  800a0f:	00 00 00 
  800a12:	ff d0                	callq  *%rax
  800a14:	48 be b1 6a 80 00 00 	movabs $0x806ab1,%rsi
  800a1b:	00 00 00 
  800a1e:	48 89 c7             	mov    %rax,%rdi
  800a21:	48 b8 a7 3d 80 00 00 	movabs $0x803da7,%rax
  800a28:	00 00 00 
  800a2b:	ff d0                	callq  *%rax
  800a2d:	85 c0                	test   %eax,%eax
  800a2f:	74 35                	je     800a66 <check_bc+0x21d>
  800a31:	48 b9 20 6b 80 00 00 	movabs $0x806b20,%rcx
  800a38:	00 00 00 
  800a3b:	48 ba d2 6a 80 00 00 	movabs $0x806ad2,%rdx
  800a42:	00 00 00 
  800a45:	be 6c 00 00 00       	mov    $0x6c,%esi
  800a4a:	48 bf da 69 80 00 00 	movabs $0x8069da,%rdi
  800a51:	00 00 00 
  800a54:	b8 00 00 00 00       	mov    $0x0,%eax
  800a59:	49 b8 40 2e 80 00 00 	movabs $0x802e40,%r8
  800a60:	00 00 00 
  800a63:	41 ff d0             	callq  *%r8

	// fix it
	memmove(diskaddr(1), &backup, sizeof backup);
  800a66:	bf 01 00 00 00       	mov    $0x1,%edi
  800a6b:	48 b8 dc 04 80 00 00 	movabs $0x8004dc,%rax
  800a72:	00 00 00 
  800a75:	ff d0                	callq  *%rax
  800a77:	48 8d 8d f0 fe ff ff 	lea    -0x110(%rbp),%rcx
  800a7e:	ba 08 01 00 00       	mov    $0x108,%edx
  800a83:	48 89 ce             	mov    %rcx,%rsi
  800a86:	48 89 c7             	mov    %rax,%rdi
  800a89:	48 b8 6e 3f 80 00 00 	movabs $0x803f6e,%rax
  800a90:	00 00 00 
  800a93:	ff d0                	callq  *%rax
	flush_block(diskaddr(1));
  800a95:	bf 01 00 00 00       	mov    $0x1,%edi
  800a9a:	48 b8 dc 04 80 00 00 	movabs $0x8004dc,%rax
  800aa1:	00 00 00 
  800aa4:	ff d0                	callq  *%rax
  800aa6:	48 89 c7             	mov    %rax,%rdi
  800aa9:	48 b8 e2 07 80 00 00 	movabs $0x8007e2,%rax
  800ab0:	00 00 00 
  800ab3:	ff d0                	callq  *%rax

	cprintf("block cache is good\n");
  800ab5:	48 bf 44 6b 80 00 00 	movabs $0x806b44,%rdi
  800abc:	00 00 00 
  800abf:	b8 00 00 00 00       	mov    $0x0,%eax
  800ac4:	48 ba 7b 30 80 00 00 	movabs $0x80307b,%rdx
  800acb:	00 00 00 
  800ace:	ff d2                	callq  *%rdx
}
  800ad0:	c9                   	leaveq 
  800ad1:	c3                   	retq   

0000000000800ad2 <bc_init>:

void
bc_init(void)
{
  800ad2:	55                   	push   %rbp
  800ad3:	48 89 e5             	mov    %rsp,%rbp
  800ad6:	48 81 ec 10 01 00 00 	sub    $0x110,%rsp
	struct Super super;
	set_pgfault_handler(bc_pgfault);
  800add:	48 bf 25 06 80 00 00 	movabs $0x800625,%rdi
  800ae4:	00 00 00 
  800ae7:	48 b8 d4 48 80 00 00 	movabs $0x8048d4,%rax
  800aee:	00 00 00 
  800af1:	ff d0                	callq  *%rax

	// cache the super block by reading it once
	memmove(&super, diskaddr(1), sizeof super);
  800af3:	bf 01 00 00 00       	mov    $0x1,%edi
  800af8:	48 b8 dc 04 80 00 00 	movabs $0x8004dc,%rax
  800aff:	00 00 00 
  800b02:	ff d0                	callq  *%rax
  800b04:	48 89 c1             	mov    %rax,%rcx
  800b07:	48 8d 85 f0 fe ff ff 	lea    -0x110(%rbp),%rax
  800b0e:	ba 08 01 00 00       	mov    $0x108,%edx
  800b13:	48 89 ce             	mov    %rcx,%rsi
  800b16:	48 89 c7             	mov    %rax,%rdi
  800b19:	48 b8 6e 3f 80 00 00 	movabs $0x803f6e,%rax
  800b20:	00 00 00 
  800b23:	ff d0                	callq  *%rax
}
  800b25:	c9                   	leaveq 
  800b26:	c3                   	retq   
	...

0000000000800b28 <check_super>:
// --------------------------------------------------------------

// Validate the file system super-block.
void
check_super(void)
{
  800b28:	55                   	push   %rbp
  800b29:	48 89 e5             	mov    %rsp,%rbp
	if (super->s_magic != FS_MAGIC)
  800b2c:	48 b8 10 20 81 00 00 	movabs $0x812010,%rax
  800b33:	00 00 00 
  800b36:	48 8b 00             	mov    (%rax),%rax
  800b39:	8b 00                	mov    (%rax),%eax
  800b3b:	3d ae 30 05 4a       	cmp    $0x4a0530ae,%eax
  800b40:	74 2a                	je     800b6c <check_super+0x44>
		panic("bad file system magic number");
  800b42:	48 ba 59 6b 80 00 00 	movabs $0x806b59,%rdx
  800b49:	00 00 00 
  800b4c:	be 0e 00 00 00       	mov    $0xe,%esi
  800b51:	48 bf 76 6b 80 00 00 	movabs $0x806b76,%rdi
  800b58:	00 00 00 
  800b5b:	b8 00 00 00 00       	mov    $0x0,%eax
  800b60:	48 b9 40 2e 80 00 00 	movabs $0x802e40,%rcx
  800b67:	00 00 00 
  800b6a:	ff d1                	callq  *%rcx

	if (super->s_nblocks > DISKSIZE/BLKSIZE)
  800b6c:	48 b8 10 20 81 00 00 	movabs $0x812010,%rax
  800b73:	00 00 00 
  800b76:	48 8b 00             	mov    (%rax),%rax
  800b79:	8b 40 04             	mov    0x4(%rax),%eax
  800b7c:	3d 00 00 0c 00       	cmp    $0xc0000,%eax
  800b81:	76 2a                	jbe    800bad <check_super+0x85>
		panic("file system is too large");
  800b83:	48 ba 7e 6b 80 00 00 	movabs $0x806b7e,%rdx
  800b8a:	00 00 00 
  800b8d:	be 11 00 00 00       	mov    $0x11,%esi
  800b92:	48 bf 76 6b 80 00 00 	movabs $0x806b76,%rdi
  800b99:	00 00 00 
  800b9c:	b8 00 00 00 00       	mov    $0x0,%eax
  800ba1:	48 b9 40 2e 80 00 00 	movabs $0x802e40,%rcx
  800ba8:	00 00 00 
  800bab:	ff d1                	callq  *%rcx

	cprintf("superblock is good\n");
  800bad:	48 bf 97 6b 80 00 00 	movabs $0x806b97,%rdi
  800bb4:	00 00 00 
  800bb7:	b8 00 00 00 00       	mov    $0x0,%eax
  800bbc:	48 ba 7b 30 80 00 00 	movabs $0x80307b,%rdx
  800bc3:	00 00 00 
  800bc6:	ff d2                	callq  *%rdx
}
  800bc8:	5d                   	pop    %rbp
  800bc9:	c3                   	retq   

0000000000800bca <block_is_free>:

// Check to see if the block bitmap indicates that block 'blockno' is free.
// Return 1 if the block is free, 0 if not.
bool
block_is_free(uint32_t blockno)
{
  800bca:	55                   	push   %rbp
  800bcb:	48 89 e5             	mov    %rsp,%rbp
  800bce:	53                   	push   %rbx
  800bcf:	48 83 ec 08          	sub    $0x8,%rsp
  800bd3:	89 7d f4             	mov    %edi,-0xc(%rbp)
	if (super == 0 || blockno >= super->s_nblocks)
  800bd6:	48 b8 10 20 81 00 00 	movabs $0x812010,%rax
  800bdd:	00 00 00 
  800be0:	48 8b 00             	mov    (%rax),%rax
  800be3:	48 85 c0             	test   %rax,%rax
  800be6:	74 15                	je     800bfd <block_is_free+0x33>
  800be8:	48 b8 10 20 81 00 00 	movabs $0x812010,%rax
  800bef:	00 00 00 
  800bf2:	48 8b 00             	mov    (%rax),%rax
  800bf5:	8b 40 04             	mov    0x4(%rax),%eax
  800bf8:	3b 45 f4             	cmp    -0xc(%rbp),%eax
  800bfb:	77 07                	ja     800c04 <block_is_free+0x3a>
		return 0;
  800bfd:	b8 00 00 00 00       	mov    $0x0,%eax
  800c02:	eb 43                	jmp    800c47 <block_is_free+0x7d>
	if (bitmap[blockno / 32] & (1 << (blockno % 32)))
  800c04:	48 b8 08 20 81 00 00 	movabs $0x812008,%rax
  800c0b:	00 00 00 
  800c0e:	48 8b 00             	mov    (%rax),%rax
  800c11:	8b 55 f4             	mov    -0xc(%rbp),%edx
  800c14:	c1 ea 05             	shr    $0x5,%edx
  800c17:	89 d2                	mov    %edx,%edx
  800c19:	48 c1 e2 02          	shl    $0x2,%rdx
  800c1d:	48 01 d0             	add    %rdx,%rax
  800c20:	8b 10                	mov    (%rax),%edx
  800c22:	8b 45 f4             	mov    -0xc(%rbp),%eax
  800c25:	83 e0 1f             	and    $0x1f,%eax
  800c28:	be 01 00 00 00       	mov    $0x1,%esi
  800c2d:	89 f3                	mov    %esi,%ebx
  800c2f:	89 c1                	mov    %eax,%ecx
  800c31:	d3 e3                	shl    %cl,%ebx
  800c33:	89 d8                	mov    %ebx,%eax
  800c35:	21 d0                	and    %edx,%eax
  800c37:	85 c0                	test   %eax,%eax
  800c39:	74 07                	je     800c42 <block_is_free+0x78>
		return 1;
  800c3b:	b8 01 00 00 00       	mov    $0x1,%eax
  800c40:	eb 05                	jmp    800c47 <block_is_free+0x7d>
	return 0;
  800c42:	b8 00 00 00 00       	mov    $0x0,%eax
}
  800c47:	48 83 c4 08          	add    $0x8,%rsp
  800c4b:	5b                   	pop    %rbx
  800c4c:	5d                   	pop    %rbp
  800c4d:	c3                   	retq   

0000000000800c4e <free_block>:

// Mark a block free in the bitmap
void
free_block(uint32_t blockno)
{
  800c4e:	55                   	push   %rbp
  800c4f:	48 89 e5             	mov    %rsp,%rbp
  800c52:	53                   	push   %rbx
  800c53:	48 83 ec 18          	sub    $0x18,%rsp
  800c57:	89 7d ec             	mov    %edi,-0x14(%rbp)
	// Blockno zero is the null pointer of block numbers.
	if (blockno == 0)
  800c5a:	83 7d ec 00          	cmpl   $0x0,-0x14(%rbp)
  800c5e:	75 2a                	jne    800c8a <free_block+0x3c>
		panic("attempt to free zero block");
  800c60:	48 ba ab 6b 80 00 00 	movabs $0x806bab,%rdx
  800c67:	00 00 00 
  800c6a:	be 2c 00 00 00       	mov    $0x2c,%esi
  800c6f:	48 bf 76 6b 80 00 00 	movabs $0x806b76,%rdi
  800c76:	00 00 00 
  800c79:	b8 00 00 00 00       	mov    $0x0,%eax
  800c7e:	48 b9 40 2e 80 00 00 	movabs $0x802e40,%rcx
  800c85:	00 00 00 
  800c88:	ff d1                	callq  *%rcx
	bitmap[blockno/32] |= 1<<(blockno%32);
  800c8a:	48 b8 08 20 81 00 00 	movabs $0x812008,%rax
  800c91:	00 00 00 
  800c94:	48 8b 10             	mov    (%rax),%rdx
  800c97:	8b 45 ec             	mov    -0x14(%rbp),%eax
  800c9a:	c1 e8 05             	shr    $0x5,%eax
  800c9d:	89 c1                	mov    %eax,%ecx
  800c9f:	48 c1 e1 02          	shl    $0x2,%rcx
  800ca3:	48 8d 34 0a          	lea    (%rdx,%rcx,1),%rsi
  800ca7:	48 ba 08 20 81 00 00 	movabs $0x812008,%rdx
  800cae:	00 00 00 
  800cb1:	48 8b 12             	mov    (%rdx),%rdx
  800cb4:	89 c0                	mov    %eax,%eax
  800cb6:	48 c1 e0 02          	shl    $0x2,%rax
  800cba:	48 01 d0             	add    %rdx,%rax
  800cbd:	8b 10                	mov    (%rax),%edx
  800cbf:	8b 45 ec             	mov    -0x14(%rbp),%eax
  800cc2:	83 e0 1f             	and    $0x1f,%eax
  800cc5:	bf 01 00 00 00       	mov    $0x1,%edi
  800cca:	89 fb                	mov    %edi,%ebx
  800ccc:	89 c1                	mov    %eax,%ecx
  800cce:	d3 e3                	shl    %cl,%ebx
  800cd0:	89 d8                	mov    %ebx,%eax
  800cd2:	09 d0                	or     %edx,%eax
  800cd4:	89 06                	mov    %eax,(%rsi)
}
  800cd6:	48 83 c4 18          	add    $0x18,%rsp
  800cda:	5b                   	pop    %rbx
  800cdb:	5d                   	pop    %rbp
  800cdc:	c3                   	retq   

0000000000800cdd <alloc_block>:
// -E_NO_DISK if we are out of blocks.
//
// Hint: use free_block as an example for manipulating the bitmap.
int
alloc_block(void)
{
  800cdd:	55                   	push   %rbp
  800cde:	48 89 e5             	mov    %rsp,%rbp
	// The bitmap consists of one or more blocks.  A single bitmap block
	// contains the in-use bits for BLKBITSIZE blocks.  There are
	// super->s_nblocks blocks in the disk altogether.

	// LAB 5: Your code here.
	panic("alloc_block not implemented");
  800ce1:	48 ba c6 6b 80 00 00 	movabs $0x806bc6,%rdx
  800ce8:	00 00 00 
  800ceb:	be 40 00 00 00       	mov    $0x40,%esi
  800cf0:	48 bf 76 6b 80 00 00 	movabs $0x806b76,%rdi
  800cf7:	00 00 00 
  800cfa:	b8 00 00 00 00       	mov    $0x0,%eax
  800cff:	48 b9 40 2e 80 00 00 	movabs $0x802e40,%rcx
  800d06:	00 00 00 
  800d09:	ff d1                	callq  *%rcx

0000000000800d0b <check_bitmap>:
//
// Check that all reserved blocks -- 0, 1, and the bitmap blocks themselves --
// are all marked as in-use.
void
check_bitmap(void)
{
  800d0b:	55                   	push   %rbp
  800d0c:	48 89 e5             	mov    %rsp,%rbp
  800d0f:	48 83 ec 10          	sub    $0x10,%rsp
	uint32_t i;

	// Make sure all bitmap blocks are marked in-use
	for (i = 0; i * BLKBITSIZE < super->s_nblocks; i++)
  800d13:	c7 45 fc 00 00 00 00 	movl   $0x0,-0x4(%rbp)
  800d1a:	eb 51                	jmp    800d6d <check_bitmap+0x62>
		assert(!block_is_free(2+i));
  800d1c:	8b 45 fc             	mov    -0x4(%rbp),%eax
  800d1f:	83 c0 02             	add    $0x2,%eax
  800d22:	89 c7                	mov    %eax,%edi
  800d24:	48 b8 ca 0b 80 00 00 	movabs $0x800bca,%rax
  800d2b:	00 00 00 
  800d2e:	ff d0                	callq  *%rax
  800d30:	84 c0                	test   %al,%al
  800d32:	74 35                	je     800d69 <check_bitmap+0x5e>
  800d34:	48 b9 e2 6b 80 00 00 	movabs $0x806be2,%rcx
  800d3b:	00 00 00 
  800d3e:	48 ba f6 6b 80 00 00 	movabs $0x806bf6,%rdx
  800d45:	00 00 00 
  800d48:	be 4f 00 00 00       	mov    $0x4f,%esi
  800d4d:	48 bf 76 6b 80 00 00 	movabs $0x806b76,%rdi
  800d54:	00 00 00 
  800d57:	b8 00 00 00 00       	mov    $0x0,%eax
  800d5c:	49 b8 40 2e 80 00 00 	movabs $0x802e40,%r8
  800d63:	00 00 00 
  800d66:	41 ff d0             	callq  *%r8
check_bitmap(void)
{
	uint32_t i;

	// Make sure all bitmap blocks are marked in-use
	for (i = 0; i * BLKBITSIZE < super->s_nblocks; i++)
  800d69:	83 45 fc 01          	addl   $0x1,-0x4(%rbp)
  800d6d:	8b 45 fc             	mov    -0x4(%rbp),%eax
  800d70:	89 c2                	mov    %eax,%edx
  800d72:	c1 e2 0f             	shl    $0xf,%edx
  800d75:	48 b8 10 20 81 00 00 	movabs $0x812010,%rax
  800d7c:	00 00 00 
  800d7f:	48 8b 00             	mov    (%rax),%rax
  800d82:	8b 40 04             	mov    0x4(%rax),%eax
  800d85:	39 c2                	cmp    %eax,%edx
  800d87:	72 93                	jb     800d1c <check_bitmap+0x11>
		assert(!block_is_free(2+i));

	// Make sure the reserved and root blocks are marked in-use.
	assert(!block_is_free(0));
  800d89:	bf 00 00 00 00       	mov    $0x0,%edi
  800d8e:	48 b8 ca 0b 80 00 00 	movabs $0x800bca,%rax
  800d95:	00 00 00 
  800d98:	ff d0                	callq  *%rax
  800d9a:	84 c0                	test   %al,%al
  800d9c:	74 35                	je     800dd3 <check_bitmap+0xc8>
  800d9e:	48 b9 0b 6c 80 00 00 	movabs $0x806c0b,%rcx
  800da5:	00 00 00 
  800da8:	48 ba f6 6b 80 00 00 	movabs $0x806bf6,%rdx
  800daf:	00 00 00 
  800db2:	be 52 00 00 00       	mov    $0x52,%esi
  800db7:	48 bf 76 6b 80 00 00 	movabs $0x806b76,%rdi
  800dbe:	00 00 00 
  800dc1:	b8 00 00 00 00       	mov    $0x0,%eax
  800dc6:	49 b8 40 2e 80 00 00 	movabs $0x802e40,%r8
  800dcd:	00 00 00 
  800dd0:	41 ff d0             	callq  *%r8
	assert(!block_is_free(1));
  800dd3:	bf 01 00 00 00       	mov    $0x1,%edi
  800dd8:	48 b8 ca 0b 80 00 00 	movabs $0x800bca,%rax
  800ddf:	00 00 00 
  800de2:	ff d0                	callq  *%rax
  800de4:	84 c0                	test   %al,%al
  800de6:	74 35                	je     800e1d <check_bitmap+0x112>
  800de8:	48 b9 1d 6c 80 00 00 	movabs $0x806c1d,%rcx
  800def:	00 00 00 
  800df2:	48 ba f6 6b 80 00 00 	movabs $0x806bf6,%rdx
  800df9:	00 00 00 
  800dfc:	be 53 00 00 00       	mov    $0x53,%esi
  800e01:	48 bf 76 6b 80 00 00 	movabs $0x806b76,%rdi
  800e08:	00 00 00 
  800e0b:	b8 00 00 00 00       	mov    $0x0,%eax
  800e10:	49 b8 40 2e 80 00 00 	movabs $0x802e40,%r8
  800e17:	00 00 00 
  800e1a:	41 ff d0             	callq  *%r8

	cprintf("bitmap is good\n");
  800e1d:	48 bf 2f 6c 80 00 00 	movabs $0x806c2f,%rdi
  800e24:	00 00 00 
  800e27:	b8 00 00 00 00       	mov    $0x0,%eax
  800e2c:	48 ba 7b 30 80 00 00 	movabs $0x80307b,%rdx
  800e33:	00 00 00 
  800e36:	ff d2                	callq  *%rdx
}
  800e38:	c9                   	leaveq 
  800e39:	c3                   	retq   

0000000000800e3a <fs_init>:
// --------------------------------------------------------------

// Initialize the file system
void
fs_init(void)
{
  800e3a:	55                   	push   %rbp
  800e3b:	48 89 e5             	mov    %rsp,%rbp
	static_assert(sizeof(struct File) == 256);

#ifndef VMM_GUEST
	// Find a JOS disk.  Use the second IDE disk (number 1) if available.
	if (ide_probe_disk1())
  800e3e:	48 b8 a2 00 80 00 00 	movabs $0x8000a2,%rax
  800e45:	00 00 00 
  800e48:	ff d0                	callq  *%rax
  800e4a:	84 c0                	test   %al,%al
  800e4c:	74 13                	je     800e61 <fs_init+0x27>
		ide_set_disk(1);
  800e4e:	bf 01 00 00 00       	mov    $0x1,%edi
  800e53:	48 b8 5f 01 80 00 00 	movabs $0x80015f,%rax
  800e5a:	00 00 00 
  800e5d:	ff d0                	callq  *%rax
  800e5f:	eb 11                	jmp    800e72 <fs_init+0x38>
	else
		ide_set_disk(0);
  800e61:	bf 00 00 00 00       	mov    $0x0,%edi
  800e66:	48 b8 5f 01 80 00 00 	movabs $0x80015f,%rax
  800e6d:	00 00 00 
  800e70:	ff d0                	callq  *%rax
#else
	host_ipc_init();
#endif
	bc_init();
  800e72:	48 b8 d2 0a 80 00 00 	movabs $0x800ad2,%rax
  800e79:	00 00 00 
  800e7c:	ff d0                	callq  *%rax

	// Set "super" to point to the super block.
	super = diskaddr(1);
  800e7e:	bf 01 00 00 00       	mov    $0x1,%edi
  800e83:	48 b8 dc 04 80 00 00 	movabs $0x8004dc,%rax
  800e8a:	00 00 00 
  800e8d:	ff d0                	callq  *%rax
  800e8f:	48 ba 10 20 81 00 00 	movabs $0x812010,%rdx
  800e96:	00 00 00 
  800e99:	48 89 02             	mov    %rax,(%rdx)
	check_super();
  800e9c:	48 b8 28 0b 80 00 00 	movabs $0x800b28,%rax
  800ea3:	00 00 00 
  800ea6:	ff d0                	callq  *%rax

	// Set "bitmap" to the beginning of the first bitmap block.
	bitmap = diskaddr(2);
  800ea8:	bf 02 00 00 00       	mov    $0x2,%edi
  800ead:	48 b8 dc 04 80 00 00 	movabs $0x8004dc,%rax
  800eb4:	00 00 00 
  800eb7:	ff d0                	callq  *%rax
  800eb9:	48 ba 08 20 81 00 00 	movabs $0x812008,%rdx
  800ec0:	00 00 00 
  800ec3:	48 89 02             	mov    %rax,(%rdx)
	check_bitmap();
  800ec6:	48 b8 0b 0d 80 00 00 	movabs $0x800d0b,%rax
  800ecd:	00 00 00 
  800ed0:	ff d0                	callq  *%rax
}
  800ed2:	5d                   	pop    %rbp
  800ed3:	c3                   	retq   

0000000000800ed4 <file_block_walk>:
// Analogy: This is like pgdir_walk for files.
// Hint: Don't forget to clear any block you allocate.

static int
file_block_walk(struct File *f, uint32_t filebno, uint32_t **ppdiskbno, bool alloc)
{
  800ed4:	55                   	push   %rbp
  800ed5:	48 89 e5             	mov    %rsp,%rbp
  800ed8:	48 83 ec 30          	sub    $0x30,%rsp
  800edc:	48 89 7d e8          	mov    %rdi,-0x18(%rbp)
  800ee0:	89 75 e4             	mov    %esi,-0x1c(%rbp)
  800ee3:	48 89 55 d8          	mov    %rdx,-0x28(%rbp)
  800ee7:	89 c8                	mov    %ecx,%eax
  800ee9:	88 45 e0             	mov    %al,-0x20(%rbp)
	if (filebno >= NDIRECT + NINDIRECT) {
  800eec:	81 7d e4 09 04 00 00 	cmpl   $0x409,-0x1c(%rbp)
  800ef3:	76 0a                	jbe    800eff <file_block_walk+0x2b>
		return -E_INVAL;
  800ef5:	b8 fd ff ff ff       	mov    $0xfffffffd,%eax
  800efa:	e9 a6 00 00 00       	jmpq   800fa5 <file_block_walk+0xd1>
	}
	uint32_t nblock = f->f_size / BLKSIZE;
  800eff:	48 8b 45 e8          	mov    -0x18(%rbp),%rax
  800f03:	8b 80 80 00 00 00    	mov    0x80(%rax),%eax
  800f09:	8d 90 ff 0f 00 00    	lea    0xfff(%rax),%edx
  800f0f:	85 c0                	test   %eax,%eax
  800f11:	0f 48 c2             	cmovs  %edx,%eax
  800f14:	c1 f8 0c             	sar    $0xc,%eax
  800f17:	89 45 fc             	mov    %eax,-0x4(%rbp)
	if (filebno > nblock) {
  800f1a:	8b 45 e4             	mov    -0x1c(%rbp),%eax
  800f1d:	3b 45 fc             	cmp    -0x4(%rbp),%eax
  800f20:	76 07                	jbe    800f29 <file_block_walk+0x55>
		return -E_NOT_FOUND;
  800f22:	b8 f4 ff ff ff       	mov    $0xfffffff4,%eax
  800f27:	eb 7c                	jmp    800fa5 <file_block_walk+0xd1>
	}
	if (filebno < NDIRECT) {
  800f29:	83 7d e4 09          	cmpl   $0x9,-0x1c(%rbp)
  800f2d:	77 23                	ja     800f52 <file_block_walk+0x7e>
		*ppdiskbno = &f->f_direct[filebno];
  800f2f:	48 8b 45 e8          	mov    -0x18(%rbp),%rax
  800f33:	48 8d 90 88 00 00 00 	lea    0x88(%rax),%rdx
  800f3a:	8b 45 e4             	mov    -0x1c(%rbp),%eax
  800f3d:	48 c1 e0 02          	shl    $0x2,%rax
  800f41:	48 01 c2             	add    %rax,%rdx
  800f44:	48 8b 45 d8          	mov    -0x28(%rbp),%rax
  800f48:	48 89 10             	mov    %rdx,(%rax)
		return 0;
  800f4b:	b8 00 00 00 00       	mov    $0x0,%eax
  800f50:	eb 53                	jmp    800fa5 <file_block_walk+0xd1>
	}
	else {
		if(!f->f_indirect) {
  800f52:	48 8b 45 e8          	mov    -0x18(%rbp),%rax
  800f56:	8b 80 b0 00 00 00    	mov    0xb0(%rax),%eax
  800f5c:	85 c0                	test   %eax,%eax
  800f5e:	75 07                	jne    800f67 <file_block_walk+0x93>
			return -E_NOT_FOUND;
  800f60:	b8 f4 ff ff ff       	mov    $0xfffffff4,%eax
  800f65:	eb 3e                	jmp    800fa5 <file_block_walk+0xd1>
		}
		uint32_t* index = (uint32_t*)diskaddr(f->f_indirect);
  800f67:	48 8b 45 e8          	mov    -0x18(%rbp),%rax
  800f6b:	8b 80 b0 00 00 00    	mov    0xb0(%rax),%eax
  800f71:	89 c0                	mov    %eax,%eax
  800f73:	48 89 c7             	mov    %rax,%rdi
  800f76:	48 b8 dc 04 80 00 00 	movabs $0x8004dc,%rax
  800f7d:	00 00 00 
  800f80:	ff d0                	callq  *%rax
  800f82:	48 89 45 f0          	mov    %rax,-0x10(%rbp)
		*ppdiskbno = &index[filebno - NDIRECT] ;
  800f86:	8b 45 e4             	mov    -0x1c(%rbp),%eax
  800f89:	83 e8 0a             	sub    $0xa,%eax
  800f8c:	89 c0                	mov    %eax,%eax
  800f8e:	48 c1 e0 02          	shl    $0x2,%rax
  800f92:	48 89 c2             	mov    %rax,%rdx
  800f95:	48 03 55 f0          	add    -0x10(%rbp),%rdx
  800f99:	48 8b 45 d8          	mov    -0x28(%rbp),%rax
  800f9d:	48 89 10             	mov    %rdx,(%rax)
	}
	return 0;
  800fa0:	b8 00 00 00 00       	mov    $0x0,%eax
    // LAB 5: Your code here.
	// panic("file_block_walk not implemented");
}
  800fa5:	c9                   	leaveq 
  800fa6:	c3                   	retq   

0000000000800fa7 <file_get_block>:
//	-E_NO_DISK if a block needed to be allocated but the disk is full.
//	-E_INVAL if filebno is out of range.
//
int
file_get_block(struct File *f, uint32_t filebno, char **blk)
{
  800fa7:	55                   	push   %rbp
  800fa8:	48 89 e5             	mov    %rsp,%rbp
  800fab:	48 83 ec 30          	sub    $0x30,%rsp
  800faf:	48 89 7d e8          	mov    %rdi,-0x18(%rbp)
  800fb3:	89 75 e4             	mov    %esi,-0x1c(%rbp)
  800fb6:	48 89 55 d8          	mov    %rdx,-0x28(%rbp)
	if (filebno >= NDIRECT + NINDIRECT) {
  800fba:	81 7d e4 09 04 00 00 	cmpl   $0x409,-0x1c(%rbp)
  800fc1:	76 07                	jbe    800fca <file_get_block+0x23>
		return -E_INVAL;
  800fc3:	b8 fd ff ff ff       	mov    $0xfffffffd,%eax
  800fc8:	eb 61                	jmp    80102b <file_get_block+0x84>
	}
	uint32_t *ppdiskbno;
	int r = file_block_walk(f, filebno, &ppdiskbno, false);
  800fca:	48 8d 55 f0          	lea    -0x10(%rbp),%rdx
  800fce:	8b 75 e4             	mov    -0x1c(%rbp),%esi
  800fd1:	48 8b 45 e8          	mov    -0x18(%rbp),%rax
  800fd5:	b9 00 00 00 00       	mov    $0x0,%ecx
  800fda:	48 89 c7             	mov    %rax,%rdi
  800fdd:	48 b8 d4 0e 80 00 00 	movabs $0x800ed4,%rax
  800fe4:	00 00 00 
  800fe7:	ff d0                	callq  *%rax
  800fe9:	89 45 fc             	mov    %eax,-0x4(%rbp)
	if (r < 0)
  800fec:	83 7d fc 00          	cmpl   $0x0,-0x4(%rbp)
  800ff0:	79 05                	jns    800ff7 <file_get_block+0x50>
		return r;
  800ff2:	8b 45 fc             	mov    -0x4(%rbp),%eax
  800ff5:	eb 34                	jmp    80102b <file_get_block+0x84>
    if (!*ppdiskbno)
  800ff7:	48 8b 45 f0          	mov    -0x10(%rbp),%rax
  800ffb:	8b 00                	mov    (%rax),%eax
  800ffd:	85 c0                	test   %eax,%eax
  800fff:	75 07                	jne    801008 <file_get_block+0x61>
        return -E_NO_DISK;
  801001:	b8 f6 ff ff ff       	mov    $0xfffffff6,%eax
  801006:	eb 23                	jmp    80102b <file_get_block+0x84>
	*blk = (char*)diskaddr(*ppdiskbno);
  801008:	48 8b 45 f0          	mov    -0x10(%rbp),%rax
  80100c:	8b 00                	mov    (%rax),%eax
  80100e:	89 c0                	mov    %eax,%eax
  801010:	48 89 c7             	mov    %rax,%rdi
  801013:	48 b8 dc 04 80 00 00 	movabs $0x8004dc,%rax
  80101a:	00 00 00 
  80101d:	ff d0                	callq  *%rax
  80101f:	48 8b 55 d8          	mov    -0x28(%rbp),%rdx
  801023:	48 89 02             	mov    %rax,(%rdx)
	return 0;
  801026:	b8 00 00 00 00       	mov    $0x0,%eax
	// LAB 5: Your code here.
	//panic("file_block_walk not implemented");
}
  80102b:	c9                   	leaveq 
  80102c:	c3                   	retq   

000000000080102d <dir_lookup>:
//
// Returns 0 and sets *file on success, < 0 on error.  Errors are:
//	-E_NOT_FOUND if the file is not found
static int
dir_lookup(struct File *dir, const char *name, struct File **file)
{
  80102d:	55                   	push   %rbp
  80102e:	48 89 e5             	mov    %rsp,%rbp
  801031:	48 83 ec 40          	sub    $0x40,%rsp
  801035:	48 89 7d d8          	mov    %rdi,-0x28(%rbp)
  801039:	48 89 75 d0          	mov    %rsi,-0x30(%rbp)
  80103d:	48 89 55 c8          	mov    %rdx,-0x38(%rbp)
	struct File *f;

	// Search dir for name.
	// We maintain the invariant that the size of a directory-file
	// is always a multiple of the file system's block size.
	assert((dir->f_size % BLKSIZE) == 0);
  801041:	48 8b 45 d8          	mov    -0x28(%rbp),%rax
  801045:	8b 80 80 00 00 00    	mov    0x80(%rax),%eax
  80104b:	25 ff 0f 00 00       	and    $0xfff,%eax
  801050:	85 c0                	test   %eax,%eax
  801052:	74 35                	je     801089 <dir_lookup+0x5c>
  801054:	48 b9 3f 6c 80 00 00 	movabs $0x806c3f,%rcx
  80105b:	00 00 00 
  80105e:	48 ba f6 6b 80 00 00 	movabs $0x806bf6,%rdx
  801065:	00 00 00 
  801068:	be cc 00 00 00       	mov    $0xcc,%esi
  80106d:	48 bf 76 6b 80 00 00 	movabs $0x806b76,%rdi
  801074:	00 00 00 
  801077:	b8 00 00 00 00       	mov    $0x0,%eax
  80107c:	49 b8 40 2e 80 00 00 	movabs $0x802e40,%r8
  801083:	00 00 00 
  801086:	41 ff d0             	callq  *%r8
	nblock = dir->f_size / BLKSIZE;
  801089:	48 8b 45 d8          	mov    -0x28(%rbp),%rax
  80108d:	8b 80 80 00 00 00    	mov    0x80(%rax),%eax
  801093:	8d 90 ff 0f 00 00    	lea    0xfff(%rax),%edx
  801099:	85 c0                	test   %eax,%eax
  80109b:	0f 48 c2             	cmovs  %edx,%eax
  80109e:	c1 f8 0c             	sar    $0xc,%eax
  8010a1:	89 45 f4             	mov    %eax,-0xc(%rbp)
	for (i = 0; i < nblock; i++) {
  8010a4:	c7 45 fc 00 00 00 00 	movl   $0x0,-0x4(%rbp)
  8010ab:	e9 8a 00 00 00       	jmpq   80113a <dir_lookup+0x10d>
		if ((r = file_get_block(dir, i, &blk)) < 0)
  8010b0:	48 8d 55 e0          	lea    -0x20(%rbp),%rdx
  8010b4:	8b 4d fc             	mov    -0x4(%rbp),%ecx
  8010b7:	48 8b 45 d8          	mov    -0x28(%rbp),%rax
  8010bb:	89 ce                	mov    %ecx,%esi
  8010bd:	48 89 c7             	mov    %rax,%rdi
  8010c0:	48 b8 a7 0f 80 00 00 	movabs $0x800fa7,%rax
  8010c7:	00 00 00 
  8010ca:	ff d0                	callq  *%rax
  8010cc:	89 45 f0             	mov    %eax,-0x10(%rbp)
  8010cf:	83 7d f0 00          	cmpl   $0x0,-0x10(%rbp)
  8010d3:	79 05                	jns    8010da <dir_lookup+0xad>
			return r;
  8010d5:	8b 45 f0             	mov    -0x10(%rbp),%eax
  8010d8:	eb 71                	jmp    80114b <dir_lookup+0x11e>
		f = (struct File*) blk;
  8010da:	48 8b 45 e0          	mov    -0x20(%rbp),%rax
  8010de:	48 89 45 e8          	mov    %rax,-0x18(%rbp)
		for (j = 0; j < BLKFILES; j++)
  8010e2:	c7 45 f8 00 00 00 00 	movl   $0x0,-0x8(%rbp)
  8010e9:	eb 45                	jmp    801130 <dir_lookup+0x103>
			if (strcmp(f[j].f_name, name) == 0) {
  8010eb:	8b 45 f8             	mov    -0x8(%rbp),%eax
  8010ee:	48 c1 e0 08          	shl    $0x8,%rax
  8010f2:	48 03 45 e8          	add    -0x18(%rbp),%rax
  8010f6:	48 8b 55 d0          	mov    -0x30(%rbp),%rdx
  8010fa:	48 89 d6             	mov    %rdx,%rsi
  8010fd:	48 89 c7             	mov    %rax,%rdi
  801100:	48 b8 a7 3d 80 00 00 	movabs $0x803da7,%rax
  801107:	00 00 00 
  80110a:	ff d0                	callq  *%rax
  80110c:	85 c0                	test   %eax,%eax
  80110e:	75 1c                	jne    80112c <dir_lookup+0xff>
				*file = &f[j];
  801110:	8b 45 f8             	mov    -0x8(%rbp),%eax
  801113:	48 c1 e0 08          	shl    $0x8,%rax
  801117:	48 89 c2             	mov    %rax,%rdx
  80111a:	48 03 55 e8          	add    -0x18(%rbp),%rdx
  80111e:	48 8b 45 c8          	mov    -0x38(%rbp),%rax
  801122:	48 89 10             	mov    %rdx,(%rax)
				return 0;
  801125:	b8 00 00 00 00       	mov    $0x0,%eax
  80112a:	eb 1f                	jmp    80114b <dir_lookup+0x11e>
	nblock = dir->f_size / BLKSIZE;
	for (i = 0; i < nblock; i++) {
		if ((r = file_get_block(dir, i, &blk)) < 0)
			return r;
		f = (struct File*) blk;
		for (j = 0; j < BLKFILES; j++)
  80112c:	83 45 f8 01          	addl   $0x1,-0x8(%rbp)
  801130:	83 7d f8 0f          	cmpl   $0xf,-0x8(%rbp)
  801134:	76 b5                	jbe    8010eb <dir_lookup+0xbe>
	// Search dir for name.
	// We maintain the invariant that the size of a directory-file
	// is always a multiple of the file system's block size.
	assert((dir->f_size % BLKSIZE) == 0);
	nblock = dir->f_size / BLKSIZE;
	for (i = 0; i < nblock; i++) {
  801136:	83 45 fc 01          	addl   $0x1,-0x4(%rbp)
  80113a:	8b 45 fc             	mov    -0x4(%rbp),%eax
  80113d:	3b 45 f4             	cmp    -0xc(%rbp),%eax
  801140:	0f 82 6a ff ff ff    	jb     8010b0 <dir_lookup+0x83>
			if (strcmp(f[j].f_name, name) == 0) {
				*file = &f[j];
				return 0;
			}
	}
	return -E_NOT_FOUND;
  801146:	b8 f4 ff ff ff       	mov    $0xfffffff4,%eax
}
  80114b:	c9                   	leaveq 
  80114c:	c3                   	retq   

000000000080114d <dir_alloc_file>:

// Set *file to point at a free File structure in dir.  The caller is
// responsible for filling in the File fields.
static int
dir_alloc_file(struct File *dir, struct File **file)
{
  80114d:	55                   	push   %rbp
  80114e:	48 89 e5             	mov    %rsp,%rbp
  801151:	48 83 ec 30          	sub    $0x30,%rsp
  801155:	48 89 7d d8          	mov    %rdi,-0x28(%rbp)
  801159:	48 89 75 d0          	mov    %rsi,-0x30(%rbp)
	int r;
	uint32_t nblock, i, j;
	char *blk;
	struct File *f;

	assert((dir->f_size % BLKSIZE) == 0);
  80115d:	48 8b 45 d8          	mov    -0x28(%rbp),%rax
  801161:	8b 80 80 00 00 00    	mov    0x80(%rax),%eax
  801167:	25 ff 0f 00 00       	and    $0xfff,%eax
  80116c:	85 c0                	test   %eax,%eax
  80116e:	74 35                	je     8011a5 <dir_alloc_file+0x58>
  801170:	48 b9 3f 6c 80 00 00 	movabs $0x806c3f,%rcx
  801177:	00 00 00 
  80117a:	48 ba f6 6b 80 00 00 	movabs $0x806bf6,%rdx
  801181:	00 00 00 
  801184:	be e5 00 00 00       	mov    $0xe5,%esi
  801189:	48 bf 76 6b 80 00 00 	movabs $0x806b76,%rdi
  801190:	00 00 00 
  801193:	b8 00 00 00 00       	mov    $0x0,%eax
  801198:	49 b8 40 2e 80 00 00 	movabs $0x802e40,%r8
  80119f:	00 00 00 
  8011a2:	41 ff d0             	callq  *%r8
	nblock = dir->f_size / BLKSIZE;
  8011a5:	48 8b 45 d8          	mov    -0x28(%rbp),%rax
  8011a9:	8b 80 80 00 00 00    	mov    0x80(%rax),%eax
  8011af:	8d 90 ff 0f 00 00    	lea    0xfff(%rax),%edx
  8011b5:	85 c0                	test   %eax,%eax
  8011b7:	0f 48 c2             	cmovs  %edx,%eax
  8011ba:	c1 f8 0c             	sar    $0xc,%eax
  8011bd:	89 45 f4             	mov    %eax,-0xc(%rbp)
	for (i = 0; i < nblock; i++) {
  8011c0:	c7 45 fc 00 00 00 00 	movl   $0x0,-0x4(%rbp)
  8011c7:	eb 7a                	jmp    801243 <dir_alloc_file+0xf6>
		if ((r = file_get_block(dir, i, &blk)) < 0)
  8011c9:	48 8d 55 e0          	lea    -0x20(%rbp),%rdx
  8011cd:	8b 4d fc             	mov    -0x4(%rbp),%ecx
  8011d0:	48 8b 45 d8          	mov    -0x28(%rbp),%rax
  8011d4:	89 ce                	mov    %ecx,%esi
  8011d6:	48 89 c7             	mov    %rax,%rdi
  8011d9:	48 b8 a7 0f 80 00 00 	movabs $0x800fa7,%rax
  8011e0:	00 00 00 
  8011e3:	ff d0                	callq  *%rax
  8011e5:	89 45 f0             	mov    %eax,-0x10(%rbp)
  8011e8:	83 7d f0 00          	cmpl   $0x0,-0x10(%rbp)
  8011ec:	79 08                	jns    8011f6 <dir_alloc_file+0xa9>
			return r;
  8011ee:	8b 45 f0             	mov    -0x10(%rbp),%eax
  8011f1:	e9 b5 00 00 00       	jmpq   8012ab <dir_alloc_file+0x15e>
		f = (struct File*) blk;
  8011f6:	48 8b 45 e0          	mov    -0x20(%rbp),%rax
  8011fa:	48 89 45 e8          	mov    %rax,-0x18(%rbp)
		for (j = 0; j < BLKFILES; j++)
  8011fe:	c7 45 f8 00 00 00 00 	movl   $0x0,-0x8(%rbp)
  801205:	eb 32                	jmp    801239 <dir_alloc_file+0xec>
			if (f[j].f_name[0] == '\0') {
  801207:	8b 45 f8             	mov    -0x8(%rbp),%eax
  80120a:	48 c1 e0 08          	shl    $0x8,%rax
  80120e:	48 03 45 e8          	add    -0x18(%rbp),%rax
  801212:	0f b6 00             	movzbl (%rax),%eax
  801215:	84 c0                	test   %al,%al
  801217:	75 1c                	jne    801235 <dir_alloc_file+0xe8>
				*file = &f[j];
  801219:	8b 45 f8             	mov    -0x8(%rbp),%eax
  80121c:	48 c1 e0 08          	shl    $0x8,%rax
  801220:	48 89 c2             	mov    %rax,%rdx
  801223:	48 03 55 e8          	add    -0x18(%rbp),%rdx
  801227:	48 8b 45 d0          	mov    -0x30(%rbp),%rax
  80122b:	48 89 10             	mov    %rdx,(%rax)
				return 0;
  80122e:	b8 00 00 00 00       	mov    $0x0,%eax
  801233:	eb 76                	jmp    8012ab <dir_alloc_file+0x15e>
	nblock = dir->f_size / BLKSIZE;
	for (i = 0; i < nblock; i++) {
		if ((r = file_get_block(dir, i, &blk)) < 0)
			return r;
		f = (struct File*) blk;
		for (j = 0; j < BLKFILES; j++)
  801235:	83 45 f8 01          	addl   $0x1,-0x8(%rbp)
  801239:	83 7d f8 0f          	cmpl   $0xf,-0x8(%rbp)
  80123d:	76 c8                	jbe    801207 <dir_alloc_file+0xba>
	char *blk;
	struct File *f;

	assert((dir->f_size % BLKSIZE) == 0);
	nblock = dir->f_size / BLKSIZE;
	for (i = 0; i < nblock; i++) {
  80123f:	83 45 fc 01          	addl   $0x1,-0x4(%rbp)
  801243:	8b 45 fc             	mov    -0x4(%rbp),%eax
  801246:	3b 45 f4             	cmp    -0xc(%rbp),%eax
  801249:	0f 82 7a ff ff ff    	jb     8011c9 <dir_alloc_file+0x7c>
			if (f[j].f_name[0] == '\0') {
				*file = &f[j];
				return 0;
			}
	}
	dir->f_size += BLKSIZE;
  80124f:	48 8b 45 d8          	mov    -0x28(%rbp),%rax
  801253:	8b 80 80 00 00 00    	mov    0x80(%rax),%eax
  801259:	8d 90 00 10 00 00    	lea    0x1000(%rax),%edx
  80125f:	48 8b 45 d8          	mov    -0x28(%rbp),%rax
  801263:	89 90 80 00 00 00    	mov    %edx,0x80(%rax)
	if ((r = file_get_block(dir, i, &blk)) < 0)
  801269:	48 8d 55 e0          	lea    -0x20(%rbp),%rdx
  80126d:	8b 4d fc             	mov    -0x4(%rbp),%ecx
  801270:	48 8b 45 d8          	mov    -0x28(%rbp),%rax
  801274:	89 ce                	mov    %ecx,%esi
  801276:	48 89 c7             	mov    %rax,%rdi
  801279:	48 b8 a7 0f 80 00 00 	movabs $0x800fa7,%rax
  801280:	00 00 00 
  801283:	ff d0                	callq  *%rax
  801285:	89 45 f0             	mov    %eax,-0x10(%rbp)
  801288:	83 7d f0 00          	cmpl   $0x0,-0x10(%rbp)
  80128c:	79 05                	jns    801293 <dir_alloc_file+0x146>
		return r;
  80128e:	8b 45 f0             	mov    -0x10(%rbp),%eax
  801291:	eb 18                	jmp    8012ab <dir_alloc_file+0x15e>
	f = (struct File*) blk;
  801293:	48 8b 45 e0          	mov    -0x20(%rbp),%rax
  801297:	48 89 45 e8          	mov    %rax,-0x18(%rbp)
	*file = &f[0];
  80129b:	48 8b 45 d0          	mov    -0x30(%rbp),%rax
  80129f:	48 8b 55 e8          	mov    -0x18(%rbp),%rdx
  8012a3:	48 89 10             	mov    %rdx,(%rax)
	return 0;
  8012a6:	b8 00 00 00 00       	mov    $0x0,%eax
}
  8012ab:	c9                   	leaveq 
  8012ac:	c3                   	retq   

00000000008012ad <skip_slash>:

// Skip over slashes.
static const char*
skip_slash(const char *p)
{
  8012ad:	55                   	push   %rbp
  8012ae:	48 89 e5             	mov    %rsp,%rbp
  8012b1:	48 83 ec 08          	sub    $0x8,%rsp
  8012b5:	48 89 7d f8          	mov    %rdi,-0x8(%rbp)
	while (*p == '/')
  8012b9:	eb 05                	jmp    8012c0 <skip_slash+0x13>
		p++;
  8012bb:	48 83 45 f8 01       	addq   $0x1,-0x8(%rbp)

// Skip over slashes.
static const char*
skip_slash(const char *p)
{
	while (*p == '/')
  8012c0:	48 8b 45 f8          	mov    -0x8(%rbp),%rax
  8012c4:	0f b6 00             	movzbl (%rax),%eax
  8012c7:	3c 2f                	cmp    $0x2f,%al
  8012c9:	74 f0                	je     8012bb <skip_slash+0xe>
		p++;
	return p;
  8012cb:	48 8b 45 f8          	mov    -0x8(%rbp),%rax
}
  8012cf:	c9                   	leaveq 
  8012d0:	c3                   	retq   

00000000008012d1 <walk_path>:
// If we cannot find the file but find the directory
// it should be in, set *pdir and copy the final path
// element into lastelem.
static int
walk_path(const char *path, struct File **pdir, struct File **pf, char *lastelem)
{
  8012d1:	55                   	push   %rbp
  8012d2:	48 89 e5             	mov    %rsp,%rbp
  8012d5:	48 81 ec d0 00 00 00 	sub    $0xd0,%rsp
  8012dc:	48 89 bd 48 ff ff ff 	mov    %rdi,-0xb8(%rbp)
  8012e3:	48 89 b5 40 ff ff ff 	mov    %rsi,-0xc0(%rbp)
  8012ea:	48 89 95 38 ff ff ff 	mov    %rdx,-0xc8(%rbp)
  8012f1:	48 89 8d 30 ff ff ff 	mov    %rcx,-0xd0(%rbp)
	struct File *dir, *f;
	int r;

	// if (*path != '/')
	//	return -E_BAD_PATH;
	path = skip_slash(path);
  8012f8:	48 8b 85 48 ff ff ff 	mov    -0xb8(%rbp),%rax
  8012ff:	48 89 c7             	mov    %rax,%rdi
  801302:	48 b8 ad 12 80 00 00 	movabs $0x8012ad,%rax
  801309:	00 00 00 
  80130c:	ff d0                	callq  *%rax
  80130e:	48 89 85 48 ff ff ff 	mov    %rax,-0xb8(%rbp)
	f = &super->s_root;
  801315:	48 b8 10 20 81 00 00 	movabs $0x812010,%rax
  80131c:	00 00 00 
  80131f:	48 8b 00             	mov    (%rax),%rax
  801322:	48 83 c0 08          	add    $0x8,%rax
  801326:	48 89 85 58 ff ff ff 	mov    %rax,-0xa8(%rbp)
	dir = 0;
  80132d:	48 c7 45 f8 00 00 00 	movq   $0x0,-0x8(%rbp)
  801334:	00 
	name[0] = 0;
  801335:	c6 85 60 ff ff ff 00 	movb   $0x0,-0xa0(%rbp)

	if (pdir)
  80133c:	48 83 bd 40 ff ff ff 	cmpq   $0x0,-0xc0(%rbp)
  801343:	00 
  801344:	74 0e                	je     801354 <walk_path+0x83>
		*pdir = 0;
  801346:	48 8b 85 40 ff ff ff 	mov    -0xc0(%rbp),%rax
  80134d:	48 c7 00 00 00 00 00 	movq   $0x0,(%rax)
	*pf = 0;
  801354:	48 8b 85 38 ff ff ff 	mov    -0xc8(%rbp),%rax
  80135b:	48 c7 00 00 00 00 00 	movq   $0x0,(%rax)
	while (*path != '\0') {
  801362:	e9 7c 01 00 00       	jmpq   8014e3 <walk_path+0x212>
		dir = f;
  801367:	48 8b 85 58 ff ff ff 	mov    -0xa8(%rbp),%rax
  80136e:	48 89 45 f8          	mov    %rax,-0x8(%rbp)
		p = path;
  801372:	48 8b 85 48 ff ff ff 	mov    -0xb8(%rbp),%rax
  801379:	48 89 45 f0          	mov    %rax,-0x10(%rbp)
		while (*path != '/' && *path != '\0')
  80137d:	eb 08                	jmp    801387 <walk_path+0xb6>
			path++;
  80137f:	48 83 85 48 ff ff ff 	addq   $0x1,-0xb8(%rbp)
  801386:	01 
		*pdir = 0;
	*pf = 0;
	while (*path != '\0') {
		dir = f;
		p = path;
		while (*path != '/' && *path != '\0')
  801387:	48 8b 85 48 ff ff ff 	mov    -0xb8(%rbp),%rax
  80138e:	0f b6 00             	movzbl (%rax),%eax
  801391:	3c 2f                	cmp    $0x2f,%al
  801393:	74 0e                	je     8013a3 <walk_path+0xd2>
  801395:	48 8b 85 48 ff ff ff 	mov    -0xb8(%rbp),%rax
  80139c:	0f b6 00             	movzbl (%rax),%eax
  80139f:	84 c0                	test   %al,%al
  8013a1:	75 dc                	jne    80137f <walk_path+0xae>
			path++;
		if (path - p >= MAXNAMELEN)
  8013a3:	48 8b 95 48 ff ff ff 	mov    -0xb8(%rbp),%rdx
  8013aa:	48 8b 45 f0          	mov    -0x10(%rbp),%rax
  8013ae:	48 89 d1             	mov    %rdx,%rcx
  8013b1:	48 29 c1             	sub    %rax,%rcx
  8013b4:	48 89 c8             	mov    %rcx,%rax
  8013b7:	48 83 f8 7f          	cmp    $0x7f,%rax
  8013bb:	7e 0a                	jle    8013c7 <walk_path+0xf6>
			return -E_BAD_PATH;
  8013bd:	b8 f3 ff ff ff       	mov    $0xfffffff3,%eax
  8013c2:	e9 5c 01 00 00       	jmpq   801523 <walk_path+0x252>
		memmove(name, p, path - p);
  8013c7:	48 8b 95 48 ff ff ff 	mov    -0xb8(%rbp),%rdx
  8013ce:	48 8b 45 f0          	mov    -0x10(%rbp),%rax
  8013d2:	48 89 d1             	mov    %rdx,%rcx
  8013d5:	48 29 c1             	sub    %rax,%rcx
  8013d8:	48 89 c8             	mov    %rcx,%rax
  8013db:	48 89 c2             	mov    %rax,%rdx
  8013de:	48 8b 4d f0          	mov    -0x10(%rbp),%rcx
  8013e2:	48 8d 85 60 ff ff ff 	lea    -0xa0(%rbp),%rax
  8013e9:	48 89 ce             	mov    %rcx,%rsi
  8013ec:	48 89 c7             	mov    %rax,%rdi
  8013ef:	48 b8 6e 3f 80 00 00 	movabs $0x803f6e,%rax
  8013f6:	00 00 00 
  8013f9:	ff d0                	callq  *%rax
		name[path - p] = '\0';
  8013fb:	48 8b 95 48 ff ff ff 	mov    -0xb8(%rbp),%rdx
  801402:	48 8b 45 f0          	mov    -0x10(%rbp),%rax
  801406:	48 89 d1             	mov    %rdx,%rcx
  801409:	48 29 c1             	sub    %rax,%rcx
  80140c:	48 89 c8             	mov    %rcx,%rax
  80140f:	c6 84 05 60 ff ff ff 	movb   $0x0,-0xa0(%rbp,%rax,1)
  801416:	00 
		path = skip_slash(path);
  801417:	48 8b 85 48 ff ff ff 	mov    -0xb8(%rbp),%rax
  80141e:	48 89 c7             	mov    %rax,%rdi
  801421:	48 b8 ad 12 80 00 00 	movabs $0x8012ad,%rax
  801428:	00 00 00 
  80142b:	ff d0                	callq  *%rax
  80142d:	48 89 85 48 ff ff ff 	mov    %rax,-0xb8(%rbp)

		if (dir->f_type != FTYPE_DIR)
  801434:	48 8b 45 f8          	mov    -0x8(%rbp),%rax
  801438:	8b 80 84 00 00 00    	mov    0x84(%rax),%eax
  80143e:	83 f8 01             	cmp    $0x1,%eax
  801441:	74 0a                	je     80144d <walk_path+0x17c>
			return -E_NOT_FOUND;
  801443:	b8 f4 ff ff ff       	mov    $0xfffffff4,%eax
  801448:	e9 d6 00 00 00       	jmpq   801523 <walk_path+0x252>

		if ((r = dir_lookup(dir, name, &f)) < 0) {
  80144d:	48 8d 95 58 ff ff ff 	lea    -0xa8(%rbp),%rdx
  801454:	48 8d 8d 60 ff ff ff 	lea    -0xa0(%rbp),%rcx
  80145b:	48 8b 45 f8          	mov    -0x8(%rbp),%rax
  80145f:	48 89 ce             	mov    %rcx,%rsi
  801462:	48 89 c7             	mov    %rax,%rdi
  801465:	48 b8 2d 10 80 00 00 	movabs $0x80102d,%rax
  80146c:	00 00 00 
  80146f:	ff d0                	callq  *%rax
  801471:	89 45 ec             	mov    %eax,-0x14(%rbp)
  801474:	83 7d ec 00          	cmpl   $0x0,-0x14(%rbp)
  801478:	79 69                	jns    8014e3 <walk_path+0x212>
			if (r == -E_NOT_FOUND && *path == '\0') {
  80147a:	83 7d ec f4          	cmpl   $0xfffffff4,-0x14(%rbp)
  80147e:	75 5e                	jne    8014de <walk_path+0x20d>
  801480:	48 8b 85 48 ff ff ff 	mov    -0xb8(%rbp),%rax
  801487:	0f b6 00             	movzbl (%rax),%eax
  80148a:	84 c0                	test   %al,%al
  80148c:	75 50                	jne    8014de <walk_path+0x20d>
				if (pdir)
  80148e:	48 83 bd 40 ff ff ff 	cmpq   $0x0,-0xc0(%rbp)
  801495:	00 
  801496:	74 0e                	je     8014a6 <walk_path+0x1d5>
					*pdir = dir;
  801498:	48 8b 85 40 ff ff ff 	mov    -0xc0(%rbp),%rax
  80149f:	48 8b 55 f8          	mov    -0x8(%rbp),%rdx
  8014a3:	48 89 10             	mov    %rdx,(%rax)
				if (lastelem)
  8014a6:	48 83 bd 30 ff ff ff 	cmpq   $0x0,-0xd0(%rbp)
  8014ad:	00 
  8014ae:	74 20                	je     8014d0 <walk_path+0x1ff>
					strcpy(lastelem, name);
  8014b0:	48 8d 95 60 ff ff ff 	lea    -0xa0(%rbp),%rdx
  8014b7:	48 8b 85 30 ff ff ff 	mov    -0xd0(%rbp),%rax
  8014be:	48 89 d6             	mov    %rdx,%rsi
  8014c1:	48 89 c7             	mov    %rax,%rdi
  8014c4:	48 b8 4c 3c 80 00 00 	movabs $0x803c4c,%rax
  8014cb:	00 00 00 
  8014ce:	ff d0                	callq  *%rax
				*pf = 0;
  8014d0:	48 8b 85 38 ff ff ff 	mov    -0xc8(%rbp),%rax
  8014d7:	48 c7 00 00 00 00 00 	movq   $0x0,(%rax)
			}
			return r;
  8014de:	8b 45 ec             	mov    -0x14(%rbp),%eax
  8014e1:	eb 40                	jmp    801523 <walk_path+0x252>
	name[0] = 0;

	if (pdir)
		*pdir = 0;
	*pf = 0;
	while (*path != '\0') {
  8014e3:	48 8b 85 48 ff ff ff 	mov    -0xb8(%rbp),%rax
  8014ea:	0f b6 00             	movzbl (%rax),%eax
  8014ed:	84 c0                	test   %al,%al
  8014ef:	0f 85 72 fe ff ff    	jne    801367 <walk_path+0x96>
			}
			return r;
		}
	}

	if (pdir)
  8014f5:	48 83 bd 40 ff ff ff 	cmpq   $0x0,-0xc0(%rbp)
  8014fc:	00 
  8014fd:	74 0e                	je     80150d <walk_path+0x23c>
		*pdir = dir;
  8014ff:	48 8b 85 40 ff ff ff 	mov    -0xc0(%rbp),%rax
  801506:	48 8b 55 f8          	mov    -0x8(%rbp),%rdx
  80150a:	48 89 10             	mov    %rdx,(%rax)
	*pf = f;
  80150d:	48 8b 95 58 ff ff ff 	mov    -0xa8(%rbp),%rdx
  801514:	48 8b 85 38 ff ff ff 	mov    -0xc8(%rbp),%rax
  80151b:	48 89 10             	mov    %rdx,(%rax)
	return 0;
  80151e:	b8 00 00 00 00       	mov    $0x0,%eax
}
  801523:	c9                   	leaveq 
  801524:	c3                   	retq   

0000000000801525 <file_create>:

// Create "path".  On success set *pf to point at the file and return 0.
// On error return < 0.
int
file_create(const char *path, struct File **pf)
{
  801525:	55                   	push   %rbp
  801526:	48 89 e5             	mov    %rsp,%rbp
  801529:	48 81 ec b0 00 00 00 	sub    $0xb0,%rsp
  801530:	48 89 bd 58 ff ff ff 	mov    %rdi,-0xa8(%rbp)
  801537:	48 89 b5 50 ff ff ff 	mov    %rsi,-0xb0(%rbp)
	char name[MAXNAMELEN];
	int r;
	struct File *dir, *f;

	if ((r = walk_path(path, &dir, &f, name)) == 0)
  80153e:	48 8d 8d 70 ff ff ff 	lea    -0x90(%rbp),%rcx
  801545:	48 8d 95 60 ff ff ff 	lea    -0xa0(%rbp),%rdx
  80154c:	48 8d b5 68 ff ff ff 	lea    -0x98(%rbp),%rsi
  801553:	48 8b 85 58 ff ff ff 	mov    -0xa8(%rbp),%rax
  80155a:	48 89 c7             	mov    %rax,%rdi
  80155d:	48 b8 d1 12 80 00 00 	movabs $0x8012d1,%rax
  801564:	00 00 00 
  801567:	ff d0                	callq  *%rax
  801569:	89 45 fc             	mov    %eax,-0x4(%rbp)
  80156c:	83 7d fc 00          	cmpl   $0x0,-0x4(%rbp)
  801570:	75 0a                	jne    80157c <file_create+0x57>
		return -E_FILE_EXISTS;
  801572:	b8 f2 ff ff ff       	mov    $0xfffffff2,%eax
  801577:	e9 91 00 00 00       	jmpq   80160d <file_create+0xe8>
	if (r != -E_NOT_FOUND || dir == 0)
  80157c:	83 7d fc f4          	cmpl   $0xfffffff4,-0x4(%rbp)
  801580:	75 0c                	jne    80158e <file_create+0x69>
  801582:	48 8b 85 68 ff ff ff 	mov    -0x98(%rbp),%rax
  801589:	48 85 c0             	test   %rax,%rax
  80158c:	75 05                	jne    801593 <file_create+0x6e>
		return r;
  80158e:	8b 45 fc             	mov    -0x4(%rbp),%eax
  801591:	eb 7a                	jmp    80160d <file_create+0xe8>
	if ((r = dir_alloc_file(dir, &f)) < 0)
  801593:	48 8b 85 68 ff ff ff 	mov    -0x98(%rbp),%rax
  80159a:	48 8d 95 60 ff ff ff 	lea    -0xa0(%rbp),%rdx
  8015a1:	48 89 d6             	mov    %rdx,%rsi
  8015a4:	48 89 c7             	mov    %rax,%rdi
  8015a7:	48 b8 4d 11 80 00 00 	movabs $0x80114d,%rax
  8015ae:	00 00 00 
  8015b1:	ff d0                	callq  *%rax
  8015b3:	89 45 fc             	mov    %eax,-0x4(%rbp)
  8015b6:	83 7d fc 00          	cmpl   $0x0,-0x4(%rbp)
  8015ba:	79 05                	jns    8015c1 <file_create+0x9c>
		return r;
  8015bc:	8b 45 fc             	mov    -0x4(%rbp),%eax
  8015bf:	eb 4c                	jmp    80160d <file_create+0xe8>
	strcpy(f->f_name, name);
  8015c1:	48 8b 85 60 ff ff ff 	mov    -0xa0(%rbp),%rax
  8015c8:	48 8d 95 70 ff ff ff 	lea    -0x90(%rbp),%rdx
  8015cf:	48 89 d6             	mov    %rdx,%rsi
  8015d2:	48 89 c7             	mov    %rax,%rdi
  8015d5:	48 b8 4c 3c 80 00 00 	movabs $0x803c4c,%rax
  8015dc:	00 00 00 
  8015df:	ff d0                	callq  *%rax
	*pf = f;
  8015e1:	48 8b 95 60 ff ff ff 	mov    -0xa0(%rbp),%rdx
  8015e8:	48 8b 85 50 ff ff ff 	mov    -0xb0(%rbp),%rax
  8015ef:	48 89 10             	mov    %rdx,(%rax)
	file_flush(dir);
  8015f2:	48 8b 85 68 ff ff ff 	mov    -0x98(%rbp),%rax
  8015f9:	48 89 c7             	mov    %rax,%rdi
  8015fc:	48 b8 ac 1a 80 00 00 	movabs $0x801aac,%rax
  801603:	00 00 00 
  801606:	ff d0                	callq  *%rax
	return 0;
  801608:	b8 00 00 00 00       	mov    $0x0,%eax
}
  80160d:	c9                   	leaveq 
  80160e:	c3                   	retq   

000000000080160f <file_open>:

// Open "path".  On success set *pf to point at the file and return 0.
// On error return < 0.
int
file_open(const char *path, struct File **pf)
{
  80160f:	55                   	push   %rbp
  801610:	48 89 e5             	mov    %rsp,%rbp
  801613:	48 83 ec 10          	sub    $0x10,%rsp
  801617:	48 89 7d f8          	mov    %rdi,-0x8(%rbp)
  80161b:	48 89 75 f0          	mov    %rsi,-0x10(%rbp)
	return walk_path(path, 0, pf, 0);
  80161f:	48 8b 55 f0          	mov    -0x10(%rbp),%rdx
  801623:	48 8b 45 f8          	mov    -0x8(%rbp),%rax
  801627:	b9 00 00 00 00       	mov    $0x0,%ecx
  80162c:	be 00 00 00 00       	mov    $0x0,%esi
  801631:	48 89 c7             	mov    %rax,%rdi
  801634:	48 b8 d1 12 80 00 00 	movabs $0x8012d1,%rax
  80163b:	00 00 00 
  80163e:	ff d0                	callq  *%rax
}
  801640:	c9                   	leaveq 
  801641:	c3                   	retq   

0000000000801642 <file_read>:
// Read count bytes from f into buf, starting from seek position
// offset.  This meant to mimic the standard pread function.
// Returns the number of bytes read, < 0 on error.
ssize_t
file_read(struct File *f, void *buf, size_t count, off_t offset)
{
  801642:	55                   	push   %rbp
  801643:	48 89 e5             	mov    %rsp,%rbp
  801646:	48 83 ec 60          	sub    $0x60,%rsp
  80164a:	48 89 7d b8          	mov    %rdi,-0x48(%rbp)
  80164e:	48 89 75 b0          	mov    %rsi,-0x50(%rbp)
  801652:	48 89 55 a8          	mov    %rdx,-0x58(%rbp)
  801656:	89 4d a4             	mov    %ecx,-0x5c(%rbp)
	int r, bn;
	off_t pos;
	char *blk;

	if (offset >= f->f_size)
  801659:	48 8b 45 b8          	mov    -0x48(%rbp),%rax
  80165d:	8b 80 80 00 00 00    	mov    0x80(%rax),%eax
  801663:	3b 45 a4             	cmp    -0x5c(%rbp),%eax
  801666:	7f 0a                	jg     801672 <file_read+0x30>
		return 0;
  801668:	b8 00 00 00 00       	mov    $0x0,%eax
  80166d:	e9 2d 01 00 00       	jmpq   80179f <file_read+0x15d>

	count = MIN(count, f->f_size - offset);
  801672:	48 8b 45 a8          	mov    -0x58(%rbp),%rax
  801676:	48 89 45 f0          	mov    %rax,-0x10(%rbp)
  80167a:	48 8b 45 b8          	mov    -0x48(%rbp),%rax
  80167e:	8b 80 80 00 00 00    	mov    0x80(%rax),%eax
  801684:	2b 45 a4             	sub    -0x5c(%rbp),%eax
  801687:	89 45 ec             	mov    %eax,-0x14(%rbp)
  80168a:	8b 45 ec             	mov    -0x14(%rbp),%eax
  80168d:	48 63 d0             	movslq %eax,%rdx
  801690:	48 8b 45 f0          	mov    -0x10(%rbp),%rax
  801694:	48 39 c2             	cmp    %rax,%rdx
  801697:	48 0f 46 c2          	cmovbe %rdx,%rax
  80169b:	48 89 45 a8          	mov    %rax,-0x58(%rbp)

	for (pos = offset; pos < offset + count; ) {
  80169f:	8b 45 a4             	mov    -0x5c(%rbp),%eax
  8016a2:	89 45 fc             	mov    %eax,-0x4(%rbp)
  8016a5:	e9 d9 00 00 00       	jmpq   801783 <file_read+0x141>
		if ((r = file_get_block(f, pos / BLKSIZE, &blk)) < 0)
  8016aa:	8b 45 fc             	mov    -0x4(%rbp),%eax
  8016ad:	8d 90 ff 0f 00 00    	lea    0xfff(%rax),%edx
  8016b3:	85 c0                	test   %eax,%eax
  8016b5:	0f 48 c2             	cmovs  %edx,%eax
  8016b8:	c1 f8 0c             	sar    $0xc,%eax
  8016bb:	89 c1                	mov    %eax,%ecx
  8016bd:	48 8d 55 c8          	lea    -0x38(%rbp),%rdx
  8016c1:	48 8b 45 b8          	mov    -0x48(%rbp),%rax
  8016c5:	89 ce                	mov    %ecx,%esi
  8016c7:	48 89 c7             	mov    %rax,%rdi
  8016ca:	48 b8 a7 0f 80 00 00 	movabs $0x800fa7,%rax
  8016d1:	00 00 00 
  8016d4:	ff d0                	callq  *%rax
  8016d6:	89 45 e8             	mov    %eax,-0x18(%rbp)
  8016d9:	83 7d e8 00          	cmpl   $0x0,-0x18(%rbp)
  8016dd:	79 08                	jns    8016e7 <file_read+0xa5>
			return r;
  8016df:	8b 45 e8             	mov    -0x18(%rbp),%eax
  8016e2:	e9 b8 00 00 00       	jmpq   80179f <file_read+0x15d>
		bn = MIN(BLKSIZE - pos % BLKSIZE, offset + count - pos);
  8016e7:	8b 45 fc             	mov    -0x4(%rbp),%eax
  8016ea:	89 c2                	mov    %eax,%edx
  8016ec:	c1 fa 1f             	sar    $0x1f,%edx
  8016ef:	c1 ea 14             	shr    $0x14,%edx
  8016f2:	01 d0                	add    %edx,%eax
  8016f4:	25 ff 0f 00 00       	and    $0xfff,%eax
  8016f9:	29 d0                	sub    %edx,%eax
  8016fb:	ba 00 10 00 00       	mov    $0x1000,%edx
  801700:	89 d1                	mov    %edx,%ecx
  801702:	29 c1                	sub    %eax,%ecx
  801704:	89 c8                	mov    %ecx,%eax
  801706:	89 45 e4             	mov    %eax,-0x1c(%rbp)
  801709:	8b 45 a4             	mov    -0x5c(%rbp),%eax
  80170c:	48 98                	cltq   
  80170e:	48 89 c2             	mov    %rax,%rdx
  801711:	48 03 55 a8          	add    -0x58(%rbp),%rdx
  801715:	8b 45 fc             	mov    -0x4(%rbp),%eax
  801718:	48 98                	cltq   
  80171a:	48 89 d1             	mov    %rdx,%rcx
  80171d:	48 29 c1             	sub    %rax,%rcx
  801720:	48 89 c8             	mov    %rcx,%rax
  801723:	48 89 45 d8          	mov    %rax,-0x28(%rbp)
  801727:	8b 45 e4             	mov    -0x1c(%rbp),%eax
  80172a:	48 63 d0             	movslq %eax,%rdx
  80172d:	48 8b 45 d8          	mov    -0x28(%rbp),%rax
  801731:	48 39 c2             	cmp    %rax,%rdx
  801734:	48 0f 46 c2          	cmovbe %rdx,%rax
  801738:	89 45 d4             	mov    %eax,-0x2c(%rbp)
		memmove(buf, blk + pos % BLKSIZE, bn);
  80173b:	8b 45 d4             	mov    -0x2c(%rbp),%eax
  80173e:	48 63 c8             	movslq %eax,%rcx
  801741:	48 8b 75 c8          	mov    -0x38(%rbp),%rsi
  801745:	8b 45 fc             	mov    -0x4(%rbp),%eax
  801748:	89 c2                	mov    %eax,%edx
  80174a:	c1 fa 1f             	sar    $0x1f,%edx
  80174d:	c1 ea 14             	shr    $0x14,%edx
  801750:	01 d0                	add    %edx,%eax
  801752:	25 ff 0f 00 00       	and    $0xfff,%eax
  801757:	29 d0                	sub    %edx,%eax
  801759:	48 98                	cltq   
  80175b:	48 01 c6             	add    %rax,%rsi
  80175e:	48 8b 45 b0          	mov    -0x50(%rbp),%rax
  801762:	48 89 ca             	mov    %rcx,%rdx
  801765:	48 89 c7             	mov    %rax,%rdi
  801768:	48 b8 6e 3f 80 00 00 	movabs $0x803f6e,%rax
  80176f:	00 00 00 
  801772:	ff d0                	callq  *%rax
		pos += bn;
  801774:	8b 45 d4             	mov    -0x2c(%rbp),%eax
  801777:	01 45 fc             	add    %eax,-0x4(%rbp)
		buf += bn;
  80177a:	8b 45 d4             	mov    -0x2c(%rbp),%eax
  80177d:	48 98                	cltq   
  80177f:	48 01 45 b0          	add    %rax,-0x50(%rbp)
	if (offset >= f->f_size)
		return 0;

	count = MIN(count, f->f_size - offset);

	for (pos = offset; pos < offset + count; ) {
  801783:	8b 45 fc             	mov    -0x4(%rbp),%eax
  801786:	48 63 d0             	movslq %eax,%rdx
  801789:	8b 45 a4             	mov    -0x5c(%rbp),%eax
  80178c:	48 98                	cltq   
  80178e:	48 03 45 a8          	add    -0x58(%rbp),%rax
  801792:	48 39 c2             	cmp    %rax,%rdx
  801795:	0f 82 0f ff ff ff    	jb     8016aa <file_read+0x68>
		memmove(buf, blk + pos % BLKSIZE, bn);
		pos += bn;
		buf += bn;
	}

	return count;
  80179b:	48 8b 45 a8          	mov    -0x58(%rbp),%rax
}
  80179f:	c9                   	leaveq 
  8017a0:	c3                   	retq   

00000000008017a1 <file_write>:
// offset.  This is meant to mimic the standard pwrite function.
// Extends the file if necessary.
// Returns the number of bytes written, < 0 on error.
int
file_write(struct File *f, const void *buf, size_t count, off_t offset)
{
  8017a1:	55                   	push   %rbp
  8017a2:	48 89 e5             	mov    %rsp,%rbp
  8017a5:	48 83 ec 50          	sub    $0x50,%rsp
  8017a9:	48 89 7d c8          	mov    %rdi,-0x38(%rbp)
  8017ad:	48 89 75 c0          	mov    %rsi,-0x40(%rbp)
  8017b1:	48 89 55 b8          	mov    %rdx,-0x48(%rbp)
  8017b5:	89 4d b4             	mov    %ecx,-0x4c(%rbp)
	int r, bn;
	off_t pos;
	char *blk;

	// Extend file if necessary
	if (offset + count > f->f_size)
  8017b8:	8b 45 b4             	mov    -0x4c(%rbp),%eax
  8017bb:	48 98                	cltq   
  8017bd:	48 89 c2             	mov    %rax,%rdx
  8017c0:	48 03 55 b8          	add    -0x48(%rbp),%rdx
  8017c4:	48 8b 45 c8          	mov    -0x38(%rbp),%rax
  8017c8:	8b 80 80 00 00 00    	mov    0x80(%rax),%eax
  8017ce:	48 98                	cltq   
  8017d0:	48 39 c2             	cmp    %rax,%rdx
  8017d3:	76 33                	jbe    801808 <file_write+0x67>
		if ((r = file_set_size(f, offset + count)) < 0)
  8017d5:	48 8b 45 b8          	mov    -0x48(%rbp),%rax
  8017d9:	89 c2                	mov    %eax,%edx
  8017db:	8b 45 b4             	mov    -0x4c(%rbp),%eax
  8017de:	01 d0                	add    %edx,%eax
  8017e0:	89 c2                	mov    %eax,%edx
  8017e2:	48 8b 45 c8          	mov    -0x38(%rbp),%rax
  8017e6:	89 d6                	mov    %edx,%esi
  8017e8:	48 89 c7             	mov    %rax,%rdi
  8017eb:	48 b8 4f 1a 80 00 00 	movabs $0x801a4f,%rax
  8017f2:	00 00 00 
  8017f5:	ff d0                	callq  *%rax
  8017f7:	89 45 f8             	mov    %eax,-0x8(%rbp)
  8017fa:	83 7d f8 00          	cmpl   $0x0,-0x8(%rbp)
  8017fe:	79 08                	jns    801808 <file_write+0x67>
			return r;
  801800:	8b 45 f8             	mov    -0x8(%rbp),%eax
  801803:	e9 01 01 00 00       	jmpq   801909 <file_write+0x168>

	for (pos = offset; pos < offset + count; ) {
  801808:	8b 45 b4             	mov    -0x4c(%rbp),%eax
  80180b:	89 45 fc             	mov    %eax,-0x4(%rbp)
  80180e:	e9 da 00 00 00       	jmpq   8018ed <file_write+0x14c>
		if ((r = file_get_block(f, pos / BLKSIZE, &blk)) < 0)
  801813:	8b 45 fc             	mov    -0x4(%rbp),%eax
  801816:	8d 90 ff 0f 00 00    	lea    0xfff(%rax),%edx
  80181c:	85 c0                	test   %eax,%eax
  80181e:	0f 48 c2             	cmovs  %edx,%eax
  801821:	c1 f8 0c             	sar    $0xc,%eax
  801824:	89 c1                	mov    %eax,%ecx
  801826:	48 8d 55 d8          	lea    -0x28(%rbp),%rdx
  80182a:	48 8b 45 c8          	mov    -0x38(%rbp),%rax
  80182e:	89 ce                	mov    %ecx,%esi
  801830:	48 89 c7             	mov    %rax,%rdi
  801833:	48 b8 a7 0f 80 00 00 	movabs $0x800fa7,%rax
  80183a:	00 00 00 
  80183d:	ff d0                	callq  *%rax
  80183f:	89 45 f8             	mov    %eax,-0x8(%rbp)
  801842:	83 7d f8 00          	cmpl   $0x0,-0x8(%rbp)
  801846:	79 08                	jns    801850 <file_write+0xaf>
			return r;
  801848:	8b 45 f8             	mov    -0x8(%rbp),%eax
  80184b:	e9 b9 00 00 00       	jmpq   801909 <file_write+0x168>
		bn = MIN(BLKSIZE - pos % BLKSIZE, offset + count - pos);
  801850:	8b 45 fc             	mov    -0x4(%rbp),%eax
  801853:	89 c2                	mov    %eax,%edx
  801855:	c1 fa 1f             	sar    $0x1f,%edx
  801858:	c1 ea 14             	shr    $0x14,%edx
  80185b:	01 d0                	add    %edx,%eax
  80185d:	25 ff 0f 00 00       	and    $0xfff,%eax
  801862:	29 d0                	sub    %edx,%eax
  801864:	ba 00 10 00 00       	mov    $0x1000,%edx
  801869:	89 d1                	mov    %edx,%ecx
  80186b:	29 c1                	sub    %eax,%ecx
  80186d:	89 c8                	mov    %ecx,%eax
  80186f:	89 45 f4             	mov    %eax,-0xc(%rbp)
  801872:	8b 45 b4             	mov    -0x4c(%rbp),%eax
  801875:	48 98                	cltq   
  801877:	48 89 c2             	mov    %rax,%rdx
  80187a:	48 03 55 b8          	add    -0x48(%rbp),%rdx
  80187e:	8b 45 fc             	mov    -0x4(%rbp),%eax
  801881:	48 98                	cltq   
  801883:	48 89 d1             	mov    %rdx,%rcx
  801886:	48 29 c1             	sub    %rax,%rcx
  801889:	48 89 c8             	mov    %rcx,%rax
  80188c:	48 89 45 e8          	mov    %rax,-0x18(%rbp)
  801890:	8b 45 f4             	mov    -0xc(%rbp),%eax
  801893:	48 63 d0             	movslq %eax,%rdx
  801896:	48 8b 45 e8          	mov    -0x18(%rbp),%rax
  80189a:	48 39 c2             	cmp    %rax,%rdx
  80189d:	48 0f 46 c2          	cmovbe %rdx,%rax
  8018a1:	89 45 e4             	mov    %eax,-0x1c(%rbp)
		memmove(blk + pos % BLKSIZE, buf, bn);
  8018a4:	8b 45 e4             	mov    -0x1c(%rbp),%eax
  8018a7:	48 63 c8             	movslq %eax,%rcx
  8018aa:	48 8b 75 d8          	mov    -0x28(%rbp),%rsi
  8018ae:	8b 45 fc             	mov    -0x4(%rbp),%eax
  8018b1:	89 c2                	mov    %eax,%edx
  8018b3:	c1 fa 1f             	sar    $0x1f,%edx
  8018b6:	c1 ea 14             	shr    $0x14,%edx
  8018b9:	01 d0                	add    %edx,%eax
  8018bb:	25 ff 0f 00 00       	and    $0xfff,%eax
  8018c0:	29 d0                	sub    %edx,%eax
  8018c2:	48 98                	cltq   
  8018c4:	48 8d 3c 06          	lea    (%rsi,%rax,1),%rdi
  8018c8:	48 8b 45 c0          	mov    -0x40(%rbp),%rax
  8018cc:	48 89 ca             	mov    %rcx,%rdx
  8018cf:	48 89 c6             	mov    %rax,%rsi
  8018d2:	48 b8 6e 3f 80 00 00 	movabs $0x803f6e,%rax
  8018d9:	00 00 00 
  8018dc:	ff d0                	callq  *%rax
		pos += bn;
  8018de:	8b 45 e4             	mov    -0x1c(%rbp),%eax
  8018e1:	01 45 fc             	add    %eax,-0x4(%rbp)
		buf += bn;
  8018e4:	8b 45 e4             	mov    -0x1c(%rbp),%eax
  8018e7:	48 98                	cltq   
  8018e9:	48 01 45 c0          	add    %rax,-0x40(%rbp)
	// Extend file if necessary
	if (offset + count > f->f_size)
		if ((r = file_set_size(f, offset + count)) < 0)
			return r;

	for (pos = offset; pos < offset + count; ) {
  8018ed:	8b 45 fc             	mov    -0x4(%rbp),%eax
  8018f0:	48 63 d0             	movslq %eax,%rdx
  8018f3:	8b 45 b4             	mov    -0x4c(%rbp),%eax
  8018f6:	48 98                	cltq   
  8018f8:	48 03 45 b8          	add    -0x48(%rbp),%rax
  8018fc:	48 39 c2             	cmp    %rax,%rdx
  8018ff:	0f 82 0e ff ff ff    	jb     801813 <file_write+0x72>
		memmove(blk + pos % BLKSIZE, buf, bn);
		pos += bn;
		buf += bn;
	}

	return count;
  801905:	48 8b 45 b8          	mov    -0x48(%rbp),%rax
}
  801909:	c9                   	leaveq 
  80190a:	c3                   	retq   

000000000080190b <file_free_block>:

// Remove a block from file f.  If it's not there, just silently succeed.
// Returns 0 on success, < 0 on error.
static int
file_free_block(struct File *f, uint32_t filebno)
{
  80190b:	55                   	push   %rbp
  80190c:	48 89 e5             	mov    %rsp,%rbp
  80190f:	48 83 ec 20          	sub    $0x20,%rsp
  801913:	48 89 7d e8          	mov    %rdi,-0x18(%rbp)
  801917:	89 75 e4             	mov    %esi,-0x1c(%rbp)
	int r;
	uint32_t *ptr;

	if ((r = file_block_walk(f, filebno, &ptr, 0)) < 0)
  80191a:	48 8d 55 f0          	lea    -0x10(%rbp),%rdx
  80191e:	8b 75 e4             	mov    -0x1c(%rbp),%esi
  801921:	48 8b 45 e8          	mov    -0x18(%rbp),%rax
  801925:	b9 00 00 00 00       	mov    $0x0,%ecx
  80192a:	48 89 c7             	mov    %rax,%rdi
  80192d:	48 b8 d4 0e 80 00 00 	movabs $0x800ed4,%rax
  801934:	00 00 00 
  801937:	ff d0                	callq  *%rax
  801939:	89 45 fc             	mov    %eax,-0x4(%rbp)
  80193c:	83 7d fc 00          	cmpl   $0x0,-0x4(%rbp)
  801940:	79 05                	jns    801947 <file_free_block+0x3c>
		return r;
  801942:	8b 45 fc             	mov    -0x4(%rbp),%eax
  801945:	eb 2d                	jmp    801974 <file_free_block+0x69>
	if (*ptr) {
  801947:	48 8b 45 f0          	mov    -0x10(%rbp),%rax
  80194b:	8b 00                	mov    (%rax),%eax
  80194d:	85 c0                	test   %eax,%eax
  80194f:	74 1e                	je     80196f <file_free_block+0x64>
		free_block(*ptr);
  801951:	48 8b 45 f0          	mov    -0x10(%rbp),%rax
  801955:	8b 00                	mov    (%rax),%eax
  801957:	89 c7                	mov    %eax,%edi
  801959:	48 b8 4e 0c 80 00 00 	movabs $0x800c4e,%rax
  801960:	00 00 00 
  801963:	ff d0                	callq  *%rax
		*ptr = 0;
  801965:	48 8b 45 f0          	mov    -0x10(%rbp),%rax
  801969:	c7 00 00 00 00 00    	movl   $0x0,(%rax)
	}
	return 0;
  80196f:	b8 00 00 00 00       	mov    $0x0,%eax
}
  801974:	c9                   	leaveq 
  801975:	c3                   	retq   

0000000000801976 <file_truncate_blocks>:
// (Remember to clear the f->f_indirect pointer so you'll know
// whether it's valid!)
// Do not change f->f_size.
static void
file_truncate_blocks(struct File *f, off_t newsize)
{
  801976:	55                   	push   %rbp
  801977:	48 89 e5             	mov    %rsp,%rbp
  80197a:	48 83 ec 20          	sub    $0x20,%rsp
  80197e:	48 89 7d e8          	mov    %rdi,-0x18(%rbp)
  801982:	89 75 e4             	mov    %esi,-0x1c(%rbp)
	int r;
	uint32_t bno, old_nblocks, new_nblocks;

	old_nblocks = (f->f_size + BLKSIZE - 1) / BLKSIZE;
  801985:	48 8b 45 e8          	mov    -0x18(%rbp),%rax
  801989:	8b 80 80 00 00 00    	mov    0x80(%rax),%eax
  80198f:	05 ff 0f 00 00       	add    $0xfff,%eax
  801994:	8d 90 ff 0f 00 00    	lea    0xfff(%rax),%edx
  80199a:	85 c0                	test   %eax,%eax
  80199c:	0f 48 c2             	cmovs  %edx,%eax
  80199f:	c1 f8 0c             	sar    $0xc,%eax
  8019a2:	89 45 f8             	mov    %eax,-0x8(%rbp)
	new_nblocks = (newsize + BLKSIZE - 1) / BLKSIZE;
  8019a5:	8b 45 e4             	mov    -0x1c(%rbp),%eax
  8019a8:	05 ff 0f 00 00       	add    $0xfff,%eax
  8019ad:	8d 90 ff 0f 00 00    	lea    0xfff(%rax),%edx
  8019b3:	85 c0                	test   %eax,%eax
  8019b5:	0f 48 c2             	cmovs  %edx,%eax
  8019b8:	c1 f8 0c             	sar    $0xc,%eax
  8019bb:	89 45 f4             	mov    %eax,-0xc(%rbp)
	for (bno = new_nblocks; bno < old_nblocks; bno++)
  8019be:	8b 45 f4             	mov    -0xc(%rbp),%eax
  8019c1:	89 45 fc             	mov    %eax,-0x4(%rbp)
  8019c4:	eb 45                	jmp    801a0b <file_truncate_blocks+0x95>
		if ((r = file_free_block(f, bno)) < 0)
  8019c6:	8b 55 fc             	mov    -0x4(%rbp),%edx
  8019c9:	48 8b 45 e8          	mov    -0x18(%rbp),%rax
  8019cd:	89 d6                	mov    %edx,%esi
  8019cf:	48 89 c7             	mov    %rax,%rdi
  8019d2:	48 b8 0b 19 80 00 00 	movabs $0x80190b,%rax
  8019d9:	00 00 00 
  8019dc:	ff d0                	callq  *%rax
  8019de:	89 45 f0             	mov    %eax,-0x10(%rbp)
  8019e1:	83 7d f0 00          	cmpl   $0x0,-0x10(%rbp)
  8019e5:	79 20                	jns    801a07 <file_truncate_blocks+0x91>
			cprintf("warning: file_free_block: %e", r);
  8019e7:	8b 45 f0             	mov    -0x10(%rbp),%eax
  8019ea:	89 c6                	mov    %eax,%esi
  8019ec:	48 bf 5c 6c 80 00 00 	movabs $0x806c5c,%rdi
  8019f3:	00 00 00 
  8019f6:	b8 00 00 00 00       	mov    $0x0,%eax
  8019fb:	48 ba 7b 30 80 00 00 	movabs $0x80307b,%rdx
  801a02:	00 00 00 
  801a05:	ff d2                	callq  *%rdx
	int r;
	uint32_t bno, old_nblocks, new_nblocks;

	old_nblocks = (f->f_size + BLKSIZE - 1) / BLKSIZE;
	new_nblocks = (newsize + BLKSIZE - 1) / BLKSIZE;
	for (bno = new_nblocks; bno < old_nblocks; bno++)
  801a07:	83 45 fc 01          	addl   $0x1,-0x4(%rbp)
  801a0b:	8b 45 fc             	mov    -0x4(%rbp),%eax
  801a0e:	3b 45 f8             	cmp    -0x8(%rbp),%eax
  801a11:	72 b3                	jb     8019c6 <file_truncate_blocks+0x50>
		if ((r = file_free_block(f, bno)) < 0)
			cprintf("warning: file_free_block: %e", r);

	if (new_nblocks <= NDIRECT && f->f_indirect) {
  801a13:	83 7d f4 0a          	cmpl   $0xa,-0xc(%rbp)
  801a17:	77 34                	ja     801a4d <file_truncate_blocks+0xd7>
  801a19:	48 8b 45 e8          	mov    -0x18(%rbp),%rax
  801a1d:	8b 80 b0 00 00 00    	mov    0xb0(%rax),%eax
  801a23:	85 c0                	test   %eax,%eax
  801a25:	74 26                	je     801a4d <file_truncate_blocks+0xd7>
		free_block(f->f_indirect);
  801a27:	48 8b 45 e8          	mov    -0x18(%rbp),%rax
  801a2b:	8b 80 b0 00 00 00    	mov    0xb0(%rax),%eax
  801a31:	89 c7                	mov    %eax,%edi
  801a33:	48 b8 4e 0c 80 00 00 	movabs $0x800c4e,%rax
  801a3a:	00 00 00 
  801a3d:	ff d0                	callq  *%rax
		f->f_indirect = 0;
  801a3f:	48 8b 45 e8          	mov    -0x18(%rbp),%rax
  801a43:	c7 80 b0 00 00 00 00 	movl   $0x0,0xb0(%rax)
  801a4a:	00 00 00 
	}
}
  801a4d:	c9                   	leaveq 
  801a4e:	c3                   	retq   

0000000000801a4f <file_set_size>:

// Set the size of file f, truncating or extending as necessary.
int
file_set_size(struct File *f, off_t newsize)
{
  801a4f:	55                   	push   %rbp
  801a50:	48 89 e5             	mov    %rsp,%rbp
  801a53:	48 83 ec 10          	sub    $0x10,%rsp
  801a57:	48 89 7d f8          	mov    %rdi,-0x8(%rbp)
  801a5b:	89 75 f4             	mov    %esi,-0xc(%rbp)
	if (f->f_size > newsize)
  801a5e:	48 8b 45 f8          	mov    -0x8(%rbp),%rax
  801a62:	8b 80 80 00 00 00    	mov    0x80(%rax),%eax
  801a68:	3b 45 f4             	cmp    -0xc(%rbp),%eax
  801a6b:	7e 18                	jle    801a85 <file_set_size+0x36>
		file_truncate_blocks(f, newsize);
  801a6d:	8b 55 f4             	mov    -0xc(%rbp),%edx
  801a70:	48 8b 45 f8          	mov    -0x8(%rbp),%rax
  801a74:	89 d6                	mov    %edx,%esi
  801a76:	48 89 c7             	mov    %rax,%rdi
  801a79:	48 b8 76 19 80 00 00 	movabs $0x801976,%rax
  801a80:	00 00 00 
  801a83:	ff d0                	callq  *%rax
	f->f_size = newsize;
  801a85:	48 8b 45 f8          	mov    -0x8(%rbp),%rax
  801a89:	8b 55 f4             	mov    -0xc(%rbp),%edx
  801a8c:	89 90 80 00 00 00    	mov    %edx,0x80(%rax)
	flush_block(f);
  801a92:	48 8b 45 f8          	mov    -0x8(%rbp),%rax
  801a96:	48 89 c7             	mov    %rax,%rdi
  801a99:	48 b8 e2 07 80 00 00 	movabs $0x8007e2,%rax
  801aa0:	00 00 00 
  801aa3:	ff d0                	callq  *%rax
	return 0;
  801aa5:	b8 00 00 00 00       	mov    $0x0,%eax
}
  801aaa:	c9                   	leaveq 
  801aab:	c3                   	retq   

0000000000801aac <file_flush>:
// Loop over all the blocks in file.
// Translate the file block number into a disk block number
// and then check whether that disk block is dirty.  If so, write it out.
void
file_flush(struct File *f)
{
  801aac:	55                   	push   %rbp
  801aad:	48 89 e5             	mov    %rsp,%rbp
  801ab0:	48 83 ec 20          	sub    $0x20,%rsp
  801ab4:	48 89 7d e8          	mov    %rdi,-0x18(%rbp)
	int i;
	uint32_t *pdiskbno;

	for (i = 0; i < (f->f_size + BLKSIZE - 1) / BLKSIZE; i++) {
  801ab8:	c7 45 fc 00 00 00 00 	movl   $0x0,-0x4(%rbp)
  801abf:	eb 63                	jmp    801b24 <file_flush+0x78>
		if (file_block_walk(f, i, &pdiskbno, 0) < 0 ||
  801ac1:	8b 75 fc             	mov    -0x4(%rbp),%esi
  801ac4:	48 8d 55 f0          	lea    -0x10(%rbp),%rdx
  801ac8:	48 8b 45 e8          	mov    -0x18(%rbp),%rax
  801acc:	b9 00 00 00 00       	mov    $0x0,%ecx
  801ad1:	48 89 c7             	mov    %rax,%rdi
  801ad4:	48 b8 d4 0e 80 00 00 	movabs $0x800ed4,%rax
  801adb:	00 00 00 
  801ade:	ff d0                	callq  *%rax
  801ae0:	85 c0                	test   %eax,%eax
  801ae2:	78 3b                	js     801b1f <file_flush+0x73>
		    pdiskbno == NULL || *pdiskbno == 0)
  801ae4:	48 8b 45 f0          	mov    -0x10(%rbp),%rax
{
	int i;
	uint32_t *pdiskbno;

	for (i = 0; i < (f->f_size + BLKSIZE - 1) / BLKSIZE; i++) {
		if (file_block_walk(f, i, &pdiskbno, 0) < 0 ||
  801ae8:	48 85 c0             	test   %rax,%rax
  801aeb:	74 32                	je     801b1f <file_flush+0x73>
		    pdiskbno == NULL || *pdiskbno == 0)
  801aed:	48 8b 45 f0          	mov    -0x10(%rbp),%rax
  801af1:	8b 00                	mov    (%rax),%eax
  801af3:	85 c0                	test   %eax,%eax
  801af5:	74 28                	je     801b1f <file_flush+0x73>
			continue;
		flush_block(diskaddr(*pdiskbno));
  801af7:	48 8b 45 f0          	mov    -0x10(%rbp),%rax
  801afb:	8b 00                	mov    (%rax),%eax
  801afd:	89 c0                	mov    %eax,%eax
  801aff:	48 89 c7             	mov    %rax,%rdi
  801b02:	48 b8 dc 04 80 00 00 	movabs $0x8004dc,%rax
  801b09:	00 00 00 
  801b0c:	ff d0                	callq  *%rax
  801b0e:	48 89 c7             	mov    %rax,%rdi
  801b11:	48 b8 e2 07 80 00 00 	movabs $0x8007e2,%rax
  801b18:	00 00 00 
  801b1b:	ff d0                	callq  *%rax
  801b1d:	eb 01                	jmp    801b20 <file_flush+0x74>
	uint32_t *pdiskbno;

	for (i = 0; i < (f->f_size + BLKSIZE - 1) / BLKSIZE; i++) {
		if (file_block_walk(f, i, &pdiskbno, 0) < 0 ||
		    pdiskbno == NULL || *pdiskbno == 0)
			continue;
  801b1f:	90                   	nop
file_flush(struct File *f)
{
	int i;
	uint32_t *pdiskbno;

	for (i = 0; i < (f->f_size + BLKSIZE - 1) / BLKSIZE; i++) {
  801b20:	83 45 fc 01          	addl   $0x1,-0x4(%rbp)
  801b24:	48 8b 45 e8          	mov    -0x18(%rbp),%rax
  801b28:	8b 80 80 00 00 00    	mov    0x80(%rax),%eax
  801b2e:	05 ff 0f 00 00       	add    $0xfff,%eax
  801b33:	8d 90 ff 0f 00 00    	lea    0xfff(%rax),%edx
  801b39:	85 c0                	test   %eax,%eax
  801b3b:	0f 48 c2             	cmovs  %edx,%eax
  801b3e:	c1 f8 0c             	sar    $0xc,%eax
  801b41:	3b 45 fc             	cmp    -0x4(%rbp),%eax
  801b44:	0f 8f 77 ff ff ff    	jg     801ac1 <file_flush+0x15>
		if (file_block_walk(f, i, &pdiskbno, 0) < 0 ||
		    pdiskbno == NULL || *pdiskbno == 0)
			continue;
		flush_block(diskaddr(*pdiskbno));
	}
	flush_block(f);
  801b4a:	48 8b 45 e8          	mov    -0x18(%rbp),%rax
  801b4e:	48 89 c7             	mov    %rax,%rdi
  801b51:	48 b8 e2 07 80 00 00 	movabs $0x8007e2,%rax
  801b58:	00 00 00 
  801b5b:	ff d0                	callq  *%rax
	if (f->f_indirect)
  801b5d:	48 8b 45 e8          	mov    -0x18(%rbp),%rax
  801b61:	8b 80 b0 00 00 00    	mov    0xb0(%rax),%eax
  801b67:	85 c0                	test   %eax,%eax
  801b69:	74 2a                	je     801b95 <file_flush+0xe9>
		flush_block(diskaddr(f->f_indirect));
  801b6b:	48 8b 45 e8          	mov    -0x18(%rbp),%rax
  801b6f:	8b 80 b0 00 00 00    	mov    0xb0(%rax),%eax
  801b75:	89 c0                	mov    %eax,%eax
  801b77:	48 89 c7             	mov    %rax,%rdi
  801b7a:	48 b8 dc 04 80 00 00 	movabs $0x8004dc,%rax
  801b81:	00 00 00 
  801b84:	ff d0                	callq  *%rax
  801b86:	48 89 c7             	mov    %rax,%rdi
  801b89:	48 b8 e2 07 80 00 00 	movabs $0x8007e2,%rax
  801b90:	00 00 00 
  801b93:	ff d0                	callq  *%rax
}
  801b95:	c9                   	leaveq 
  801b96:	c3                   	retq   

0000000000801b97 <file_remove>:

// Remove a file by truncating it and then zeroing the name.
int
file_remove(const char *path)
{
  801b97:	55                   	push   %rbp
  801b98:	48 89 e5             	mov    %rsp,%rbp
  801b9b:	48 83 ec 20          	sub    $0x20,%rsp
  801b9f:	48 89 7d e8          	mov    %rdi,-0x18(%rbp)
	int r;
	struct File *f;

	if ((r = walk_path(path, 0, &f, 0)) < 0)
  801ba3:	48 8d 55 f0          	lea    -0x10(%rbp),%rdx
  801ba7:	48 8b 45 e8          	mov    -0x18(%rbp),%rax
  801bab:	b9 00 00 00 00       	mov    $0x0,%ecx
  801bb0:	be 00 00 00 00       	mov    $0x0,%esi
  801bb5:	48 89 c7             	mov    %rax,%rdi
  801bb8:	48 b8 d1 12 80 00 00 	movabs $0x8012d1,%rax
  801bbf:	00 00 00 
  801bc2:	ff d0                	callq  *%rax
  801bc4:	89 45 fc             	mov    %eax,-0x4(%rbp)
  801bc7:	83 7d fc 00          	cmpl   $0x0,-0x4(%rbp)
  801bcb:	79 05                	jns    801bd2 <file_remove+0x3b>
		return r;
  801bcd:	8b 45 fc             	mov    -0x4(%rbp),%eax
  801bd0:	eb 45                	jmp    801c17 <file_remove+0x80>

	file_truncate_blocks(f, 0);
  801bd2:	48 8b 45 f0          	mov    -0x10(%rbp),%rax
  801bd6:	be 00 00 00 00       	mov    $0x0,%esi
  801bdb:	48 89 c7             	mov    %rax,%rdi
  801bde:	48 b8 76 19 80 00 00 	movabs $0x801976,%rax
  801be5:	00 00 00 
  801be8:	ff d0                	callq  *%rax
	f->f_name[0] = '\0';
  801bea:	48 8b 45 f0          	mov    -0x10(%rbp),%rax
  801bee:	c6 00 00             	movb   $0x0,(%rax)
	f->f_size = 0;
  801bf1:	48 8b 45 f0          	mov    -0x10(%rbp),%rax
  801bf5:	c7 80 80 00 00 00 00 	movl   $0x0,0x80(%rax)
  801bfc:	00 00 00 
	flush_block(f);
  801bff:	48 8b 45 f0          	mov    -0x10(%rbp),%rax
  801c03:	48 89 c7             	mov    %rax,%rdi
  801c06:	48 b8 e2 07 80 00 00 	movabs $0x8007e2,%rax
  801c0d:	00 00 00 
  801c10:	ff d0                	callq  *%rax

	return 0;
  801c12:	b8 00 00 00 00       	mov    $0x0,%eax
}
  801c17:	c9                   	leaveq 
  801c18:	c3                   	retq   

0000000000801c19 <fs_sync>:

// Sync the entire file system.  A big hammer.
void
fs_sync(void)
{
  801c19:	55                   	push   %rbp
  801c1a:	48 89 e5             	mov    %rsp,%rbp
  801c1d:	48 83 ec 10          	sub    $0x10,%rsp
	int i;
	for (i = 1; i < super->s_nblocks; i++)
  801c21:	c7 45 fc 01 00 00 00 	movl   $0x1,-0x4(%rbp)
  801c28:	eb 27                	jmp    801c51 <fs_sync+0x38>
		flush_block(diskaddr(i));
  801c2a:	8b 45 fc             	mov    -0x4(%rbp),%eax
  801c2d:	48 98                	cltq   
  801c2f:	48 89 c7             	mov    %rax,%rdi
  801c32:	48 b8 dc 04 80 00 00 	movabs $0x8004dc,%rax
  801c39:	00 00 00 
  801c3c:	ff d0                	callq  *%rax
  801c3e:	48 89 c7             	mov    %rax,%rdi
  801c41:	48 b8 e2 07 80 00 00 	movabs $0x8007e2,%rax
  801c48:	00 00 00 
  801c4b:	ff d0                	callq  *%rax
// Sync the entire file system.  A big hammer.
void
fs_sync(void)
{
	int i;
	for (i = 1; i < super->s_nblocks; i++)
  801c4d:	83 45 fc 01          	addl   $0x1,-0x4(%rbp)
  801c51:	8b 55 fc             	mov    -0x4(%rbp),%edx
  801c54:	48 b8 10 20 81 00 00 	movabs $0x812010,%rax
  801c5b:	00 00 00 
  801c5e:	48 8b 00             	mov    (%rax),%rax
  801c61:	8b 40 04             	mov    0x4(%rax),%eax
  801c64:	39 c2                	cmp    %eax,%edx
  801c66:	72 c2                	jb     801c2a <fs_sync+0x11>
		flush_block(diskaddr(i));
}
  801c68:	c9                   	leaveq 
  801c69:	c3                   	retq   
	...

0000000000801c6c <serve_init>:
// Virtual address at which to receive page mappings containing client requests.
union Fsipc *fsreq = (union Fsipc *)0x0ffff000;

void
serve_init(void)
{
  801c6c:	55                   	push   %rbp
  801c6d:	48 89 e5             	mov    %rsp,%rbp
  801c70:	48 83 ec 10          	sub    $0x10,%rsp
	int i;
	uintptr_t va = FILEVA;
  801c74:	c7 45 f0 00 00 00 d0 	movl   $0xd0000000,-0x10(%rbp)
  801c7b:	c7 45 f4 00 00 00 00 	movl   $0x0,-0xc(%rbp)
	for (i = 0; i < MAXOPEN; i++) {
  801c82:	c7 45 fc 00 00 00 00 	movl   $0x0,-0x4(%rbp)
  801c89:	eb 4b                	jmp    801cd6 <serve_init+0x6a>
		opentab[i].o_fileid = i;
  801c8b:	8b 45 fc             	mov    -0x4(%rbp),%eax
  801c8e:	48 ba 20 90 80 00 00 	movabs $0x809020,%rdx
  801c95:	00 00 00 
  801c98:	8b 4d fc             	mov    -0x4(%rbp),%ecx
  801c9b:	48 63 c9             	movslq %ecx,%rcx
  801c9e:	48 c1 e1 05          	shl    $0x5,%rcx
  801ca2:	48 01 ca             	add    %rcx,%rdx
  801ca5:	89 02                	mov    %eax,(%rdx)
		opentab[i].o_fd = (struct Fd*) va;
  801ca7:	48 8b 45 f0          	mov    -0x10(%rbp),%rax
  801cab:	48 ba 20 90 80 00 00 	movabs $0x809020,%rdx
  801cb2:	00 00 00 
  801cb5:	8b 4d fc             	mov    -0x4(%rbp),%ecx
  801cb8:	48 63 c9             	movslq %ecx,%rcx
  801cbb:	48 c1 e1 05          	shl    $0x5,%rcx
  801cbf:	48 01 ca             	add    %rcx,%rdx
  801cc2:	48 83 c2 10          	add    $0x10,%rdx
  801cc6:	48 89 42 08          	mov    %rax,0x8(%rdx)
		va += PGSIZE;
  801cca:	48 81 45 f0 00 10 00 	addq   $0x1000,-0x10(%rbp)
  801cd1:	00 
void
serve_init(void)
{
	int i;
	uintptr_t va = FILEVA;
	for (i = 0; i < MAXOPEN; i++) {
  801cd2:	83 45 fc 01          	addl   $0x1,-0x4(%rbp)
  801cd6:	81 7d fc ff 03 00 00 	cmpl   $0x3ff,-0x4(%rbp)
  801cdd:	7e ac                	jle    801c8b <serve_init+0x1f>
		opentab[i].o_fileid = i;
		opentab[i].o_fd = (struct Fd*) va;
		va += PGSIZE;
	}
}
  801cdf:	c9                   	leaveq 
  801ce0:	c3                   	retq   

0000000000801ce1 <openfile_alloc>:

// Allocate an open file.
int
openfile_alloc(struct OpenFile **o)
{
  801ce1:	55                   	push   %rbp
  801ce2:	48 89 e5             	mov    %rsp,%rbp
  801ce5:	48 83 ec 20          	sub    $0x20,%rsp
  801ce9:	48 89 7d e8          	mov    %rdi,-0x18(%rbp)
	int i, r;

	// Find an available open-file table entry
	for (i = 0; i < MAXOPEN; i++) {
  801ced:	c7 45 fc 00 00 00 00 	movl   $0x0,-0x4(%rbp)
  801cf4:	e9 24 01 00 00       	jmpq   801e1d <openfile_alloc+0x13c>
		switch (pageref(opentab[i].o_fd)) {
  801cf9:	48 b8 20 90 80 00 00 	movabs $0x809020,%rax
  801d00:	00 00 00 
  801d03:	8b 55 fc             	mov    -0x4(%rbp),%edx
  801d06:	48 63 d2             	movslq %edx,%rdx
  801d09:	48 c1 e2 05          	shl    $0x5,%rdx
  801d0d:	48 01 d0             	add    %rdx,%rax
  801d10:	48 83 c0 10          	add    $0x10,%rax
  801d14:	48 8b 40 08          	mov    0x8(%rax),%rax
  801d18:	48 89 c7             	mov    %rax,%rdi
  801d1b:	48 b8 3c 58 80 00 00 	movabs $0x80583c,%rax
  801d22:	00 00 00 
  801d25:	ff d0                	callq  *%rax
  801d27:	85 c0                	test   %eax,%eax
  801d29:	74 0a                	je     801d35 <openfile_alloc+0x54>
  801d2b:	83 f8 01             	cmp    $0x1,%eax
  801d2e:	74 4e                	je     801d7e <openfile_alloc+0x9d>
  801d30:	e9 e4 00 00 00       	jmpq   801e19 <openfile_alloc+0x138>
		case 0:
			if ((r = sys_page_alloc(0, opentab[i].o_fd, PTE_P|PTE_U|PTE_W)) < 0)
  801d35:	48 b8 20 90 80 00 00 	movabs $0x809020,%rax
  801d3c:	00 00 00 
  801d3f:	8b 55 fc             	mov    -0x4(%rbp),%edx
  801d42:	48 63 d2             	movslq %edx,%rdx
  801d45:	48 c1 e2 05          	shl    $0x5,%rdx
  801d49:	48 01 d0             	add    %rdx,%rax
  801d4c:	48 83 c0 10          	add    $0x10,%rax
  801d50:	48 8b 40 08          	mov    0x8(%rax),%rax
  801d54:	ba 07 00 00 00       	mov    $0x7,%edx
  801d59:	48 89 c6             	mov    %rax,%rsi
  801d5c:	bf 00 00 00 00       	mov    $0x0,%edi
  801d61:	48 b8 84 45 80 00 00 	movabs $0x804584,%rax
  801d68:	00 00 00 
  801d6b:	ff d0                	callq  *%rax
  801d6d:	89 45 f8             	mov    %eax,-0x8(%rbp)
  801d70:	83 7d f8 00          	cmpl   $0x0,-0x8(%rbp)
  801d74:	79 08                	jns    801d7e <openfile_alloc+0x9d>
				return r;
  801d76:	8b 45 f8             	mov    -0x8(%rbp),%eax
  801d79:	e9 b1 00 00 00       	jmpq   801e2f <openfile_alloc+0x14e>
			/* fall through */
		case 1:
			opentab[i].o_fileid += MAXOPEN;
  801d7e:	48 b8 20 90 80 00 00 	movabs $0x809020,%rax
  801d85:	00 00 00 
  801d88:	8b 55 fc             	mov    -0x4(%rbp),%edx
  801d8b:	48 63 d2             	movslq %edx,%rdx
  801d8e:	48 c1 e2 05          	shl    $0x5,%rdx
  801d92:	48 01 d0             	add    %rdx,%rax
  801d95:	8b 00                	mov    (%rax),%eax
  801d97:	8d 90 00 04 00 00    	lea    0x400(%rax),%edx
  801d9d:	48 b8 20 90 80 00 00 	movabs $0x809020,%rax
  801da4:	00 00 00 
  801da7:	8b 4d fc             	mov    -0x4(%rbp),%ecx
  801daa:	48 63 c9             	movslq %ecx,%rcx
  801dad:	48 c1 e1 05          	shl    $0x5,%rcx
  801db1:	48 01 c8             	add    %rcx,%rax
  801db4:	89 10                	mov    %edx,(%rax)
			*o = &opentab[i];
  801db6:	8b 45 fc             	mov    -0x4(%rbp),%eax
  801db9:	48 98                	cltq   
  801dbb:	48 89 c2             	mov    %rax,%rdx
  801dbe:	48 c1 e2 05          	shl    $0x5,%rdx
  801dc2:	48 b8 20 90 80 00 00 	movabs $0x809020,%rax
  801dc9:	00 00 00 
  801dcc:	48 01 c2             	add    %rax,%rdx
  801dcf:	48 8b 45 e8          	mov    -0x18(%rbp),%rax
  801dd3:	48 89 10             	mov    %rdx,(%rax)
			memset(opentab[i].o_fd, 0, PGSIZE);
  801dd6:	48 b8 20 90 80 00 00 	movabs $0x809020,%rax
  801ddd:	00 00 00 
  801de0:	8b 55 fc             	mov    -0x4(%rbp),%edx
  801de3:	48 63 d2             	movslq %edx,%rdx
  801de6:	48 c1 e2 05          	shl    $0x5,%rdx
  801dea:	48 01 d0             	add    %rdx,%rax
  801ded:	48 83 c0 10          	add    $0x10,%rax
  801df1:	48 8b 40 08          	mov    0x8(%rax),%rax
  801df5:	ba 00 10 00 00       	mov    $0x1000,%edx
  801dfa:	be 00 00 00 00       	mov    $0x0,%esi
  801dff:	48 89 c7             	mov    %rax,%rdi
  801e02:	48 b8 e3 3e 80 00 00 	movabs $0x803ee3,%rax
  801e09:	00 00 00 
  801e0c:	ff d0                	callq  *%rax
			return (*o)->o_fileid;
  801e0e:	48 8b 45 e8          	mov    -0x18(%rbp),%rax
  801e12:	48 8b 00             	mov    (%rax),%rax
  801e15:	8b 00                	mov    (%rax),%eax
  801e17:	eb 16                	jmp    801e2f <openfile_alloc+0x14e>
openfile_alloc(struct OpenFile **o)
{
	int i, r;

	// Find an available open-file table entry
	for (i = 0; i < MAXOPEN; i++) {
  801e19:	83 45 fc 01          	addl   $0x1,-0x4(%rbp)
  801e1d:	81 7d fc ff 03 00 00 	cmpl   $0x3ff,-0x4(%rbp)
  801e24:	0f 8e cf fe ff ff    	jle    801cf9 <openfile_alloc+0x18>
			*o = &opentab[i];
			memset(opentab[i].o_fd, 0, PGSIZE);
			return (*o)->o_fileid;
		}
	}
	return -E_MAX_OPEN;
  801e2a:	b8 f5 ff ff ff       	mov    $0xfffffff5,%eax
}
  801e2f:	c9                   	leaveq 
  801e30:	c3                   	retq   

0000000000801e31 <openfile_lookup>:

// Look up an open file for envid.
int
openfile_lookup(envid_t envid, uint32_t fileid, struct OpenFile **po)
{
  801e31:	55                   	push   %rbp
  801e32:	48 89 e5             	mov    %rsp,%rbp
  801e35:	48 83 ec 20          	sub    $0x20,%rsp
  801e39:	89 7d ec             	mov    %edi,-0x14(%rbp)
  801e3c:	89 75 e8             	mov    %esi,-0x18(%rbp)
  801e3f:	48 89 55 e0          	mov    %rdx,-0x20(%rbp)
	struct OpenFile *o;

	o = &opentab[fileid % MAXOPEN];
  801e43:	8b 45 e8             	mov    -0x18(%rbp),%eax
  801e46:	25 ff 03 00 00       	and    $0x3ff,%eax
  801e4b:	48 89 c2             	mov    %rax,%rdx
  801e4e:	48 c1 e2 05          	shl    $0x5,%rdx
  801e52:	48 b8 20 90 80 00 00 	movabs $0x809020,%rax
  801e59:	00 00 00 
  801e5c:	48 01 d0             	add    %rdx,%rax
  801e5f:	48 89 45 f8          	mov    %rax,-0x8(%rbp)
	if (pageref(o->o_fd) == 1 || o->o_fileid != fileid)
  801e63:	48 8b 45 f8          	mov    -0x8(%rbp),%rax
  801e67:	48 8b 40 18          	mov    0x18(%rax),%rax
  801e6b:	48 89 c7             	mov    %rax,%rdi
  801e6e:	48 b8 3c 58 80 00 00 	movabs $0x80583c,%rax
  801e75:	00 00 00 
  801e78:	ff d0                	callq  *%rax
  801e7a:	83 f8 01             	cmp    $0x1,%eax
  801e7d:	74 0b                	je     801e8a <openfile_lookup+0x59>
  801e7f:	48 8b 45 f8          	mov    -0x8(%rbp),%rax
  801e83:	8b 00                	mov    (%rax),%eax
  801e85:	3b 45 e8             	cmp    -0x18(%rbp),%eax
  801e88:	74 07                	je     801e91 <openfile_lookup+0x60>
		return -E_INVAL;
  801e8a:	b8 fd ff ff ff       	mov    $0xfffffffd,%eax
  801e8f:	eb 10                	jmp    801ea1 <openfile_lookup+0x70>
	*po = o;
  801e91:	48 8b 45 e0          	mov    -0x20(%rbp),%rax
  801e95:	48 8b 55 f8          	mov    -0x8(%rbp),%rdx
  801e99:	48 89 10             	mov    %rdx,(%rax)
	return 0;
  801e9c:	b8 00 00 00 00       	mov    $0x0,%eax
}
  801ea1:	c9                   	leaveq 
  801ea2:	c3                   	retq   

0000000000801ea3 <serve_open>:
// permissions to return to the calling environment in *pg_store and
// *perm_store respectively.
int
serve_open(envid_t envid, struct Fsreq_open *req,
	   void **pg_store, int *perm_store)
{
  801ea3:	55                   	push   %rbp
  801ea4:	48 89 e5             	mov    %rsp,%rbp
  801ea7:	48 81 ec 40 04 00 00 	sub    $0x440,%rsp
  801eae:	89 bd dc fb ff ff    	mov    %edi,-0x424(%rbp)
  801eb4:	48 89 b5 d0 fb ff ff 	mov    %rsi,-0x430(%rbp)
  801ebb:	48 89 95 c8 fb ff ff 	mov    %rdx,-0x438(%rbp)
  801ec2:	48 89 8d c0 fb ff ff 	mov    %rcx,-0x440(%rbp)

	if (debug)
		cprintf("serve_open %08x %s 0x%x\n", envid, req->req_path, req->req_omode);

	// Copy in the path, making sure it's null-terminated
	memmove(path, req->req_path, MAXPATHLEN);
  801ec9:	48 8b 8d d0 fb ff ff 	mov    -0x430(%rbp),%rcx
  801ed0:	48 8d 85 f0 fb ff ff 	lea    -0x410(%rbp),%rax
  801ed7:	ba 00 04 00 00       	mov    $0x400,%edx
  801edc:	48 89 ce             	mov    %rcx,%rsi
  801edf:	48 89 c7             	mov    %rax,%rdi
  801ee2:	48 b8 6e 3f 80 00 00 	movabs $0x803f6e,%rax
  801ee9:	00 00 00 
  801eec:	ff d0                	callq  *%rax
	path[MAXPATHLEN-1] = 0;
  801eee:	c6 45 ef 00          	movb   $0x0,-0x11(%rbp)

	// Find an open file ID
	if ((r = openfile_alloc(&o)) < 0) {
  801ef2:	48 8d 85 e0 fb ff ff 	lea    -0x420(%rbp),%rax
  801ef9:	48 89 c7             	mov    %rax,%rdi
  801efc:	48 b8 e1 1c 80 00 00 	movabs $0x801ce1,%rax
  801f03:	00 00 00 
  801f06:	ff d0                	callq  *%rax
  801f08:	89 45 fc             	mov    %eax,-0x4(%rbp)
  801f0b:	83 7d fc 00          	cmpl   $0x0,-0x4(%rbp)
  801f0f:	79 08                	jns    801f19 <serve_open+0x76>
		if (debug)
			cprintf("openfile_alloc failed: %e", r);
		return r;
  801f11:	8b 45 fc             	mov    -0x4(%rbp),%eax
  801f14:	e9 7b 01 00 00       	jmpq   802094 <serve_open+0x1f1>
	}
	fileid = r;
  801f19:	8b 45 fc             	mov    -0x4(%rbp),%eax
  801f1c:	89 45 f8             	mov    %eax,-0x8(%rbp)

	// Open the file
	if (req->req_omode & O_CREAT) {
  801f1f:	48 8b 85 d0 fb ff ff 	mov    -0x430(%rbp),%rax
  801f26:	8b 80 00 04 00 00    	mov    0x400(%rax),%eax
  801f2c:	25 00 01 00 00       	and    $0x100,%eax
  801f31:	85 c0                	test   %eax,%eax
  801f33:	74 4e                	je     801f83 <serve_open+0xe0>
		if ((r = file_create(path, &f)) < 0) {
  801f35:	48 8d 95 e8 fb ff ff 	lea    -0x418(%rbp),%rdx
  801f3c:	48 8d 85 f0 fb ff ff 	lea    -0x410(%rbp),%rax
  801f43:	48 89 d6             	mov    %rdx,%rsi
  801f46:	48 89 c7             	mov    %rax,%rdi
  801f49:	48 b8 25 15 80 00 00 	movabs $0x801525,%rax
  801f50:	00 00 00 
  801f53:	ff d0                	callq  *%rax
  801f55:	89 45 fc             	mov    %eax,-0x4(%rbp)
  801f58:	83 7d fc 00          	cmpl   $0x0,-0x4(%rbp)
  801f5c:	79 56                	jns    801fb4 <serve_open+0x111>
			if (!(req->req_omode & O_EXCL) && r == -E_FILE_EXISTS)
  801f5e:	48 8b 85 d0 fb ff ff 	mov    -0x430(%rbp),%rax
  801f65:	8b 80 00 04 00 00    	mov    0x400(%rax),%eax
  801f6b:	25 00 04 00 00       	and    $0x400,%eax
  801f70:	85 c0                	test   %eax,%eax
  801f72:	75 06                	jne    801f7a <serve_open+0xd7>
  801f74:	83 7d fc f2          	cmpl   $0xfffffff2,-0x4(%rbp)
  801f78:	74 08                	je     801f82 <serve_open+0xdf>
				goto try_open;
			if (debug)
				cprintf("file_create failed: %e", r);
			return r;
  801f7a:	8b 45 fc             	mov    -0x4(%rbp),%eax
  801f7d:	e9 12 01 00 00       	jmpq   802094 <serve_open+0x1f1>

	// Open the file
	if (req->req_omode & O_CREAT) {
		if ((r = file_create(path, &f)) < 0) {
			if (!(req->req_omode & O_EXCL) && r == -E_FILE_EXISTS)
				goto try_open;
  801f82:	90                   	nop
				cprintf("file_create failed: %e", r);
			return r;
		}
	} else {
	try_open:
		if ((r = file_open(path, &f)) < 0) {
  801f83:	48 8d 95 e8 fb ff ff 	lea    -0x418(%rbp),%rdx
  801f8a:	48 8d 85 f0 fb ff ff 	lea    -0x410(%rbp),%rax
  801f91:	48 89 d6             	mov    %rdx,%rsi
  801f94:	48 89 c7             	mov    %rax,%rdi
  801f97:	48 b8 0f 16 80 00 00 	movabs $0x80160f,%rax
  801f9e:	00 00 00 
  801fa1:	ff d0                	callq  *%rax
  801fa3:	89 45 fc             	mov    %eax,-0x4(%rbp)
  801fa6:	83 7d fc 00          	cmpl   $0x0,-0x4(%rbp)
  801faa:	79 08                	jns    801fb4 <serve_open+0x111>
			if (debug)
				cprintf("file_open failed: %e", r);
			return r;
  801fac:	8b 45 fc             	mov    -0x4(%rbp),%eax
  801faf:	e9 e0 00 00 00       	jmpq   802094 <serve_open+0x1f1>
		}
	}

	// Truncate
	if (req->req_omode & O_TRUNC) {
  801fb4:	48 8b 85 d0 fb ff ff 	mov    -0x430(%rbp),%rax
  801fbb:	8b 80 00 04 00 00    	mov    0x400(%rax),%eax
  801fc1:	25 00 02 00 00       	and    $0x200,%eax
  801fc6:	85 c0                	test   %eax,%eax
  801fc8:	74 2c                	je     801ff6 <serve_open+0x153>
		if ((r = file_set_size(f, 0)) < 0) {
  801fca:	48 8b 85 e8 fb ff ff 	mov    -0x418(%rbp),%rax
  801fd1:	be 00 00 00 00       	mov    $0x0,%esi
  801fd6:	48 89 c7             	mov    %rax,%rdi
  801fd9:	48 b8 4f 1a 80 00 00 	movabs $0x801a4f,%rax
  801fe0:	00 00 00 
  801fe3:	ff d0                	callq  *%rax
  801fe5:	89 45 fc             	mov    %eax,-0x4(%rbp)
  801fe8:	83 7d fc 00          	cmpl   $0x0,-0x4(%rbp)
  801fec:	79 08                	jns    801ff6 <serve_open+0x153>
			if (debug)
				cprintf("file_set_size failed: %e", r);
			return r;
  801fee:	8b 45 fc             	mov    -0x4(%rbp),%eax
  801ff1:	e9 9e 00 00 00       	jmpq   802094 <serve_open+0x1f1>
		}
	}

	// Save the file pointer
	o->o_file = f;
  801ff6:	48 8b 85 e0 fb ff ff 	mov    -0x420(%rbp),%rax
  801ffd:	48 8b 95 e8 fb ff ff 	mov    -0x418(%rbp),%rdx
  802004:	48 89 50 08          	mov    %rdx,0x8(%rax)

	// Fill out the Fd structure
	o->o_fd->fd_file.id = o->o_fileid;
  802008:	48 8b 85 e0 fb ff ff 	mov    -0x420(%rbp),%rax
  80200f:	48 8b 40 18          	mov    0x18(%rax),%rax
  802013:	48 8b 95 e0 fb ff ff 	mov    -0x420(%rbp),%rdx
  80201a:	8b 12                	mov    (%rdx),%edx
  80201c:	89 50 0c             	mov    %edx,0xc(%rax)
	o->o_fd->fd_omode = req->req_omode & O_ACCMODE;
  80201f:	48 8b 85 e0 fb ff ff 	mov    -0x420(%rbp),%rax
  802026:	48 8b 40 18          	mov    0x18(%rax),%rax
  80202a:	48 8b 95 d0 fb ff ff 	mov    -0x430(%rbp),%rdx
  802031:	8b 92 00 04 00 00    	mov    0x400(%rdx),%edx
  802037:	83 e2 03             	and    $0x3,%edx
  80203a:	89 50 08             	mov    %edx,0x8(%rax)
	o->o_fd->fd_dev_id = devfile.dev_id;
  80203d:	48 8b 85 e0 fb ff ff 	mov    -0x420(%rbp),%rax
  802044:	48 8b 40 18          	mov    0x18(%rax),%rax
  802048:	48 ba e0 10 81 00 00 	movabs $0x8110e0,%rdx
  80204f:	00 00 00 
  802052:	8b 12                	mov    (%rdx),%edx
  802054:	89 10                	mov    %edx,(%rax)
	o->o_mode = req->req_omode;
  802056:	48 8b 85 e0 fb ff ff 	mov    -0x420(%rbp),%rax
  80205d:	48 8b 95 d0 fb ff ff 	mov    -0x430(%rbp),%rdx
  802064:	8b 92 00 04 00 00    	mov    0x400(%rdx),%edx
  80206a:	89 50 10             	mov    %edx,0x10(%rax)
	if (debug)
		cprintf("sending success, page %08x\n", (uintptr_t) o->o_fd);

	// Share the FD page with the caller by setting *pg_store,
	// store its permission in *perm_store
	*pg_store = o->o_fd;
  80206d:	48 8b 85 e0 fb ff ff 	mov    -0x420(%rbp),%rax
  802074:	48 8b 50 18          	mov    0x18(%rax),%rdx
  802078:	48 8b 85 c8 fb ff ff 	mov    -0x438(%rbp),%rax
  80207f:	48 89 10             	mov    %rdx,(%rax)
	*perm_store = PTE_P|PTE_U|PTE_W|PTE_SHARE;
  802082:	48 8b 85 c0 fb ff ff 	mov    -0x440(%rbp),%rax
  802089:	c7 00 07 04 00 00    	movl   $0x407,(%rax)

	return 0;
  80208f:	b8 00 00 00 00       	mov    $0x0,%eax
}
  802094:	c9                   	leaveq 
  802095:	c3                   	retq   

0000000000802096 <serve_set_size>:

// Set the size of req->req_fileid to req->req_size bytes, truncating
// or extending the file as necessary.
int
serve_set_size(envid_t envid, struct Fsreq_set_size *req)
{
  802096:	55                   	push   %rbp
  802097:	48 89 e5             	mov    %rsp,%rbp
  80209a:	48 83 ec 20          	sub    $0x20,%rsp
  80209e:	89 7d ec             	mov    %edi,-0x14(%rbp)
  8020a1:	48 89 75 e0          	mov    %rsi,-0x20(%rbp)
	// Every file system IPC call has the same general structure.
	// Here's how it goes.

	// First, use openfile_lookup to find the relevant open file.
	// On failure, return the error code to the client with ipc_send.
	if ((r = openfile_lookup(envid, req->req_fileid, &o)) < 0)
  8020a5:	48 8b 45 e0          	mov    -0x20(%rbp),%rax
  8020a9:	8b 00                	mov    (%rax),%eax
  8020ab:	89 c1                	mov    %eax,%ecx
  8020ad:	48 8d 55 f0          	lea    -0x10(%rbp),%rdx
  8020b1:	8b 45 ec             	mov    -0x14(%rbp),%eax
  8020b4:	89 ce                	mov    %ecx,%esi
  8020b6:	89 c7                	mov    %eax,%edi
  8020b8:	48 b8 31 1e 80 00 00 	movabs $0x801e31,%rax
  8020bf:	00 00 00 
  8020c2:	ff d0                	callq  *%rax
  8020c4:	89 45 fc             	mov    %eax,-0x4(%rbp)
  8020c7:	83 7d fc 00          	cmpl   $0x0,-0x4(%rbp)
  8020cb:	79 05                	jns    8020d2 <serve_set_size+0x3c>
		return r;
  8020cd:	8b 45 fc             	mov    -0x4(%rbp),%eax
  8020d0:	eb 20                	jmp    8020f2 <serve_set_size+0x5c>

	// Second, call the relevant file system function (from fs/fs.c).
	// On failure, return the error code to the client.
	return file_set_size(o->o_file, req->req_size);
  8020d2:	48 8b 45 e0          	mov    -0x20(%rbp),%rax
  8020d6:	8b 50 04             	mov    0x4(%rax),%edx
  8020d9:	48 8b 45 f0          	mov    -0x10(%rbp),%rax
  8020dd:	48 8b 40 08          	mov    0x8(%rax),%rax
  8020e1:	89 d6                	mov    %edx,%esi
  8020e3:	48 89 c7             	mov    %rax,%rdi
  8020e6:	48 b8 4f 1a 80 00 00 	movabs $0x801a4f,%rax
  8020ed:	00 00 00 
  8020f0:	ff d0                	callq  *%rax
}
  8020f2:	c9                   	leaveq 
  8020f3:	c3                   	retq   

00000000008020f4 <serve_read>:
// in ipc->read.req_fileid.  Return the bytes read from the file to
// the caller in ipc->readRet, then update the seek position.  Returns
// the number of bytes successfully read, or < 0 on error.
int
serve_read(envid_t envid, union Fsipc *ipc)
{
  8020f4:	55                   	push   %rbp
  8020f5:	48 89 e5             	mov    %rsp,%rbp
  8020f8:	48 83 ec 40          	sub    $0x40,%rsp
  8020fc:	89 7d cc             	mov    %edi,-0x34(%rbp)
  8020ff:	48 89 75 c0          	mov    %rsi,-0x40(%rbp)
	struct Fsreq_read *req = &ipc->read;
  802103:	48 8b 45 c0          	mov    -0x40(%rbp),%rax
  802107:	48 89 45 f8          	mov    %rax,-0x8(%rbp)
	struct Fsret_read *ret = &ipc->readRet;
  80210b:	48 8b 45 c0          	mov    -0x40(%rbp),%rax
  80210f:	48 89 45 f0          	mov    %rax,-0x10(%rbp)
	// so filling in ret will overwrite req.
	//
	// LAB 5: Your code here
	//panic("serve_read not implemented");
	struct OpenFile *po;
	int r = openfile_lookup(envid, req->req_fileid, &po);
  802113:	48 8b 45 f8          	mov    -0x8(%rbp),%rax
  802117:	8b 00                	mov    (%rax),%eax
  802119:	89 c1                	mov    %eax,%ecx
  80211b:	48 8d 55 d0          	lea    -0x30(%rbp),%rdx
  80211f:	8b 45 cc             	mov    -0x34(%rbp),%eax
  802122:	89 ce                	mov    %ecx,%esi
  802124:	89 c7                	mov    %eax,%edi
  802126:	48 b8 31 1e 80 00 00 	movabs $0x801e31,%rax
  80212d:	00 00 00 
  802130:	ff d0                	callq  *%rax
  802132:	89 45 ec             	mov    %eax,-0x14(%rbp)
	if (r < 0) {
  802135:	83 7d ec 00          	cmpl   $0x0,-0x14(%rbp)
  802139:	79 25                	jns    802160 <serve_read+0x6c>
		cprintf("somwthing wrong in lookup %e", r);
  80213b:	8b 45 ec             	mov    -0x14(%rbp),%eax
  80213e:	89 c6                	mov    %eax,%esi
  802140:	48 bf 80 6c 80 00 00 	movabs $0x806c80,%rdi
  802147:	00 00 00 
  80214a:	b8 00 00 00 00       	mov    $0x0,%eax
  80214f:	48 ba 7b 30 80 00 00 	movabs $0x80307b,%rdx
  802156:	00 00 00 
  802159:	ff d2                	callq  *%rdx
		return r;
  80215b:	8b 45 ec             	mov    -0x14(%rbp),%eax
  80215e:	eb 6f                	jmp    8021cf <serve_read+0xdb>
	}
	size_t req_size = (req->req_n < PGSIZE) ? req->req_n : PGSIZE;
  802160:	48 8b 45 f8          	mov    -0x8(%rbp),%rax
  802164:	48 8b 40 08          	mov    0x8(%rax),%rax
  802168:	ba 00 10 00 00       	mov    $0x1000,%edx
  80216d:	48 3d 00 10 00 00    	cmp    $0x1000,%rax
  802173:	48 0f 47 c2          	cmova  %rdx,%rax
  802177:	48 89 45 e0          	mov    %rax,-0x20(%rbp)
	ssize_t ret_size = file_read(po->o_file, ret->ret_buf, req_size, po->o_fd->fd_offset);
  80217b:	48 8b 45 d0          	mov    -0x30(%rbp),%rax
  80217f:	48 8b 40 18          	mov    0x18(%rax),%rax
  802183:	8b 48 04             	mov    0x4(%rax),%ecx
  802186:	48 8b 75 f0          	mov    -0x10(%rbp),%rsi
  80218a:	48 8b 45 d0          	mov    -0x30(%rbp),%rax
  80218e:	48 8b 40 08          	mov    0x8(%rax),%rax
  802192:	48 8b 55 e0          	mov    -0x20(%rbp),%rdx
  802196:	48 89 c7             	mov    %rax,%rdi
  802199:	48 b8 42 16 80 00 00 	movabs $0x801642,%rax
  8021a0:	00 00 00 
  8021a3:	ff d0                	callq  *%rax
  8021a5:	89 45 dc             	mov    %eax,-0x24(%rbp)
	if(ret_size<0) {
  8021a8:	83 7d dc 00          	cmpl   $0x0,-0x24(%rbp)
  8021ac:	79 05                	jns    8021b3 <serve_read+0xbf>
		return ret_size;
  8021ae:	8b 45 dc             	mov    -0x24(%rbp),%eax
  8021b1:	eb 1c                	jmp    8021cf <serve_read+0xdb>
	}
	po->o_fd->fd_offset += ret_size;
  8021b3:	48 8b 45 d0          	mov    -0x30(%rbp),%rax
  8021b7:	48 8b 40 18          	mov    0x18(%rax),%rax
  8021bb:	48 8b 55 d0          	mov    -0x30(%rbp),%rdx
  8021bf:	48 8b 52 18          	mov    0x18(%rdx),%rdx
  8021c3:	8b 52 04             	mov    0x4(%rdx),%edx
  8021c6:	03 55 dc             	add    -0x24(%rbp),%edx
  8021c9:	89 50 04             	mov    %edx,0x4(%rax)
	return ret_size;
  8021cc:	8b 45 dc             	mov    -0x24(%rbp),%eax
}
  8021cf:	c9                   	leaveq 
  8021d0:	c3                   	retq   

00000000008021d1 <serve_write>:
// the current seek position, and update the seek position
// accordingly.  Extend the file if necessary.  Returns the number of
// bytes written, or < 0 on error.
int
serve_write(envid_t envid, struct Fsreq_write *req)
{
  8021d1:	55                   	push   %rbp
  8021d2:	48 89 e5             	mov    %rsp,%rbp
  8021d5:	48 83 ec 10          	sub    $0x10,%rsp
  8021d9:	89 7d fc             	mov    %edi,-0x4(%rbp)
  8021dc:	48 89 75 f0          	mov    %rsi,-0x10(%rbp)
	if (debug)
		cprintf("serve_write %08x %08x %08x\n", envid, req->req_fileid, req->req_n);

	// LAB 5: Your code here.
	panic("serve_write not implemented");
  8021e0:	48 ba 9d 6c 80 00 00 	movabs $0x806c9d,%rdx
  8021e7:	00 00 00 
  8021ea:	be f6 00 00 00       	mov    $0xf6,%esi
  8021ef:	48 bf b9 6c 80 00 00 	movabs $0x806cb9,%rdi
  8021f6:	00 00 00 
  8021f9:	b8 00 00 00 00       	mov    $0x0,%eax
  8021fe:	48 b9 40 2e 80 00 00 	movabs $0x802e40,%rcx
  802205:	00 00 00 
  802208:	ff d1                	callq  *%rcx

000000000080220a <serve_stat>:

// Stat ipc->stat.req_fileid.  Return the file's struct Stat to the
// caller in ipc->statRet.
int
serve_stat(envid_t envid, union Fsipc *ipc)
{
  80220a:	55                   	push   %rbp
  80220b:	48 89 e5             	mov    %rsp,%rbp
  80220e:	48 83 ec 30          	sub    $0x30,%rsp
  802212:	89 7d dc             	mov    %edi,-0x24(%rbp)
  802215:	48 89 75 d0          	mov    %rsi,-0x30(%rbp)
	struct Fsreq_stat *req = &ipc->stat;
  802219:	48 8b 45 d0          	mov    -0x30(%rbp),%rax
  80221d:	48 89 45 f8          	mov    %rax,-0x8(%rbp)
	struct Fsret_stat *ret = &ipc->statRet;
  802221:	48 8b 45 d0          	mov    -0x30(%rbp),%rax
  802225:	48 89 45 f0          	mov    %rax,-0x10(%rbp)
	int r;

	if (debug)
		cprintf("serve_stat %08x %08x\n", envid, req->req_fileid);

	if ((r = openfile_lookup(envid, req->req_fileid, &o)) < 0)
  802229:	48 8b 45 f8          	mov    -0x8(%rbp),%rax
  80222d:	8b 00                	mov    (%rax),%eax
  80222f:	89 c1                	mov    %eax,%ecx
  802231:	48 8d 55 e0          	lea    -0x20(%rbp),%rdx
  802235:	8b 45 dc             	mov    -0x24(%rbp),%eax
  802238:	89 ce                	mov    %ecx,%esi
  80223a:	89 c7                	mov    %eax,%edi
  80223c:	48 b8 31 1e 80 00 00 	movabs $0x801e31,%rax
  802243:	00 00 00 
  802246:	ff d0                	callq  *%rax
  802248:	89 45 ec             	mov    %eax,-0x14(%rbp)
  80224b:	83 7d ec 00          	cmpl   $0x0,-0x14(%rbp)
  80224f:	79 05                	jns    802256 <serve_stat+0x4c>
		return r;
  802251:	8b 45 ec             	mov    -0x14(%rbp),%eax
  802254:	eb 5f                	jmp    8022b5 <serve_stat+0xab>

	strcpy(ret->ret_name, o->o_file->f_name);
  802256:	48 8b 45 e0          	mov    -0x20(%rbp),%rax
  80225a:	48 8b 40 08          	mov    0x8(%rax),%rax
  80225e:	48 89 c2             	mov    %rax,%rdx
  802261:	48 8b 45 f0          	mov    -0x10(%rbp),%rax
  802265:	48 89 d6             	mov    %rdx,%rsi
  802268:	48 89 c7             	mov    %rax,%rdi
  80226b:	48 b8 4c 3c 80 00 00 	movabs $0x803c4c,%rax
  802272:	00 00 00 
  802275:	ff d0                	callq  *%rax
	ret->ret_size = o->o_file->f_size;
  802277:	48 8b 45 e0          	mov    -0x20(%rbp),%rax
  80227b:	48 8b 40 08          	mov    0x8(%rax),%rax
  80227f:	8b 90 80 00 00 00    	mov    0x80(%rax),%edx
  802285:	48 8b 45 f0          	mov    -0x10(%rbp),%rax
  802289:	89 90 80 00 00 00    	mov    %edx,0x80(%rax)
	ret->ret_isdir = (o->o_file->f_type == FTYPE_DIR);
  80228f:	48 8b 45 e0          	mov    -0x20(%rbp),%rax
  802293:	48 8b 40 08          	mov    0x8(%rax),%rax
  802297:	8b 80 84 00 00 00    	mov    0x84(%rax),%eax
  80229d:	83 f8 01             	cmp    $0x1,%eax
  8022a0:	0f 94 c0             	sete   %al
  8022a3:	0f b6 d0             	movzbl %al,%edx
  8022a6:	48 8b 45 f0          	mov    -0x10(%rbp),%rax
  8022aa:	89 90 84 00 00 00    	mov    %edx,0x84(%rax)
	return 0;
  8022b0:	b8 00 00 00 00       	mov    $0x0,%eax
}
  8022b5:	c9                   	leaveq 
  8022b6:	c3                   	retq   

00000000008022b7 <serve_flush>:

// Flush all data and metadata of req->req_fileid to disk.
int
serve_flush(envid_t envid, struct Fsreq_flush *req)
{
  8022b7:	55                   	push   %rbp
  8022b8:	48 89 e5             	mov    %rsp,%rbp
  8022bb:	48 83 ec 20          	sub    $0x20,%rsp
  8022bf:	89 7d ec             	mov    %edi,-0x14(%rbp)
  8022c2:	48 89 75 e0          	mov    %rsi,-0x20(%rbp)
	int r;

	if (debug)
		cprintf("serve_flush %08x %08x\n", envid, req->req_fileid);

	if ((r = openfile_lookup(envid, req->req_fileid, &o)) < 0)
  8022c6:	48 8b 45 e0          	mov    -0x20(%rbp),%rax
  8022ca:	8b 00                	mov    (%rax),%eax
  8022cc:	89 c1                	mov    %eax,%ecx
  8022ce:	48 8d 55 f0          	lea    -0x10(%rbp),%rdx
  8022d2:	8b 45 ec             	mov    -0x14(%rbp),%eax
  8022d5:	89 ce                	mov    %ecx,%esi
  8022d7:	89 c7                	mov    %eax,%edi
  8022d9:	48 b8 31 1e 80 00 00 	movabs $0x801e31,%rax
  8022e0:	00 00 00 
  8022e3:	ff d0                	callq  *%rax
  8022e5:	89 45 fc             	mov    %eax,-0x4(%rbp)
  8022e8:	83 7d fc 00          	cmpl   $0x0,-0x4(%rbp)
  8022ec:	79 05                	jns    8022f3 <serve_flush+0x3c>
		return r;
  8022ee:	8b 45 fc             	mov    -0x4(%rbp),%eax
  8022f1:	eb 1c                	jmp    80230f <serve_flush+0x58>
	file_flush(o->o_file);
  8022f3:	48 8b 45 f0          	mov    -0x10(%rbp),%rax
  8022f7:	48 8b 40 08          	mov    0x8(%rax),%rax
  8022fb:	48 89 c7             	mov    %rax,%rdi
  8022fe:	48 b8 ac 1a 80 00 00 	movabs $0x801aac,%rax
  802305:	00 00 00 
  802308:	ff d0                	callq  *%rax
	return 0;
  80230a:	b8 00 00 00 00       	mov    $0x0,%eax
}
  80230f:	c9                   	leaveq 
  802310:	c3                   	retq   

0000000000802311 <serve_remove>:

// Remove the file req->req_path.
int
serve_remove(envid_t envid, struct Fsreq_remove *req)
{
  802311:	55                   	push   %rbp
  802312:	48 89 e5             	mov    %rsp,%rbp
  802315:	48 81 ec 10 04 00 00 	sub    $0x410,%rsp
  80231c:	89 bd fc fb ff ff    	mov    %edi,-0x404(%rbp)
  802322:	48 89 b5 f0 fb ff ff 	mov    %rsi,-0x410(%rbp)

	// Delete the named file.
	// Note: This request doesn't refer to an open file.

	// Copy in the path, making sure it's null-terminated
	memmove(path, req->req_path, MAXPATHLEN);
  802329:	48 8b 8d f0 fb ff ff 	mov    -0x410(%rbp),%rcx
  802330:	48 8d 85 00 fc ff ff 	lea    -0x400(%rbp),%rax
  802337:	ba 00 04 00 00       	mov    $0x400,%edx
  80233c:	48 89 ce             	mov    %rcx,%rsi
  80233f:	48 89 c7             	mov    %rax,%rdi
  802342:	48 b8 6e 3f 80 00 00 	movabs $0x803f6e,%rax
  802349:	00 00 00 
  80234c:	ff d0                	callq  *%rax
	path[MAXPATHLEN-1] = 0;
  80234e:	c6 45 ff 00          	movb   $0x0,-0x1(%rbp)

	// Delete the specified file
	return file_remove(path);
  802352:	48 8d 85 00 fc ff ff 	lea    -0x400(%rbp),%rax
  802359:	48 89 c7             	mov    %rax,%rdi
  80235c:	48 b8 97 1b 80 00 00 	movabs $0x801b97,%rax
  802363:	00 00 00 
  802366:	ff d0                	callq  *%rax
}
  802368:	c9                   	leaveq 
  802369:	c3                   	retq   

000000000080236a <serve_sync>:

// Sync the file system.
int
serve_sync(envid_t envid, union Fsipc *req)
{
  80236a:	55                   	push   %rbp
  80236b:	48 89 e5             	mov    %rsp,%rbp
  80236e:	48 83 ec 10          	sub    $0x10,%rsp
  802372:	89 7d fc             	mov    %edi,-0x4(%rbp)
  802375:	48 89 75 f0          	mov    %rsi,-0x10(%rbp)
	fs_sync();
  802379:	48 b8 19 1c 80 00 00 	movabs $0x801c19,%rax
  802380:	00 00 00 
  802383:	ff d0                	callq  *%rax
	return 0;
  802385:	b8 00 00 00 00       	mov    $0x0,%eax
}
  80238a:	c9                   	leaveq 
  80238b:	c3                   	retq   

000000000080238c <serve>:
};
#define NHANDLERS (sizeof(handlers)/sizeof(handlers[0]))

void
serve(void)
{
  80238c:	55                   	push   %rbp
  80238d:	48 89 e5             	mov    %rsp,%rbp
  802390:	48 83 ec 20          	sub    $0x20,%rsp
	uint32_t req, whom;
	int perm, r;
	void *pg;

	while (1) {
		perm = 0;
  802394:	c7 45 f0 00 00 00 00 	movl   $0x0,-0x10(%rbp)
		req = ipc_recv((int32_t *) &whom, fsreq, &perm);
  80239b:	48 b8 20 10 81 00 00 	movabs $0x811020,%rax
  8023a2:	00 00 00 
  8023a5:	48 8b 08             	mov    (%rax),%rcx
  8023a8:	48 8d 55 f0          	lea    -0x10(%rbp),%rdx
  8023ac:	48 8d 45 f4          	lea    -0xc(%rbp),%rax
  8023b0:	48 89 ce             	mov    %rcx,%rsi
  8023b3:	48 89 c7             	mov    %rax,%rdi
  8023b6:	48 b8 f0 49 80 00 00 	movabs $0x8049f0,%rax
  8023bd:	00 00 00 
  8023c0:	ff d0                	callq  *%rax
  8023c2:	89 45 f8             	mov    %eax,-0x8(%rbp)
		if (debug)
			cprintf("fs req %d from %08x [page %08x: %s]\n",
				req, whom, uvpt[PGNUM(fsreq)], fsreq);

		// All requests must contain an argument page
		if (!(perm & PTE_P)) {
  8023c5:	8b 45 f0             	mov    -0x10(%rbp),%eax
  8023c8:	83 e0 01             	and    $0x1,%eax
  8023cb:	85 c0                	test   %eax,%eax
  8023cd:	75 23                	jne    8023f2 <serve+0x66>
			cprintf("Invalid request from %08x: no argument page\n",
  8023cf:	8b 45 f4             	mov    -0xc(%rbp),%eax
  8023d2:	89 c6                	mov    %eax,%esi
  8023d4:	48 bf c8 6c 80 00 00 	movabs $0x806cc8,%rdi
  8023db:	00 00 00 
  8023de:	b8 00 00 00 00       	mov    $0x0,%eax
  8023e3:	48 ba 7b 30 80 00 00 	movabs $0x80307b,%rdx
  8023ea:	00 00 00 
  8023ed:	ff d2                	callq  *%rdx
				whom);
			continue; // just leave it hanging...
  8023ef:	90                   	nop
		}
		ipc_send(whom, r, pg, perm);
		if(debug)
			cprintf("FS: Sent response %d to %x\n", r, whom);
		sys_page_unmap(0, fsreq);
	}
  8023f0:	eb a2                	jmp    802394 <serve+0x8>
			cprintf("Invalid request from %08x: no argument page\n",
				whom);
			continue; // just leave it hanging...
		}

		pg = NULL;
  8023f2:	48 c7 45 e8 00 00 00 	movq   $0x0,-0x18(%rbp)
  8023f9:	00 
		if (req == FSREQ_OPEN) {
  8023fa:	83 7d f8 01          	cmpl   $0x1,-0x8(%rbp)
  8023fe:	75 2b                	jne    80242b <serve+0x9f>
			r = serve_open(whom, (struct Fsreq_open*)fsreq, &pg, &perm);
  802400:	48 b8 20 10 81 00 00 	movabs $0x811020,%rax
  802407:	00 00 00 
  80240a:	48 8b 30             	mov    (%rax),%rsi
  80240d:	8b 45 f4             	mov    -0xc(%rbp),%eax
  802410:	48 8d 4d f0          	lea    -0x10(%rbp),%rcx
  802414:	48 8d 55 e8          	lea    -0x18(%rbp),%rdx
  802418:	89 c7                	mov    %eax,%edi
  80241a:	48 b8 a3 1e 80 00 00 	movabs $0x801ea3,%rax
  802421:	00 00 00 
  802424:	ff d0                	callq  *%rax
  802426:	89 45 fc             	mov    %eax,-0x4(%rbp)
  802429:	eb 73                	jmp    80249e <serve+0x112>
		} else if (req < NHANDLERS && handlers[req]) {
  80242b:	83 7d f8 08          	cmpl   $0x8,-0x8(%rbp)
  80242f:	77 43                	ja     802474 <serve+0xe8>
  802431:	48 b8 40 10 81 00 00 	movabs $0x811040,%rax
  802438:	00 00 00 
  80243b:	8b 55 f8             	mov    -0x8(%rbp),%edx
  80243e:	48 8b 04 d0          	mov    (%rax,%rdx,8),%rax
  802442:	48 85 c0             	test   %rax,%rax
  802445:	74 2d                	je     802474 <serve+0xe8>
			r = handlers[req](whom, fsreq);
  802447:	48 b8 40 10 81 00 00 	movabs $0x811040,%rax
  80244e:	00 00 00 
  802451:	8b 55 f8             	mov    -0x8(%rbp),%edx
  802454:	48 8b 0c d0          	mov    (%rax,%rdx,8),%rcx
  802458:	48 b8 20 10 81 00 00 	movabs $0x811020,%rax
  80245f:	00 00 00 
  802462:	48 8b 10             	mov    (%rax),%rdx
  802465:	8b 45 f4             	mov    -0xc(%rbp),%eax
  802468:	48 89 d6             	mov    %rdx,%rsi
  80246b:	89 c7                	mov    %eax,%edi
  80246d:	ff d1                	callq  *%rcx
  80246f:	89 45 fc             	mov    %eax,-0x4(%rbp)
  802472:	eb 2a                	jmp    80249e <serve+0x112>
		} else {
			cprintf("Invalid request code %d from %08x\n", req, whom);
  802474:	8b 55 f4             	mov    -0xc(%rbp),%edx
  802477:	8b 45 f8             	mov    -0x8(%rbp),%eax
  80247a:	89 c6                	mov    %eax,%esi
  80247c:	48 bf f8 6c 80 00 00 	movabs $0x806cf8,%rdi
  802483:	00 00 00 
  802486:	b8 00 00 00 00       	mov    $0x0,%eax
  80248b:	48 b9 7b 30 80 00 00 	movabs $0x80307b,%rcx
  802492:	00 00 00 
  802495:	ff d1                	callq  *%rcx
			r = -E_INVAL;
  802497:	c7 45 fc fd ff ff ff 	movl   $0xfffffffd,-0x4(%rbp)
		}
		ipc_send(whom, r, pg, perm);
  80249e:	8b 4d f0             	mov    -0x10(%rbp),%ecx
  8024a1:	48 8b 55 e8          	mov    -0x18(%rbp),%rdx
  8024a5:	8b 75 fc             	mov    -0x4(%rbp),%esi
  8024a8:	8b 45 f4             	mov    -0xc(%rbp),%eax
  8024ab:	89 c7                	mov    %eax,%edi
  8024ad:	48 b8 d7 4a 80 00 00 	movabs $0x804ad7,%rax
  8024b4:	00 00 00 
  8024b7:	ff d0                	callq  *%rax
		if(debug)
			cprintf("FS: Sent response %d to %x\n", r, whom);
		sys_page_unmap(0, fsreq);
  8024b9:	48 b8 20 10 81 00 00 	movabs $0x811020,%rax
  8024c0:	00 00 00 
  8024c3:	48 8b 00             	mov    (%rax),%rax
  8024c6:	48 89 c6             	mov    %rax,%rsi
  8024c9:	bf 00 00 00 00       	mov    $0x0,%edi
  8024ce:	48 b8 2f 46 80 00 00 	movabs $0x80462f,%rax
  8024d5:	00 00 00 
  8024d8:	ff d0                	callq  *%rax
	}
  8024da:	e9 b5 fe ff ff       	jmpq   802394 <serve+0x8>

00000000008024df <umain>:
}

void
umain(int argc, char **argv)
{
  8024df:	55                   	push   %rbp
  8024e0:	48 89 e5             	mov    %rsp,%rbp
  8024e3:	48 83 ec 20          	sub    $0x20,%rsp
  8024e7:	89 7d ec             	mov    %edi,-0x14(%rbp)
  8024ea:	48 89 75 e0          	mov    %rsi,-0x20(%rbp)
	static_assert(sizeof(struct File) == 256);
	binaryname = "fs";
  8024ee:	48 b8 90 10 81 00 00 	movabs $0x811090,%rax
  8024f5:	00 00 00 
  8024f8:	48 ba 1b 6d 80 00 00 	movabs $0x806d1b,%rdx
  8024ff:	00 00 00 
  802502:	48 89 10             	mov    %rdx,(%rax)
	cprintf("FS is running\n");
  802505:	48 bf 1e 6d 80 00 00 	movabs $0x806d1e,%rdi
  80250c:	00 00 00 
  80250f:	b8 00 00 00 00       	mov    $0x0,%eax
  802514:	48 ba 7b 30 80 00 00 	movabs $0x80307b,%rdx
  80251b:	00 00 00 
  80251e:	ff d2                	callq  *%rdx
  802520:	c7 45 fc 00 8a 00 00 	movl   $0x8a00,-0x4(%rbp)
  802527:	66 c7 45 fa 00 8a    	movw   $0x8a00,-0x6(%rbp)
}

    static __inline void
outw(int port, uint16_t data)
{
    __asm __volatile("outw %0,%w1" : : "a" (data), "d" (port));
  80252d:	0f b7 45 fa          	movzwl -0x6(%rbp),%eax
  802531:	8b 55 fc             	mov    -0x4(%rbp),%edx
  802534:	66 ef                	out    %ax,(%dx)

	// Check that we are able to do I/O
	outw(0x8A00, 0x8A00);
	cprintf("FS can do I/O\n");
  802536:	48 bf 2d 6d 80 00 00 	movabs $0x806d2d,%rdi
  80253d:	00 00 00 
  802540:	b8 00 00 00 00       	mov    $0x0,%eax
  802545:	48 ba 7b 30 80 00 00 	movabs $0x80307b,%rdx
  80254c:	00 00 00 
  80254f:	ff d2                	callq  *%rdx

	serve_init();
  802551:	48 b8 6c 1c 80 00 00 	movabs $0x801c6c,%rax
  802558:	00 00 00 
  80255b:	ff d0                	callq  *%rax
	fs_init();
  80255d:	48 b8 3a 0e 80 00 00 	movabs $0x800e3a,%rax
  802564:	00 00 00 
  802567:	ff d0                	callq  *%rax
	serve();
  802569:	48 b8 8c 23 80 00 00 	movabs $0x80238c,%rax
  802570:	00 00 00 
  802573:	ff d0                	callq  *%rax
}
  802575:	c9                   	leaveq 
  802576:	c3                   	retq   
	...

0000000000802578 <fs_test>:

static char *msg = "This is the NEW message of the day!\n\n";

void
fs_test(void)
{
  802578:	55                   	push   %rbp
  802579:	48 89 e5             	mov    %rsp,%rbp
  80257c:	53                   	push   %rbx
  80257d:	48 83 ec 28          	sub    $0x28,%rsp
	int r;
	char *blk;
	uint32_t *bits;

	// back up bitmap
	if ((r = sys_page_alloc(0, (void*) PGSIZE, PTE_P|PTE_U|PTE_W)) < 0)
  802581:	ba 07 00 00 00       	mov    $0x7,%edx
  802586:	be 00 10 00 00       	mov    $0x1000,%esi
  80258b:	bf 00 00 00 00       	mov    $0x0,%edi
  802590:	48 b8 84 45 80 00 00 	movabs $0x804584,%rax
  802597:	00 00 00 
  80259a:	ff d0                	callq  *%rax
  80259c:	89 45 ec             	mov    %eax,-0x14(%rbp)
  80259f:	83 7d ec 00          	cmpl   $0x0,-0x14(%rbp)
  8025a3:	79 30                	jns    8025d5 <fs_test+0x5d>
		panic("sys_page_alloc: %e", r);
  8025a5:	8b 45 ec             	mov    -0x14(%rbp),%eax
  8025a8:	89 c1                	mov    %eax,%ecx
  8025aa:	48 ba 66 6d 80 00 00 	movabs $0x806d66,%rdx
  8025b1:	00 00 00 
  8025b4:	be 13 00 00 00       	mov    $0x13,%esi
  8025b9:	48 bf 79 6d 80 00 00 	movabs $0x806d79,%rdi
  8025c0:	00 00 00 
  8025c3:	b8 00 00 00 00       	mov    $0x0,%eax
  8025c8:	49 b8 40 2e 80 00 00 	movabs $0x802e40,%r8
  8025cf:	00 00 00 
  8025d2:	41 ff d0             	callq  *%r8
	bits = (uint32_t*) PGSIZE;
  8025d5:	48 c7 45 e0 00 10 00 	movq   $0x1000,-0x20(%rbp)
  8025dc:	00 
	memmove(bits, bitmap, PGSIZE);
  8025dd:	48 b8 08 20 81 00 00 	movabs $0x812008,%rax
  8025e4:	00 00 00 
  8025e7:	48 8b 08             	mov    (%rax),%rcx
  8025ea:	48 8b 45 e0          	mov    -0x20(%rbp),%rax
  8025ee:	ba 00 10 00 00       	mov    $0x1000,%edx
  8025f3:	48 89 ce             	mov    %rcx,%rsi
  8025f6:	48 89 c7             	mov    %rax,%rdi
  8025f9:	48 b8 6e 3f 80 00 00 	movabs $0x803f6e,%rax
  802600:	00 00 00 
  802603:	ff d0                	callq  *%rax
	// allocate block
	if ((r = alloc_block()) < 0)
  802605:	48 b8 dd 0c 80 00 00 	movabs $0x800cdd,%rax
  80260c:	00 00 00 
  80260f:	ff d0                	callq  *%rax
  802611:	89 45 ec             	mov    %eax,-0x14(%rbp)
  802614:	83 7d ec 00          	cmpl   $0x0,-0x14(%rbp)
  802618:	79 30                	jns    80264a <fs_test+0xd2>
		panic("alloc_block: %e", r);
  80261a:	8b 45 ec             	mov    -0x14(%rbp),%eax
  80261d:	89 c1                	mov    %eax,%ecx
  80261f:	48 ba 83 6d 80 00 00 	movabs $0x806d83,%rdx
  802626:	00 00 00 
  802629:	be 18 00 00 00       	mov    $0x18,%esi
  80262e:	48 bf 79 6d 80 00 00 	movabs $0x806d79,%rdi
  802635:	00 00 00 
  802638:	b8 00 00 00 00       	mov    $0x0,%eax
  80263d:	49 b8 40 2e 80 00 00 	movabs $0x802e40,%r8
  802644:	00 00 00 
  802647:	41 ff d0             	callq  *%r8
	// check that block was free
	assert(bits[r/32] & (1 << (r%32)));
  80264a:	8b 45 ec             	mov    -0x14(%rbp),%eax
  80264d:	8d 50 1f             	lea    0x1f(%rax),%edx
  802650:	85 c0                	test   %eax,%eax
  802652:	0f 48 c2             	cmovs  %edx,%eax
  802655:	c1 f8 05             	sar    $0x5,%eax
  802658:	48 98                	cltq   
  80265a:	48 c1 e0 02          	shl    $0x2,%rax
  80265e:	48 03 45 e0          	add    -0x20(%rbp),%rax
  802662:	8b 30                	mov    (%rax),%esi
  802664:	8b 45 ec             	mov    -0x14(%rbp),%eax
  802667:	89 c2                	mov    %eax,%edx
  802669:	c1 fa 1f             	sar    $0x1f,%edx
  80266c:	c1 ea 1b             	shr    $0x1b,%edx
  80266f:	01 d0                	add    %edx,%eax
  802671:	83 e0 1f             	and    $0x1f,%eax
  802674:	29 d0                	sub    %edx,%eax
  802676:	ba 01 00 00 00       	mov    $0x1,%edx
  80267b:	89 d3                	mov    %edx,%ebx
  80267d:	89 c1                	mov    %eax,%ecx
  80267f:	d3 e3                	shl    %cl,%ebx
  802681:	89 d8                	mov    %ebx,%eax
  802683:	21 f0                	and    %esi,%eax
  802685:	85 c0                	test   %eax,%eax
  802687:	75 35                	jne    8026be <fs_test+0x146>
  802689:	48 b9 93 6d 80 00 00 	movabs $0x806d93,%rcx
  802690:	00 00 00 
  802693:	48 ba ae 6d 80 00 00 	movabs $0x806dae,%rdx
  80269a:	00 00 00 
  80269d:	be 1a 00 00 00       	mov    $0x1a,%esi
  8026a2:	48 bf 79 6d 80 00 00 	movabs $0x806d79,%rdi
  8026a9:	00 00 00 
  8026ac:	b8 00 00 00 00       	mov    $0x0,%eax
  8026b1:	49 b8 40 2e 80 00 00 	movabs $0x802e40,%r8
  8026b8:	00 00 00 
  8026bb:	41 ff d0             	callq  *%r8
	// and is not free any more
	assert(!(bitmap[r/32] & (1 << (r%32))));
  8026be:	48 b8 08 20 81 00 00 	movabs $0x812008,%rax
  8026c5:	00 00 00 
  8026c8:	48 8b 10             	mov    (%rax),%rdx
  8026cb:	8b 45 ec             	mov    -0x14(%rbp),%eax
  8026ce:	8d 48 1f             	lea    0x1f(%rax),%ecx
  8026d1:	85 c0                	test   %eax,%eax
  8026d3:	0f 48 c1             	cmovs  %ecx,%eax
  8026d6:	c1 f8 05             	sar    $0x5,%eax
  8026d9:	48 98                	cltq   
  8026db:	48 c1 e0 02          	shl    $0x2,%rax
  8026df:	48 01 d0             	add    %rdx,%rax
  8026e2:	8b 30                	mov    (%rax),%esi
  8026e4:	8b 45 ec             	mov    -0x14(%rbp),%eax
  8026e7:	89 c2                	mov    %eax,%edx
  8026e9:	c1 fa 1f             	sar    $0x1f,%edx
  8026ec:	c1 ea 1b             	shr    $0x1b,%edx
  8026ef:	01 d0                	add    %edx,%eax
  8026f1:	83 e0 1f             	and    $0x1f,%eax
  8026f4:	29 d0                	sub    %edx,%eax
  8026f6:	ba 01 00 00 00       	mov    $0x1,%edx
  8026fb:	89 d3                	mov    %edx,%ebx
  8026fd:	89 c1                	mov    %eax,%ecx
  8026ff:	d3 e3                	shl    %cl,%ebx
  802701:	89 d8                	mov    %ebx,%eax
  802703:	21 f0                	and    %esi,%eax
  802705:	85 c0                	test   %eax,%eax
  802707:	74 35                	je     80273e <fs_test+0x1c6>
  802709:	48 b9 c8 6d 80 00 00 	movabs $0x806dc8,%rcx
  802710:	00 00 00 
  802713:	48 ba ae 6d 80 00 00 	movabs $0x806dae,%rdx
  80271a:	00 00 00 
  80271d:	be 1c 00 00 00       	mov    $0x1c,%esi
  802722:	48 bf 79 6d 80 00 00 	movabs $0x806d79,%rdi
  802729:	00 00 00 
  80272c:	b8 00 00 00 00       	mov    $0x0,%eax
  802731:	49 b8 40 2e 80 00 00 	movabs $0x802e40,%r8
  802738:	00 00 00 
  80273b:	41 ff d0             	callq  *%r8
	cprintf("alloc_block is good\n");
  80273e:	48 bf e8 6d 80 00 00 	movabs $0x806de8,%rdi
  802745:	00 00 00 
  802748:	b8 00 00 00 00       	mov    $0x0,%eax
  80274d:	48 ba 7b 30 80 00 00 	movabs $0x80307b,%rdx
  802754:	00 00 00 
  802757:	ff d2                	callq  *%rdx

	if ((r = file_open("/not-found", &f)) < 0 && r != -E_NOT_FOUND)
  802759:	48 8d 45 d8          	lea    -0x28(%rbp),%rax
  80275d:	48 89 c6             	mov    %rax,%rsi
  802760:	48 bf fd 6d 80 00 00 	movabs $0x806dfd,%rdi
  802767:	00 00 00 
  80276a:	48 b8 0f 16 80 00 00 	movabs $0x80160f,%rax
  802771:	00 00 00 
  802774:	ff d0                	callq  *%rax
  802776:	89 45 ec             	mov    %eax,-0x14(%rbp)
  802779:	83 7d ec 00          	cmpl   $0x0,-0x14(%rbp)
  80277d:	79 36                	jns    8027b5 <fs_test+0x23d>
  80277f:	83 7d ec f4          	cmpl   $0xfffffff4,-0x14(%rbp)
  802783:	74 30                	je     8027b5 <fs_test+0x23d>
		panic("file_open /not-found: %e", r);
  802785:	8b 45 ec             	mov    -0x14(%rbp),%eax
  802788:	89 c1                	mov    %eax,%ecx
  80278a:	48 ba 08 6e 80 00 00 	movabs $0x806e08,%rdx
  802791:	00 00 00 
  802794:	be 20 00 00 00       	mov    $0x20,%esi
  802799:	48 bf 79 6d 80 00 00 	movabs $0x806d79,%rdi
  8027a0:	00 00 00 
  8027a3:	b8 00 00 00 00       	mov    $0x0,%eax
  8027a8:	49 b8 40 2e 80 00 00 	movabs $0x802e40,%r8
  8027af:	00 00 00 
  8027b2:	41 ff d0             	callq  *%r8
	else if (r == 0)
  8027b5:	83 7d ec 00          	cmpl   $0x0,-0x14(%rbp)
  8027b9:	75 2a                	jne    8027e5 <fs_test+0x26d>
		panic("file_open /not-found succeeded!");
  8027bb:	48 ba 28 6e 80 00 00 	movabs $0x806e28,%rdx
  8027c2:	00 00 00 
  8027c5:	be 22 00 00 00       	mov    $0x22,%esi
  8027ca:	48 bf 79 6d 80 00 00 	movabs $0x806d79,%rdi
  8027d1:	00 00 00 
  8027d4:	b8 00 00 00 00       	mov    $0x0,%eax
  8027d9:	48 b9 40 2e 80 00 00 	movabs $0x802e40,%rcx
  8027e0:	00 00 00 
  8027e3:	ff d1                	callq  *%rcx
	if ((r = file_open("/newmotd", &f)) < 0)
  8027e5:	48 8d 45 d8          	lea    -0x28(%rbp),%rax
  8027e9:	48 89 c6             	mov    %rax,%rsi
  8027ec:	48 bf 48 6e 80 00 00 	movabs $0x806e48,%rdi
  8027f3:	00 00 00 
  8027f6:	48 b8 0f 16 80 00 00 	movabs $0x80160f,%rax
  8027fd:	00 00 00 
  802800:	ff d0                	callq  *%rax
  802802:	89 45 ec             	mov    %eax,-0x14(%rbp)
  802805:	83 7d ec 00          	cmpl   $0x0,-0x14(%rbp)
  802809:	79 30                	jns    80283b <fs_test+0x2c3>
		panic("file_open /newmotd: %e", r);
  80280b:	8b 45 ec             	mov    -0x14(%rbp),%eax
  80280e:	89 c1                	mov    %eax,%ecx
  802810:	48 ba 51 6e 80 00 00 	movabs $0x806e51,%rdx
  802817:	00 00 00 
  80281a:	be 24 00 00 00       	mov    $0x24,%esi
  80281f:	48 bf 79 6d 80 00 00 	movabs $0x806d79,%rdi
  802826:	00 00 00 
  802829:	b8 00 00 00 00       	mov    $0x0,%eax
  80282e:	49 b8 40 2e 80 00 00 	movabs $0x802e40,%r8
  802835:	00 00 00 
  802838:	41 ff d0             	callq  *%r8
	cprintf("file_open is good\n");
  80283b:	48 bf 68 6e 80 00 00 	movabs $0x806e68,%rdi
  802842:	00 00 00 
  802845:	b8 00 00 00 00       	mov    $0x0,%eax
  80284a:	48 ba 7b 30 80 00 00 	movabs $0x80307b,%rdx
  802851:	00 00 00 
  802854:	ff d2                	callq  *%rdx

	if ((r = file_get_block(f, 0, &blk)) < 0)
  802856:	48 8b 45 d8          	mov    -0x28(%rbp),%rax
  80285a:	48 8d 55 d0          	lea    -0x30(%rbp),%rdx
  80285e:	be 00 00 00 00       	mov    $0x0,%esi
  802863:	48 89 c7             	mov    %rax,%rdi
  802866:	48 b8 a7 0f 80 00 00 	movabs $0x800fa7,%rax
  80286d:	00 00 00 
  802870:	ff d0                	callq  *%rax
  802872:	89 45 ec             	mov    %eax,-0x14(%rbp)
  802875:	83 7d ec 00          	cmpl   $0x0,-0x14(%rbp)
  802879:	79 30                	jns    8028ab <fs_test+0x333>
		panic("file_get_block: %e", r);
  80287b:	8b 45 ec             	mov    -0x14(%rbp),%eax
  80287e:	89 c1                	mov    %eax,%ecx
  802880:	48 ba 7b 6e 80 00 00 	movabs $0x806e7b,%rdx
  802887:	00 00 00 
  80288a:	be 28 00 00 00       	mov    $0x28,%esi
  80288f:	48 bf 79 6d 80 00 00 	movabs $0x806d79,%rdi
  802896:	00 00 00 
  802899:	b8 00 00 00 00       	mov    $0x0,%eax
  80289e:	49 b8 40 2e 80 00 00 	movabs $0x802e40,%r8
  8028a5:	00 00 00 
  8028a8:	41 ff d0             	callq  *%r8
	if (strcmp(blk, msg) != 0)
  8028ab:	48 b8 88 10 81 00 00 	movabs $0x811088,%rax
  8028b2:	00 00 00 
  8028b5:	48 8b 10             	mov    (%rax),%rdx
  8028b8:	48 8b 45 d0          	mov    -0x30(%rbp),%rax
  8028bc:	48 89 d6             	mov    %rdx,%rsi
  8028bf:	48 89 c7             	mov    %rax,%rdi
  8028c2:	48 b8 a7 3d 80 00 00 	movabs $0x803da7,%rax
  8028c9:	00 00 00 
  8028cc:	ff d0                	callq  *%rax
  8028ce:	85 c0                	test   %eax,%eax
  8028d0:	74 2a                	je     8028fc <fs_test+0x384>
		panic("file_get_block returned wrong data");
  8028d2:	48 ba 90 6e 80 00 00 	movabs $0x806e90,%rdx
  8028d9:	00 00 00 
  8028dc:	be 2a 00 00 00       	mov    $0x2a,%esi
  8028e1:	48 bf 79 6d 80 00 00 	movabs $0x806d79,%rdi
  8028e8:	00 00 00 
  8028eb:	b8 00 00 00 00       	mov    $0x0,%eax
  8028f0:	48 b9 40 2e 80 00 00 	movabs $0x802e40,%rcx
  8028f7:	00 00 00 
  8028fa:	ff d1                	callq  *%rcx
	cprintf("file_get_block is good\n");
  8028fc:	48 bf b3 6e 80 00 00 	movabs $0x806eb3,%rdi
  802903:	00 00 00 
  802906:	b8 00 00 00 00       	mov    $0x0,%eax
  80290b:	48 ba 7b 30 80 00 00 	movabs $0x80307b,%rdx
  802912:	00 00 00 
  802915:	ff d2                	callq  *%rdx

	*(volatile char*)blk = *(volatile char*)blk;
  802917:	48 8b 45 d0          	mov    -0x30(%rbp),%rax
  80291b:	48 8b 55 d0          	mov    -0x30(%rbp),%rdx
  80291f:	0f b6 12             	movzbl (%rdx),%edx
  802922:	88 10                	mov    %dl,(%rax)
	assert((uvpt[PGNUM(blk)] & PTE_D));
  802924:	48 8b 45 d0          	mov    -0x30(%rbp),%rax
  802928:	48 89 c2             	mov    %rax,%rdx
  80292b:	48 c1 ea 0c          	shr    $0xc,%rdx
  80292f:	48 b8 00 00 00 00 00 	movabs $0x10000000000,%rax
  802936:	01 00 00 
  802939:	48 8b 04 d0          	mov    (%rax,%rdx,8),%rax
  80293d:	83 e0 40             	and    $0x40,%eax
  802940:	48 85 c0             	test   %rax,%rax
  802943:	75 35                	jne    80297a <fs_test+0x402>
  802945:	48 b9 cb 6e 80 00 00 	movabs $0x806ecb,%rcx
  80294c:	00 00 00 
  80294f:	48 ba ae 6d 80 00 00 	movabs $0x806dae,%rdx
  802956:	00 00 00 
  802959:	be 2e 00 00 00       	mov    $0x2e,%esi
  80295e:	48 bf 79 6d 80 00 00 	movabs $0x806d79,%rdi
  802965:	00 00 00 
  802968:	b8 00 00 00 00       	mov    $0x0,%eax
  80296d:	49 b8 40 2e 80 00 00 	movabs $0x802e40,%r8
  802974:	00 00 00 
  802977:	41 ff d0             	callq  *%r8
	file_flush(f);
  80297a:	48 8b 45 d8          	mov    -0x28(%rbp),%rax
  80297e:	48 89 c7             	mov    %rax,%rdi
  802981:	48 b8 ac 1a 80 00 00 	movabs $0x801aac,%rax
  802988:	00 00 00 
  80298b:	ff d0                	callq  *%rax
	assert(!(uvpt[PGNUM(blk)] & PTE_D));
  80298d:	48 8b 45 d0          	mov    -0x30(%rbp),%rax
  802991:	48 89 c2             	mov    %rax,%rdx
  802994:	48 c1 ea 0c          	shr    $0xc,%rdx
  802998:	48 b8 00 00 00 00 00 	movabs $0x10000000000,%rax
  80299f:	01 00 00 
  8029a2:	48 8b 04 d0          	mov    (%rax,%rdx,8),%rax
  8029a6:	83 e0 40             	and    $0x40,%eax
  8029a9:	48 85 c0             	test   %rax,%rax
  8029ac:	74 35                	je     8029e3 <fs_test+0x46b>
  8029ae:	48 b9 e6 6e 80 00 00 	movabs $0x806ee6,%rcx
  8029b5:	00 00 00 
  8029b8:	48 ba ae 6d 80 00 00 	movabs $0x806dae,%rdx
  8029bf:	00 00 00 
  8029c2:	be 30 00 00 00       	mov    $0x30,%esi
  8029c7:	48 bf 79 6d 80 00 00 	movabs $0x806d79,%rdi
  8029ce:	00 00 00 
  8029d1:	b8 00 00 00 00       	mov    $0x0,%eax
  8029d6:	49 b8 40 2e 80 00 00 	movabs $0x802e40,%r8
  8029dd:	00 00 00 
  8029e0:	41 ff d0             	callq  *%r8
	cprintf("file_flush is good\n");
  8029e3:	48 bf 02 6f 80 00 00 	movabs $0x806f02,%rdi
  8029ea:	00 00 00 
  8029ed:	b8 00 00 00 00       	mov    $0x0,%eax
  8029f2:	48 ba 7b 30 80 00 00 	movabs $0x80307b,%rdx
  8029f9:	00 00 00 
  8029fc:	ff d2                	callq  *%rdx

	if ((r = file_set_size(f, 0)) < 0)
  8029fe:	48 8b 45 d8          	mov    -0x28(%rbp),%rax
  802a02:	be 00 00 00 00       	mov    $0x0,%esi
  802a07:	48 89 c7             	mov    %rax,%rdi
  802a0a:	48 b8 4f 1a 80 00 00 	movabs $0x801a4f,%rax
  802a11:	00 00 00 
  802a14:	ff d0                	callq  *%rax
  802a16:	89 45 ec             	mov    %eax,-0x14(%rbp)
  802a19:	83 7d ec 00          	cmpl   $0x0,-0x14(%rbp)
  802a1d:	79 30                	jns    802a4f <fs_test+0x4d7>
		panic("file_set_size: %e", r);
  802a1f:	8b 45 ec             	mov    -0x14(%rbp),%eax
  802a22:	89 c1                	mov    %eax,%ecx
  802a24:	48 ba 16 6f 80 00 00 	movabs $0x806f16,%rdx
  802a2b:	00 00 00 
  802a2e:	be 34 00 00 00       	mov    $0x34,%esi
  802a33:	48 bf 79 6d 80 00 00 	movabs $0x806d79,%rdi
  802a3a:	00 00 00 
  802a3d:	b8 00 00 00 00       	mov    $0x0,%eax
  802a42:	49 b8 40 2e 80 00 00 	movabs $0x802e40,%r8
  802a49:	00 00 00 
  802a4c:	41 ff d0             	callq  *%r8
	assert(f->f_direct[0] == 0);
  802a4f:	48 8b 45 d8          	mov    -0x28(%rbp),%rax
  802a53:	8b 80 88 00 00 00    	mov    0x88(%rax),%eax
  802a59:	85 c0                	test   %eax,%eax
  802a5b:	74 35                	je     802a92 <fs_test+0x51a>
  802a5d:	48 b9 28 6f 80 00 00 	movabs $0x806f28,%rcx
  802a64:	00 00 00 
  802a67:	48 ba ae 6d 80 00 00 	movabs $0x806dae,%rdx
  802a6e:	00 00 00 
  802a71:	be 35 00 00 00       	mov    $0x35,%esi
  802a76:	48 bf 79 6d 80 00 00 	movabs $0x806d79,%rdi
  802a7d:	00 00 00 
  802a80:	b8 00 00 00 00       	mov    $0x0,%eax
  802a85:	49 b8 40 2e 80 00 00 	movabs $0x802e40,%r8
  802a8c:	00 00 00 
  802a8f:	41 ff d0             	callq  *%r8
	assert(!(uvpt[PGNUM(f)] & PTE_D));
  802a92:	48 8b 45 d8          	mov    -0x28(%rbp),%rax
  802a96:	48 89 c2             	mov    %rax,%rdx
  802a99:	48 c1 ea 0c          	shr    $0xc,%rdx
  802a9d:	48 b8 00 00 00 00 00 	movabs $0x10000000000,%rax
  802aa4:	01 00 00 
  802aa7:	48 8b 04 d0          	mov    (%rax,%rdx,8),%rax
  802aab:	83 e0 40             	and    $0x40,%eax
  802aae:	48 85 c0             	test   %rax,%rax
  802ab1:	74 35                	je     802ae8 <fs_test+0x570>
  802ab3:	48 b9 3c 6f 80 00 00 	movabs $0x806f3c,%rcx
  802aba:	00 00 00 
  802abd:	48 ba ae 6d 80 00 00 	movabs $0x806dae,%rdx
  802ac4:	00 00 00 
  802ac7:	be 36 00 00 00       	mov    $0x36,%esi
  802acc:	48 bf 79 6d 80 00 00 	movabs $0x806d79,%rdi
  802ad3:	00 00 00 
  802ad6:	b8 00 00 00 00       	mov    $0x0,%eax
  802adb:	49 b8 40 2e 80 00 00 	movabs $0x802e40,%r8
  802ae2:	00 00 00 
  802ae5:	41 ff d0             	callq  *%r8
	cprintf("file_truncate is good\n");
  802ae8:	48 bf 56 6f 80 00 00 	movabs $0x806f56,%rdi
  802aef:	00 00 00 
  802af2:	b8 00 00 00 00       	mov    $0x0,%eax
  802af7:	48 ba 7b 30 80 00 00 	movabs $0x80307b,%rdx
  802afe:	00 00 00 
  802b01:	ff d2                	callq  *%rdx

	if ((r = file_set_size(f, strlen(msg))) < 0)
  802b03:	48 b8 88 10 81 00 00 	movabs $0x811088,%rax
  802b0a:	00 00 00 
  802b0d:	48 8b 00             	mov    (%rax),%rax
  802b10:	48 89 c7             	mov    %rax,%rdi
  802b13:	48 b8 e0 3b 80 00 00 	movabs $0x803be0,%rax
  802b1a:	00 00 00 
  802b1d:	ff d0                	callq  *%rax
  802b1f:	89 c2                	mov    %eax,%edx
  802b21:	48 8b 45 d8          	mov    -0x28(%rbp),%rax
  802b25:	89 d6                	mov    %edx,%esi
  802b27:	48 89 c7             	mov    %rax,%rdi
  802b2a:	48 b8 4f 1a 80 00 00 	movabs $0x801a4f,%rax
  802b31:	00 00 00 
  802b34:	ff d0                	callq  *%rax
  802b36:	89 45 ec             	mov    %eax,-0x14(%rbp)
  802b39:	83 7d ec 00          	cmpl   $0x0,-0x14(%rbp)
  802b3d:	79 30                	jns    802b6f <fs_test+0x5f7>
		panic("file_set_size 2: %e", r);
  802b3f:	8b 45 ec             	mov    -0x14(%rbp),%eax
  802b42:	89 c1                	mov    %eax,%ecx
  802b44:	48 ba 6d 6f 80 00 00 	movabs $0x806f6d,%rdx
  802b4b:	00 00 00 
  802b4e:	be 3a 00 00 00       	mov    $0x3a,%esi
  802b53:	48 bf 79 6d 80 00 00 	movabs $0x806d79,%rdi
  802b5a:	00 00 00 
  802b5d:	b8 00 00 00 00       	mov    $0x0,%eax
  802b62:	49 b8 40 2e 80 00 00 	movabs $0x802e40,%r8
  802b69:	00 00 00 
  802b6c:	41 ff d0             	callq  *%r8
	assert(!(uvpt[PGNUM(f)] & PTE_D));
  802b6f:	48 8b 45 d8          	mov    -0x28(%rbp),%rax
  802b73:	48 89 c2             	mov    %rax,%rdx
  802b76:	48 c1 ea 0c          	shr    $0xc,%rdx
  802b7a:	48 b8 00 00 00 00 00 	movabs $0x10000000000,%rax
  802b81:	01 00 00 
  802b84:	48 8b 04 d0          	mov    (%rax,%rdx,8),%rax
  802b88:	83 e0 40             	and    $0x40,%eax
  802b8b:	48 85 c0             	test   %rax,%rax
  802b8e:	74 35                	je     802bc5 <fs_test+0x64d>
  802b90:	48 b9 3c 6f 80 00 00 	movabs $0x806f3c,%rcx
  802b97:	00 00 00 
  802b9a:	48 ba ae 6d 80 00 00 	movabs $0x806dae,%rdx
  802ba1:	00 00 00 
  802ba4:	be 3b 00 00 00       	mov    $0x3b,%esi
  802ba9:	48 bf 79 6d 80 00 00 	movabs $0x806d79,%rdi
  802bb0:	00 00 00 
  802bb3:	b8 00 00 00 00       	mov    $0x0,%eax
  802bb8:	49 b8 40 2e 80 00 00 	movabs $0x802e40,%r8
  802bbf:	00 00 00 
  802bc2:	41 ff d0             	callq  *%r8
	if ((r = file_get_block(f, 0, &blk)) < 0)
  802bc5:	48 8b 45 d8          	mov    -0x28(%rbp),%rax
  802bc9:	48 8d 55 d0          	lea    -0x30(%rbp),%rdx
  802bcd:	be 00 00 00 00       	mov    $0x0,%esi
  802bd2:	48 89 c7             	mov    %rax,%rdi
  802bd5:	48 b8 a7 0f 80 00 00 	movabs $0x800fa7,%rax
  802bdc:	00 00 00 
  802bdf:	ff d0                	callq  *%rax
  802be1:	89 45 ec             	mov    %eax,-0x14(%rbp)
  802be4:	83 7d ec 00          	cmpl   $0x0,-0x14(%rbp)
  802be8:	79 30                	jns    802c1a <fs_test+0x6a2>
		panic("file_get_block 2: %e", r);
  802bea:	8b 45 ec             	mov    -0x14(%rbp),%eax
  802bed:	89 c1                	mov    %eax,%ecx
  802bef:	48 ba 81 6f 80 00 00 	movabs $0x806f81,%rdx
  802bf6:	00 00 00 
  802bf9:	be 3d 00 00 00       	mov    $0x3d,%esi
  802bfe:	48 bf 79 6d 80 00 00 	movabs $0x806d79,%rdi
  802c05:	00 00 00 
  802c08:	b8 00 00 00 00       	mov    $0x0,%eax
  802c0d:	49 b8 40 2e 80 00 00 	movabs $0x802e40,%r8
  802c14:	00 00 00 
  802c17:	41 ff d0             	callq  *%r8
	strcpy(blk, msg);
  802c1a:	48 b8 88 10 81 00 00 	movabs $0x811088,%rax
  802c21:	00 00 00 
  802c24:	48 8b 10             	mov    (%rax),%rdx
  802c27:	48 8b 45 d0          	mov    -0x30(%rbp),%rax
  802c2b:	48 89 d6             	mov    %rdx,%rsi
  802c2e:	48 89 c7             	mov    %rax,%rdi
  802c31:	48 b8 4c 3c 80 00 00 	movabs $0x803c4c,%rax
  802c38:	00 00 00 
  802c3b:	ff d0                	callq  *%rax
	assert((uvpt[PGNUM(blk)] & PTE_D));
  802c3d:	48 8b 45 d0          	mov    -0x30(%rbp),%rax
  802c41:	48 89 c2             	mov    %rax,%rdx
  802c44:	48 c1 ea 0c          	shr    $0xc,%rdx
  802c48:	48 b8 00 00 00 00 00 	movabs $0x10000000000,%rax
  802c4f:	01 00 00 
  802c52:	48 8b 04 d0          	mov    (%rax,%rdx,8),%rax
  802c56:	83 e0 40             	and    $0x40,%eax
  802c59:	48 85 c0             	test   %rax,%rax
  802c5c:	75 35                	jne    802c93 <fs_test+0x71b>
  802c5e:	48 b9 cb 6e 80 00 00 	movabs $0x806ecb,%rcx
  802c65:	00 00 00 
  802c68:	48 ba ae 6d 80 00 00 	movabs $0x806dae,%rdx
  802c6f:	00 00 00 
  802c72:	be 3f 00 00 00       	mov    $0x3f,%esi
  802c77:	48 bf 79 6d 80 00 00 	movabs $0x806d79,%rdi
  802c7e:	00 00 00 
  802c81:	b8 00 00 00 00       	mov    $0x0,%eax
  802c86:	49 b8 40 2e 80 00 00 	movabs $0x802e40,%r8
  802c8d:	00 00 00 
  802c90:	41 ff d0             	callq  *%r8
	file_flush(f);
  802c93:	48 8b 45 d8          	mov    -0x28(%rbp),%rax
  802c97:	48 89 c7             	mov    %rax,%rdi
  802c9a:	48 b8 ac 1a 80 00 00 	movabs $0x801aac,%rax
  802ca1:	00 00 00 
  802ca4:	ff d0                	callq  *%rax
	assert(!(uvpt[PGNUM(blk)] & PTE_D));
  802ca6:	48 8b 45 d0          	mov    -0x30(%rbp),%rax
  802caa:	48 89 c2             	mov    %rax,%rdx
  802cad:	48 c1 ea 0c          	shr    $0xc,%rdx
  802cb1:	48 b8 00 00 00 00 00 	movabs $0x10000000000,%rax
  802cb8:	01 00 00 
  802cbb:	48 8b 04 d0          	mov    (%rax,%rdx,8),%rax
  802cbf:	83 e0 40             	and    $0x40,%eax
  802cc2:	48 85 c0             	test   %rax,%rax
  802cc5:	74 35                	je     802cfc <fs_test+0x784>
  802cc7:	48 b9 e6 6e 80 00 00 	movabs $0x806ee6,%rcx
  802cce:	00 00 00 
  802cd1:	48 ba ae 6d 80 00 00 	movabs $0x806dae,%rdx
  802cd8:	00 00 00 
  802cdb:	be 41 00 00 00       	mov    $0x41,%esi
  802ce0:	48 bf 79 6d 80 00 00 	movabs $0x806d79,%rdi
  802ce7:	00 00 00 
  802cea:	b8 00 00 00 00       	mov    $0x0,%eax
  802cef:	49 b8 40 2e 80 00 00 	movabs $0x802e40,%r8
  802cf6:	00 00 00 
  802cf9:	41 ff d0             	callq  *%r8
	assert(!(uvpt[PGNUM(f)] & PTE_D));
  802cfc:	48 8b 45 d8          	mov    -0x28(%rbp),%rax
  802d00:	48 89 c2             	mov    %rax,%rdx
  802d03:	48 c1 ea 0c          	shr    $0xc,%rdx
  802d07:	48 b8 00 00 00 00 00 	movabs $0x10000000000,%rax
  802d0e:	01 00 00 
  802d11:	48 8b 04 d0          	mov    (%rax,%rdx,8),%rax
  802d15:	83 e0 40             	and    $0x40,%eax
  802d18:	48 85 c0             	test   %rax,%rax
  802d1b:	74 35                	je     802d52 <fs_test+0x7da>
  802d1d:	48 b9 3c 6f 80 00 00 	movabs $0x806f3c,%rcx
  802d24:	00 00 00 
  802d27:	48 ba ae 6d 80 00 00 	movabs $0x806dae,%rdx
  802d2e:	00 00 00 
  802d31:	be 42 00 00 00       	mov    $0x42,%esi
  802d36:	48 bf 79 6d 80 00 00 	movabs $0x806d79,%rdi
  802d3d:	00 00 00 
  802d40:	b8 00 00 00 00       	mov    $0x0,%eax
  802d45:	49 b8 40 2e 80 00 00 	movabs $0x802e40,%r8
  802d4c:	00 00 00 
  802d4f:	41 ff d0             	callq  *%r8
	cprintf("file rewrite is good\n");
  802d52:	48 bf 96 6f 80 00 00 	movabs $0x806f96,%rdi
  802d59:	00 00 00 
  802d5c:	b8 00 00 00 00       	mov    $0x0,%eax
  802d61:	48 ba 7b 30 80 00 00 	movabs $0x80307b,%rdx
  802d68:	00 00 00 
  802d6b:	ff d2                	callq  *%rdx
}
  802d6d:	48 83 c4 28          	add    $0x28,%rsp
  802d71:	5b                   	pop    %rbx
  802d72:	5d                   	pop    %rbp
  802d73:	c3                   	retq   

0000000000802d74 <libmain>:
const volatile struct Env *thisenv;
const char *binaryname = "<unknown>";

void
libmain(int argc, char **argv)
{
  802d74:	55                   	push   %rbp
  802d75:	48 89 e5             	mov    %rsp,%rbp
  802d78:	48 83 ec 10          	sub    $0x10,%rsp
  802d7c:	89 7d fc             	mov    %edi,-0x4(%rbp)
  802d7f:	48 89 75 f0          	mov    %rsi,-0x10(%rbp)
	// set thisenv to point at our Env structure in envs[].
	// LAB 3: Your code here.
	thisenv = 0;
  802d83:	48 b8 18 20 81 00 00 	movabs $0x812018,%rax
  802d8a:	00 00 00 
  802d8d:	48 c7 00 00 00 00 00 	movq   $0x0,(%rax)
	thisenv = &envs[ENVX(sys_getenvid())];
  802d94:	48 b8 08 45 80 00 00 	movabs $0x804508,%rax
  802d9b:	00 00 00 
  802d9e:	ff d0                	callq  *%rax
  802da0:	48 98                	cltq   
  802da2:	48 89 c2             	mov    %rax,%rdx
  802da5:	81 e2 ff 03 00 00    	and    $0x3ff,%edx
  802dab:	48 89 d0             	mov    %rdx,%rax
  802dae:	48 c1 e0 02          	shl    $0x2,%rax
  802db2:	48 01 d0             	add    %rdx,%rax
  802db5:	48 01 c0             	add    %rax,%rax
  802db8:	48 01 d0             	add    %rdx,%rax
  802dbb:	48 c1 e0 05          	shl    $0x5,%rax
  802dbf:	48 89 c2             	mov    %rax,%rdx
  802dc2:	48 b8 00 00 80 00 80 	movabs $0x8000800000,%rax
  802dc9:	00 00 00 
  802dcc:	48 01 c2             	add    %rax,%rdx
  802dcf:	48 b8 18 20 81 00 00 	movabs $0x812018,%rax
  802dd6:	00 00 00 
  802dd9:	48 89 10             	mov    %rdx,(%rax)

	// save the name of the program so that panic() can use it
	if (argc > 0)
  802ddc:	83 7d fc 00          	cmpl   $0x0,-0x4(%rbp)
  802de0:	7e 14                	jle    802df6 <libmain+0x82>
		binaryname = argv[0];
  802de2:	48 8b 45 f0          	mov    -0x10(%rbp),%rax
  802de6:	48 8b 10             	mov    (%rax),%rdx
  802de9:	48 b8 90 10 81 00 00 	movabs $0x811090,%rax
  802df0:	00 00 00 
  802df3:	48 89 10             	mov    %rdx,(%rax)

	// call user main routine
	umain(argc, argv);
  802df6:	48 8b 55 f0          	mov    -0x10(%rbp),%rdx
  802dfa:	8b 45 fc             	mov    -0x4(%rbp),%eax
  802dfd:	48 89 d6             	mov    %rdx,%rsi
  802e00:	89 c7                	mov    %eax,%edi
  802e02:	48 b8 df 24 80 00 00 	movabs $0x8024df,%rax
  802e09:	00 00 00 
  802e0c:	ff d0                	callq  *%rax

	// exit gracefully
	exit();
  802e0e:	48 b8 1c 2e 80 00 00 	movabs $0x802e1c,%rax
  802e15:	00 00 00 
  802e18:	ff d0                	callq  *%rax
}
  802e1a:	c9                   	leaveq 
  802e1b:	c3                   	retq   

0000000000802e1c <exit>:

#include <inc/lib.h>

void
exit(void)
{
  802e1c:	55                   	push   %rbp
  802e1d:	48 89 e5             	mov    %rsp,%rbp
	close_all();
  802e20:	48 b8 55 4f 80 00 00 	movabs $0x804f55,%rax
  802e27:	00 00 00 
  802e2a:	ff d0                	callq  *%rax
	sys_env_destroy(0);
  802e2c:	bf 00 00 00 00       	mov    $0x0,%edi
  802e31:	48 b8 c4 44 80 00 00 	movabs $0x8044c4,%rax
  802e38:	00 00 00 
  802e3b:	ff d0                	callq  *%rax
}
  802e3d:	5d                   	pop    %rbp
  802e3e:	c3                   	retq   
	...

0000000000802e40 <_panic>:
 * It prints "panic: <message>", then causes a breakpoint exception,
 * which causes JOS to enter the JOS kernel monitor.
 */
void
_panic(const char *file, int line, const char *fmt, ...)
{
  802e40:	55                   	push   %rbp
  802e41:	48 89 e5             	mov    %rsp,%rbp
  802e44:	53                   	push   %rbx
  802e45:	48 81 ec f8 00 00 00 	sub    $0xf8,%rsp
  802e4c:	48 89 bd 18 ff ff ff 	mov    %rdi,-0xe8(%rbp)
  802e53:	89 b5 14 ff ff ff    	mov    %esi,-0xec(%rbp)
  802e59:	48 89 8d 58 ff ff ff 	mov    %rcx,-0xa8(%rbp)
  802e60:	4c 89 85 60 ff ff ff 	mov    %r8,-0xa0(%rbp)
  802e67:	4c 89 8d 68 ff ff ff 	mov    %r9,-0x98(%rbp)
  802e6e:	84 c0                	test   %al,%al
  802e70:	74 23                	je     802e95 <_panic+0x55>
  802e72:	0f 29 85 70 ff ff ff 	movaps %xmm0,-0x90(%rbp)
  802e79:	0f 29 4d 80          	movaps %xmm1,-0x80(%rbp)
  802e7d:	0f 29 55 90          	movaps %xmm2,-0x70(%rbp)
  802e81:	0f 29 5d a0          	movaps %xmm3,-0x60(%rbp)
  802e85:	0f 29 65 b0          	movaps %xmm4,-0x50(%rbp)
  802e89:	0f 29 6d c0          	movaps %xmm5,-0x40(%rbp)
  802e8d:	0f 29 75 d0          	movaps %xmm6,-0x30(%rbp)
  802e91:	0f 29 7d e0          	movaps %xmm7,-0x20(%rbp)
  802e95:	48 89 95 08 ff ff ff 	mov    %rdx,-0xf8(%rbp)
	va_list ap;

	va_start(ap, fmt);
  802e9c:	c7 85 28 ff ff ff 18 	movl   $0x18,-0xd8(%rbp)
  802ea3:	00 00 00 
  802ea6:	c7 85 2c ff ff ff 30 	movl   $0x30,-0xd4(%rbp)
  802ead:	00 00 00 
  802eb0:	48 8d 45 10          	lea    0x10(%rbp),%rax
  802eb4:	48 89 85 30 ff ff ff 	mov    %rax,-0xd0(%rbp)
  802ebb:	48 8d 85 40 ff ff ff 	lea    -0xc0(%rbp),%rax
  802ec2:	48 89 85 38 ff ff ff 	mov    %rax,-0xc8(%rbp)

	// Print the panic message
	cprintf("[%08x] user panic in %s at %s:%d: ",
  802ec9:	48 b8 90 10 81 00 00 	movabs $0x811090,%rax
  802ed0:	00 00 00 
  802ed3:	48 8b 18             	mov    (%rax),%rbx
  802ed6:	48 b8 08 45 80 00 00 	movabs $0x804508,%rax
  802edd:	00 00 00 
  802ee0:	ff d0                	callq  *%rax
  802ee2:	8b 8d 14 ff ff ff    	mov    -0xec(%rbp),%ecx
  802ee8:	48 8b 95 18 ff ff ff 	mov    -0xe8(%rbp),%rdx
  802eef:	41 89 c8             	mov    %ecx,%r8d
  802ef2:	48 89 d1             	mov    %rdx,%rcx
  802ef5:	48 89 da             	mov    %rbx,%rdx
  802ef8:	89 c6                	mov    %eax,%esi
  802efa:	48 bf b8 6f 80 00 00 	movabs $0x806fb8,%rdi
  802f01:	00 00 00 
  802f04:	b8 00 00 00 00       	mov    $0x0,%eax
  802f09:	49 b9 7b 30 80 00 00 	movabs $0x80307b,%r9
  802f10:	00 00 00 
  802f13:	41 ff d1             	callq  *%r9
		sys_getenvid(), binaryname, file, line);
	vcprintf(fmt, ap);
  802f16:	48 8d 95 28 ff ff ff 	lea    -0xd8(%rbp),%rdx
  802f1d:	48 8b 85 08 ff ff ff 	mov    -0xf8(%rbp),%rax
  802f24:	48 89 d6             	mov    %rdx,%rsi
  802f27:	48 89 c7             	mov    %rax,%rdi
  802f2a:	48 b8 cf 2f 80 00 00 	movabs $0x802fcf,%rax
  802f31:	00 00 00 
  802f34:	ff d0                	callq  *%rax
	cprintf("\n");
  802f36:	48 bf db 6f 80 00 00 	movabs $0x806fdb,%rdi
  802f3d:	00 00 00 
  802f40:	b8 00 00 00 00       	mov    $0x0,%eax
  802f45:	48 ba 7b 30 80 00 00 	movabs $0x80307b,%rdx
  802f4c:	00 00 00 
  802f4f:	ff d2                	callq  *%rdx

	// Cause a breakpoint exception
	while (1)
		asm volatile("int3");
  802f51:	cc                   	int3   
  802f52:	eb fd                	jmp    802f51 <_panic+0x111>

0000000000802f54 <putch>:
};


    static void
putch(int ch, struct printbuf *b)
{
  802f54:	55                   	push   %rbp
  802f55:	48 89 e5             	mov    %rsp,%rbp
  802f58:	48 83 ec 10          	sub    $0x10,%rsp
  802f5c:	89 7d fc             	mov    %edi,-0x4(%rbp)
  802f5f:	48 89 75 f0          	mov    %rsi,-0x10(%rbp)
    b->buf[b->idx++] = ch;
  802f63:	48 8b 45 f0          	mov    -0x10(%rbp),%rax
  802f67:	8b 00                	mov    (%rax),%eax
  802f69:	8b 55 fc             	mov    -0x4(%rbp),%edx
  802f6c:	89 d6                	mov    %edx,%esi
  802f6e:	48 8b 4d f0          	mov    -0x10(%rbp),%rcx
  802f72:	48 63 d0             	movslq %eax,%rdx
  802f75:	40 88 74 11 08       	mov    %sil,0x8(%rcx,%rdx,1)
  802f7a:	8d 50 01             	lea    0x1(%rax),%edx
  802f7d:	48 8b 45 f0          	mov    -0x10(%rbp),%rax
  802f81:	89 10                	mov    %edx,(%rax)
    if (b->idx == 256-1) {
  802f83:	48 8b 45 f0          	mov    -0x10(%rbp),%rax
  802f87:	8b 00                	mov    (%rax),%eax
  802f89:	3d ff 00 00 00       	cmp    $0xff,%eax
  802f8e:	75 2c                	jne    802fbc <putch+0x68>
        sys_cputs(b->buf, b->idx);
  802f90:	48 8b 45 f0          	mov    -0x10(%rbp),%rax
  802f94:	8b 00                	mov    (%rax),%eax
  802f96:	48 98                	cltq   
  802f98:	48 8b 55 f0          	mov    -0x10(%rbp),%rdx
  802f9c:	48 83 c2 08          	add    $0x8,%rdx
  802fa0:	48 89 c6             	mov    %rax,%rsi
  802fa3:	48 89 d7             	mov    %rdx,%rdi
  802fa6:	48 b8 3c 44 80 00 00 	movabs $0x80443c,%rax
  802fad:	00 00 00 
  802fb0:	ff d0                	callq  *%rax
        b->idx = 0;
  802fb2:	48 8b 45 f0          	mov    -0x10(%rbp),%rax
  802fb6:	c7 00 00 00 00 00    	movl   $0x0,(%rax)
    }
    b->cnt++;
  802fbc:	48 8b 45 f0          	mov    -0x10(%rbp),%rax
  802fc0:	8b 40 04             	mov    0x4(%rax),%eax
  802fc3:	8d 50 01             	lea    0x1(%rax),%edx
  802fc6:	48 8b 45 f0          	mov    -0x10(%rbp),%rax
  802fca:	89 50 04             	mov    %edx,0x4(%rax)
}
  802fcd:	c9                   	leaveq 
  802fce:	c3                   	retq   

0000000000802fcf <vcprintf>:

    int
vcprintf(const char *fmt, va_list ap)
{
  802fcf:	55                   	push   %rbp
  802fd0:	48 89 e5             	mov    %rsp,%rbp
  802fd3:	48 81 ec 40 01 00 00 	sub    $0x140,%rsp
  802fda:	48 89 bd c8 fe ff ff 	mov    %rdi,-0x138(%rbp)
  802fe1:	48 89 b5 c0 fe ff ff 	mov    %rsi,-0x140(%rbp)
    struct printbuf b;
    va_list aq;
    va_copy(aq,ap);
  802fe8:	48 8d 85 d8 fe ff ff 	lea    -0x128(%rbp),%rax
  802fef:	48 8b 95 c0 fe ff ff 	mov    -0x140(%rbp),%rdx
  802ff6:	48 8b 0a             	mov    (%rdx),%rcx
  802ff9:	48 89 08             	mov    %rcx,(%rax)
  802ffc:	48 8b 4a 08          	mov    0x8(%rdx),%rcx
  803000:	48 89 48 08          	mov    %rcx,0x8(%rax)
  803004:	48 8b 52 10          	mov    0x10(%rdx),%rdx
  803008:	48 89 50 10          	mov    %rdx,0x10(%rax)
    b.idx = 0;
  80300c:	c7 85 f0 fe ff ff 00 	movl   $0x0,-0x110(%rbp)
  803013:	00 00 00 
    b.cnt = 0;
  803016:	c7 85 f4 fe ff ff 00 	movl   $0x0,-0x10c(%rbp)
  80301d:	00 00 00 
    vprintfmt((void*)putch, &b, fmt, aq);
  803020:	48 8d 8d d8 fe ff ff 	lea    -0x128(%rbp),%rcx
  803027:	48 8b 95 c8 fe ff ff 	mov    -0x138(%rbp),%rdx
  80302e:	48 8d 85 f0 fe ff ff 	lea    -0x110(%rbp),%rax
  803035:	48 89 c6             	mov    %rax,%rsi
  803038:	48 bf 54 2f 80 00 00 	movabs $0x802f54,%rdi
  80303f:	00 00 00 
  803042:	48 b8 2c 34 80 00 00 	movabs $0x80342c,%rax
  803049:	00 00 00 
  80304c:	ff d0                	callq  *%rax
    sys_cputs(b.buf, b.idx);
  80304e:	8b 85 f0 fe ff ff    	mov    -0x110(%rbp),%eax
  803054:	48 98                	cltq   
  803056:	48 8d 95 f0 fe ff ff 	lea    -0x110(%rbp),%rdx
  80305d:	48 83 c2 08          	add    $0x8,%rdx
  803061:	48 89 c6             	mov    %rax,%rsi
  803064:	48 89 d7             	mov    %rdx,%rdi
  803067:	48 b8 3c 44 80 00 00 	movabs $0x80443c,%rax
  80306e:	00 00 00 
  803071:	ff d0                	callq  *%rax
    va_end(aq);

    return b.cnt;
  803073:	8b 85 f4 fe ff ff    	mov    -0x10c(%rbp),%eax
}
  803079:	c9                   	leaveq 
  80307a:	c3                   	retq   

000000000080307b <cprintf>:

    int
cprintf(const char *fmt, ...)
{
  80307b:	55                   	push   %rbp
  80307c:	48 89 e5             	mov    %rsp,%rbp
  80307f:	48 81 ec 00 01 00 00 	sub    $0x100,%rsp
  803086:	48 89 b5 58 ff ff ff 	mov    %rsi,-0xa8(%rbp)
  80308d:	48 89 95 60 ff ff ff 	mov    %rdx,-0xa0(%rbp)
  803094:	48 89 8d 68 ff ff ff 	mov    %rcx,-0x98(%rbp)
  80309b:	4c 89 85 70 ff ff ff 	mov    %r8,-0x90(%rbp)
  8030a2:	4c 89 8d 78 ff ff ff 	mov    %r9,-0x88(%rbp)
  8030a9:	84 c0                	test   %al,%al
  8030ab:	74 20                	je     8030cd <cprintf+0x52>
  8030ad:	0f 29 45 80          	movaps %xmm0,-0x80(%rbp)
  8030b1:	0f 29 4d 90          	movaps %xmm1,-0x70(%rbp)
  8030b5:	0f 29 55 a0          	movaps %xmm2,-0x60(%rbp)
  8030b9:	0f 29 5d b0          	movaps %xmm3,-0x50(%rbp)
  8030bd:	0f 29 65 c0          	movaps %xmm4,-0x40(%rbp)
  8030c1:	0f 29 6d d0          	movaps %xmm5,-0x30(%rbp)
  8030c5:	0f 29 75 e0          	movaps %xmm6,-0x20(%rbp)
  8030c9:	0f 29 7d f0          	movaps %xmm7,-0x10(%rbp)
  8030cd:	48 89 bd 08 ff ff ff 	mov    %rdi,-0xf8(%rbp)
    va_list ap;
    int cnt;
    va_list aq;
    va_start(ap, fmt);
  8030d4:	c7 85 30 ff ff ff 08 	movl   $0x8,-0xd0(%rbp)
  8030db:	00 00 00 
  8030de:	c7 85 34 ff ff ff 30 	movl   $0x30,-0xcc(%rbp)
  8030e5:	00 00 00 
  8030e8:	48 8d 45 10          	lea    0x10(%rbp),%rax
  8030ec:	48 89 85 38 ff ff ff 	mov    %rax,-0xc8(%rbp)
  8030f3:	48 8d 85 50 ff ff ff 	lea    -0xb0(%rbp),%rax
  8030fa:	48 89 85 40 ff ff ff 	mov    %rax,-0xc0(%rbp)
    va_copy(aq,ap);
  803101:	48 8d 85 18 ff ff ff 	lea    -0xe8(%rbp),%rax
  803108:	48 8d 95 30 ff ff ff 	lea    -0xd0(%rbp),%rdx
  80310f:	48 8b 0a             	mov    (%rdx),%rcx
  803112:	48 89 08             	mov    %rcx,(%rax)
  803115:	48 8b 4a 08          	mov    0x8(%rdx),%rcx
  803119:	48 89 48 08          	mov    %rcx,0x8(%rax)
  80311d:	48 8b 52 10          	mov    0x10(%rdx),%rdx
  803121:	48 89 50 10          	mov    %rdx,0x10(%rax)
    cnt = vcprintf(fmt, aq);
  803125:	48 8d 95 18 ff ff ff 	lea    -0xe8(%rbp),%rdx
  80312c:	48 8b 85 08 ff ff ff 	mov    -0xf8(%rbp),%rax
  803133:	48 89 d6             	mov    %rdx,%rsi
  803136:	48 89 c7             	mov    %rax,%rdi
  803139:	48 b8 cf 2f 80 00 00 	movabs $0x802fcf,%rax
  803140:	00 00 00 
  803143:	ff d0                	callq  *%rax
  803145:	89 85 4c ff ff ff    	mov    %eax,-0xb4(%rbp)
    va_end(aq);

    return cnt;
  80314b:	8b 85 4c ff ff ff    	mov    -0xb4(%rbp),%eax
}
  803151:	c9                   	leaveq 
  803152:	c3                   	retq   
	...

0000000000803154 <printnum>:
 * using specified putch function and associated pointer putdat.
 */
static void
printnum(void (*putch)(int, void*), void *putdat,
	 unsigned long long num, unsigned base, int width, int padc)
{
  803154:	55                   	push   %rbp
  803155:	48 89 e5             	mov    %rsp,%rbp
  803158:	48 83 ec 30          	sub    $0x30,%rsp
  80315c:	48 89 7d f8          	mov    %rdi,-0x8(%rbp)
  803160:	48 89 75 f0          	mov    %rsi,-0x10(%rbp)
  803164:	48 89 55 e8          	mov    %rdx,-0x18(%rbp)
  803168:	89 4d e4             	mov    %ecx,-0x1c(%rbp)
  80316b:	44 89 45 e0          	mov    %r8d,-0x20(%rbp)
  80316f:	44 89 4d dc          	mov    %r9d,-0x24(%rbp)
	// first recursively print all preceding (more significant) digits
	if (num >= base) {
  803173:	8b 45 e4             	mov    -0x1c(%rbp),%eax
  803176:	48 3b 45 e8          	cmp    -0x18(%rbp),%rax
  80317a:	77 52                	ja     8031ce <printnum+0x7a>
		printnum(putch, putdat, num / base, base, width - 1, padc);
  80317c:	8b 45 e0             	mov    -0x20(%rbp),%eax
  80317f:	44 8d 40 ff          	lea    -0x1(%rax),%r8d
  803183:	8b 55 e4             	mov    -0x1c(%rbp),%edx
  803186:	48 89 55 d0          	mov    %rdx,-0x30(%rbp)
  80318a:	48 8b 45 e8          	mov    -0x18(%rbp),%rax
  80318e:	ba 00 00 00 00       	mov    $0x0,%edx
  803193:	48 f7 75 d0          	divq   -0x30(%rbp)
  803197:	48 89 c2             	mov    %rax,%rdx
  80319a:	8b 7d dc             	mov    -0x24(%rbp),%edi
  80319d:	8b 4d e4             	mov    -0x1c(%rbp),%ecx
  8031a0:	48 8b 75 f0          	mov    -0x10(%rbp),%rsi
  8031a4:	48 8b 45 f8          	mov    -0x8(%rbp),%rax
  8031a8:	41 89 f9             	mov    %edi,%r9d
  8031ab:	48 89 c7             	mov    %rax,%rdi
  8031ae:	48 b8 54 31 80 00 00 	movabs $0x803154,%rax
  8031b5:	00 00 00 
  8031b8:	ff d0                	callq  *%rax
  8031ba:	eb 1c                	jmp    8031d8 <printnum+0x84>
	} else {
		// print any needed pad characters before first digit
		while (--width > 0)
			putch(padc, putdat);
  8031bc:	48 8b 55 f0          	mov    -0x10(%rbp),%rdx
  8031c0:	8b 45 dc             	mov    -0x24(%rbp),%eax
  8031c3:	48 8b 4d f8          	mov    -0x8(%rbp),%rcx
  8031c7:	48 89 d6             	mov    %rdx,%rsi
  8031ca:	89 c7                	mov    %eax,%edi
  8031cc:	ff d1                	callq  *%rcx
	// first recursively print all preceding (more significant) digits
	if (num >= base) {
		printnum(putch, putdat, num / base, base, width - 1, padc);
	} else {
		// print any needed pad characters before first digit
		while (--width > 0)
  8031ce:	83 6d e0 01          	subl   $0x1,-0x20(%rbp)
  8031d2:	83 7d e0 00          	cmpl   $0x0,-0x20(%rbp)
  8031d6:	7f e4                	jg     8031bc <printnum+0x68>
			putch(padc, putdat);
	}

	// then print this (the least significant) digit
	putch("0123456789abcdef"[num % base], putdat);
  8031d8:	8b 4d e4             	mov    -0x1c(%rbp),%ecx
  8031db:	48 8b 45 e8          	mov    -0x18(%rbp),%rax
  8031df:	ba 00 00 00 00       	mov    $0x0,%edx
  8031e4:	48 f7 f1             	div    %rcx
  8031e7:	48 89 d0             	mov    %rdx,%rax
  8031ea:	48 ba d0 71 80 00 00 	movabs $0x8071d0,%rdx
  8031f1:	00 00 00 
  8031f4:	0f b6 04 02          	movzbl (%rdx,%rax,1),%eax
  8031f8:	0f be c0             	movsbl %al,%eax
  8031fb:	48 8b 55 f0          	mov    -0x10(%rbp),%rdx
  8031ff:	48 8b 4d f8          	mov    -0x8(%rbp),%rcx
  803203:	48 89 d6             	mov    %rdx,%rsi
  803206:	89 c7                	mov    %eax,%edi
  803208:	ff d1                	callq  *%rcx
}
  80320a:	c9                   	leaveq 
  80320b:	c3                   	retq   

000000000080320c <getuint>:

// Get an unsigned int of various possible sizes from a varargs list,
// depending on the lflag parameter.
static unsigned long long
getuint(va_list *ap, int lflag)
{
  80320c:	55                   	push   %rbp
  80320d:	48 89 e5             	mov    %rsp,%rbp
  803210:	48 83 ec 20          	sub    $0x20,%rsp
  803214:	48 89 7d e8          	mov    %rdi,-0x18(%rbp)
  803218:	89 75 e4             	mov    %esi,-0x1c(%rbp)
	unsigned long long x;    
	if (lflag >= 2)
  80321b:	83 7d e4 01          	cmpl   $0x1,-0x1c(%rbp)
  80321f:	7e 52                	jle    803273 <getuint+0x67>
		x= va_arg(*ap, unsigned long long);
  803221:	48 8b 45 e8          	mov    -0x18(%rbp),%rax
  803225:	8b 00                	mov    (%rax),%eax
  803227:	83 f8 30             	cmp    $0x30,%eax
  80322a:	73 24                	jae    803250 <getuint+0x44>
  80322c:	48 8b 45 e8          	mov    -0x18(%rbp),%rax
  803230:	48 8b 50 10          	mov    0x10(%rax),%rdx
  803234:	48 8b 45 e8          	mov    -0x18(%rbp),%rax
  803238:	8b 00                	mov    (%rax),%eax
  80323a:	89 c0                	mov    %eax,%eax
  80323c:	48 01 d0             	add    %rdx,%rax
  80323f:	48 8b 55 e8          	mov    -0x18(%rbp),%rdx
  803243:	8b 12                	mov    (%rdx),%edx
  803245:	8d 4a 08             	lea    0x8(%rdx),%ecx
  803248:	48 8b 55 e8          	mov    -0x18(%rbp),%rdx
  80324c:	89 0a                	mov    %ecx,(%rdx)
  80324e:	eb 17                	jmp    803267 <getuint+0x5b>
  803250:	48 8b 45 e8          	mov    -0x18(%rbp),%rax
  803254:	48 8b 50 08          	mov    0x8(%rax),%rdx
  803258:	48 89 d0             	mov    %rdx,%rax
  80325b:	48 8d 4a 08          	lea    0x8(%rdx),%rcx
  80325f:	48 8b 55 e8          	mov    -0x18(%rbp),%rdx
  803263:	48 89 4a 08          	mov    %rcx,0x8(%rdx)
  803267:	48 8b 00             	mov    (%rax),%rax
  80326a:	48 89 45 f8          	mov    %rax,-0x8(%rbp)
  80326e:	e9 a3 00 00 00       	jmpq   803316 <getuint+0x10a>
	else if (lflag)
  803273:	83 7d e4 00          	cmpl   $0x0,-0x1c(%rbp)
  803277:	74 4f                	je     8032c8 <getuint+0xbc>
		x= va_arg(*ap, unsigned long);
  803279:	48 8b 45 e8          	mov    -0x18(%rbp),%rax
  80327d:	8b 00                	mov    (%rax),%eax
  80327f:	83 f8 30             	cmp    $0x30,%eax
  803282:	73 24                	jae    8032a8 <getuint+0x9c>
  803284:	48 8b 45 e8          	mov    -0x18(%rbp),%rax
  803288:	48 8b 50 10          	mov    0x10(%rax),%rdx
  80328c:	48 8b 45 e8          	mov    -0x18(%rbp),%rax
  803290:	8b 00                	mov    (%rax),%eax
  803292:	89 c0                	mov    %eax,%eax
  803294:	48 01 d0             	add    %rdx,%rax
  803297:	48 8b 55 e8          	mov    -0x18(%rbp),%rdx
  80329b:	8b 12                	mov    (%rdx),%edx
  80329d:	8d 4a 08             	lea    0x8(%rdx),%ecx
  8032a0:	48 8b 55 e8          	mov    -0x18(%rbp),%rdx
  8032a4:	89 0a                	mov    %ecx,(%rdx)
  8032a6:	eb 17                	jmp    8032bf <getuint+0xb3>
  8032a8:	48 8b 45 e8          	mov    -0x18(%rbp),%rax
  8032ac:	48 8b 50 08          	mov    0x8(%rax),%rdx
  8032b0:	48 89 d0             	mov    %rdx,%rax
  8032b3:	48 8d 4a 08          	lea    0x8(%rdx),%rcx
  8032b7:	48 8b 55 e8          	mov    -0x18(%rbp),%rdx
  8032bb:	48 89 4a 08          	mov    %rcx,0x8(%rdx)
  8032bf:	48 8b 00             	mov    (%rax),%rax
  8032c2:	48 89 45 f8          	mov    %rax,-0x8(%rbp)
  8032c6:	eb 4e                	jmp    803316 <getuint+0x10a>
	else
		x= va_arg(*ap, unsigned int);
  8032c8:	48 8b 45 e8          	mov    -0x18(%rbp),%rax
  8032cc:	8b 00                	mov    (%rax),%eax
  8032ce:	83 f8 30             	cmp    $0x30,%eax
  8032d1:	73 24                	jae    8032f7 <getuint+0xeb>
  8032d3:	48 8b 45 e8          	mov    -0x18(%rbp),%rax
  8032d7:	48 8b 50 10          	mov    0x10(%rax),%rdx
  8032db:	48 8b 45 e8          	mov    -0x18(%rbp),%rax
  8032df:	8b 00                	mov    (%rax),%eax
  8032e1:	89 c0                	mov    %eax,%eax
  8032e3:	48 01 d0             	add    %rdx,%rax
  8032e6:	48 8b 55 e8          	mov    -0x18(%rbp),%rdx
  8032ea:	8b 12                	mov    (%rdx),%edx
  8032ec:	8d 4a 08             	lea    0x8(%rdx),%ecx
  8032ef:	48 8b 55 e8          	mov    -0x18(%rbp),%rdx
  8032f3:	89 0a                	mov    %ecx,(%rdx)
  8032f5:	eb 17                	jmp    80330e <getuint+0x102>
  8032f7:	48 8b 45 e8          	mov    -0x18(%rbp),%rax
  8032fb:	48 8b 50 08          	mov    0x8(%rax),%rdx
  8032ff:	48 89 d0             	mov    %rdx,%rax
  803302:	48 8d 4a 08          	lea    0x8(%rdx),%rcx
  803306:	48 8b 55 e8          	mov    -0x18(%rbp),%rdx
  80330a:	48 89 4a 08          	mov    %rcx,0x8(%rdx)
  80330e:	8b 00                	mov    (%rax),%eax
  803310:	89 c0                	mov    %eax,%eax
  803312:	48 89 45 f8          	mov    %rax,-0x8(%rbp)
	return x;
  803316:	48 8b 45 f8          	mov    -0x8(%rbp),%rax
}
  80331a:	c9                   	leaveq 
  80331b:	c3                   	retq   

000000000080331c <getint>:

// Same as getuint but signed - can't use getuint
// because of sign extension
static long long
getint(va_list *ap, int lflag)
{
  80331c:	55                   	push   %rbp
  80331d:	48 89 e5             	mov    %rsp,%rbp
  803320:	48 83 ec 20          	sub    $0x20,%rsp
  803324:	48 89 7d e8          	mov    %rdi,-0x18(%rbp)
  803328:	89 75 e4             	mov    %esi,-0x1c(%rbp)
	long long x;
	if (lflag >= 2)
  80332b:	83 7d e4 01          	cmpl   $0x1,-0x1c(%rbp)
  80332f:	7e 52                	jle    803383 <getint+0x67>
		x=va_arg(*ap, long long);
  803331:	48 8b 45 e8          	mov    -0x18(%rbp),%rax
  803335:	8b 00                	mov    (%rax),%eax
  803337:	83 f8 30             	cmp    $0x30,%eax
  80333a:	73 24                	jae    803360 <getint+0x44>
  80333c:	48 8b 45 e8          	mov    -0x18(%rbp),%rax
  803340:	48 8b 50 10          	mov    0x10(%rax),%rdx
  803344:	48 8b 45 e8          	mov    -0x18(%rbp),%rax
  803348:	8b 00                	mov    (%rax),%eax
  80334a:	89 c0                	mov    %eax,%eax
  80334c:	48 01 d0             	add    %rdx,%rax
  80334f:	48 8b 55 e8          	mov    -0x18(%rbp),%rdx
  803353:	8b 12                	mov    (%rdx),%edx
  803355:	8d 4a 08             	lea    0x8(%rdx),%ecx
  803358:	48 8b 55 e8          	mov    -0x18(%rbp),%rdx
  80335c:	89 0a                	mov    %ecx,(%rdx)
  80335e:	eb 17                	jmp    803377 <getint+0x5b>
  803360:	48 8b 45 e8          	mov    -0x18(%rbp),%rax
  803364:	48 8b 50 08          	mov    0x8(%rax),%rdx
  803368:	48 89 d0             	mov    %rdx,%rax
  80336b:	48 8d 4a 08          	lea    0x8(%rdx),%rcx
  80336f:	48 8b 55 e8          	mov    -0x18(%rbp),%rdx
  803373:	48 89 4a 08          	mov    %rcx,0x8(%rdx)
  803377:	48 8b 00             	mov    (%rax),%rax
  80337a:	48 89 45 f8          	mov    %rax,-0x8(%rbp)
  80337e:	e9 a3 00 00 00       	jmpq   803426 <getint+0x10a>
	else if (lflag)
  803383:	83 7d e4 00          	cmpl   $0x0,-0x1c(%rbp)
  803387:	74 4f                	je     8033d8 <getint+0xbc>
		x=va_arg(*ap, long);
  803389:	48 8b 45 e8          	mov    -0x18(%rbp),%rax
  80338d:	8b 00                	mov    (%rax),%eax
  80338f:	83 f8 30             	cmp    $0x30,%eax
  803392:	73 24                	jae    8033b8 <getint+0x9c>
  803394:	48 8b 45 e8          	mov    -0x18(%rbp),%rax
  803398:	48 8b 50 10          	mov    0x10(%rax),%rdx
  80339c:	48 8b 45 e8          	mov    -0x18(%rbp),%rax
  8033a0:	8b 00                	mov    (%rax),%eax
  8033a2:	89 c0                	mov    %eax,%eax
  8033a4:	48 01 d0             	add    %rdx,%rax
  8033a7:	48 8b 55 e8          	mov    -0x18(%rbp),%rdx
  8033ab:	8b 12                	mov    (%rdx),%edx
  8033ad:	8d 4a 08             	lea    0x8(%rdx),%ecx
  8033b0:	48 8b 55 e8          	mov    -0x18(%rbp),%rdx
  8033b4:	89 0a                	mov    %ecx,(%rdx)
  8033b6:	eb 17                	jmp    8033cf <getint+0xb3>
  8033b8:	48 8b 45 e8          	mov    -0x18(%rbp),%rax
  8033bc:	48 8b 50 08          	mov    0x8(%rax),%rdx
  8033c0:	48 89 d0             	mov    %rdx,%rax
  8033c3:	48 8d 4a 08          	lea    0x8(%rdx),%rcx
  8033c7:	48 8b 55 e8          	mov    -0x18(%rbp),%rdx
  8033cb:	48 89 4a 08          	mov    %rcx,0x8(%rdx)
  8033cf:	48 8b 00             	mov    (%rax),%rax
  8033d2:	48 89 45 f8          	mov    %rax,-0x8(%rbp)
  8033d6:	eb 4e                	jmp    803426 <getint+0x10a>
	else
		x=va_arg(*ap, int);
  8033d8:	48 8b 45 e8          	mov    -0x18(%rbp),%rax
  8033dc:	8b 00                	mov    (%rax),%eax
  8033de:	83 f8 30             	cmp    $0x30,%eax
  8033e1:	73 24                	jae    803407 <getint+0xeb>
  8033e3:	48 8b 45 e8          	mov    -0x18(%rbp),%rax
  8033e7:	48 8b 50 10          	mov    0x10(%rax),%rdx
  8033eb:	48 8b 45 e8          	mov    -0x18(%rbp),%rax
  8033ef:	8b 00                	mov    (%rax),%eax
  8033f1:	89 c0                	mov    %eax,%eax
  8033f3:	48 01 d0             	add    %rdx,%rax
  8033f6:	48 8b 55 e8          	mov    -0x18(%rbp),%rdx
  8033fa:	8b 12                	mov    (%rdx),%edx
  8033fc:	8d 4a 08             	lea    0x8(%rdx),%ecx
  8033ff:	48 8b 55 e8          	mov    -0x18(%rbp),%rdx
  803403:	89 0a                	mov    %ecx,(%rdx)
  803405:	eb 17                	jmp    80341e <getint+0x102>
  803407:	48 8b 45 e8          	mov    -0x18(%rbp),%rax
  80340b:	48 8b 50 08          	mov    0x8(%rax),%rdx
  80340f:	48 89 d0             	mov    %rdx,%rax
  803412:	48 8d 4a 08          	lea    0x8(%rdx),%rcx
  803416:	48 8b 55 e8          	mov    -0x18(%rbp),%rdx
  80341a:	48 89 4a 08          	mov    %rcx,0x8(%rdx)
  80341e:	8b 00                	mov    (%rax),%eax
  803420:	48 98                	cltq   
  803422:	48 89 45 f8          	mov    %rax,-0x8(%rbp)
	return x;
  803426:	48 8b 45 f8          	mov    -0x8(%rbp),%rax
}
  80342a:	c9                   	leaveq 
  80342b:	c3                   	retq   

000000000080342c <vprintfmt>:
// Main function to format and print a string.
void printfmt(void (*putch)(int, void*), void *putdat, const char *fmt, ...);

void
vprintfmt(void (*putch)(int, void*), void *putdat, const char *fmt, va_list ap)
{
  80342c:	55                   	push   %rbp
  80342d:	48 89 e5             	mov    %rsp,%rbp
  803430:	41 54                	push   %r12
  803432:	53                   	push   %rbx
  803433:	48 83 ec 60          	sub    $0x60,%rsp
  803437:	48 89 7d a8          	mov    %rdi,-0x58(%rbp)
  80343b:	48 89 75 a0          	mov    %rsi,-0x60(%rbp)
  80343f:	48 89 55 98          	mov    %rdx,-0x68(%rbp)
  803443:	48 89 4d 90          	mov    %rcx,-0x70(%rbp)
	register int ch, err;
	unsigned long long num;
	int base, lflag, width, precision, altflag;
	char padc;
	va_list aq;
	va_copy(aq,ap);
  803447:	48 8d 45 b8          	lea    -0x48(%rbp),%rax
  80344b:	48 8b 55 90          	mov    -0x70(%rbp),%rdx
  80344f:	48 8b 0a             	mov    (%rdx),%rcx
  803452:	48 89 08             	mov    %rcx,(%rax)
  803455:	48 8b 4a 08          	mov    0x8(%rdx),%rcx
  803459:	48 89 48 08          	mov    %rcx,0x8(%rax)
  80345d:	48 8b 52 10          	mov    0x10(%rdx),%rdx
  803461:	48 89 50 10          	mov    %rdx,0x10(%rax)
	while (1) {
		while ((ch = *(unsigned char *) fmt++) != '%') {
  803465:	eb 17                	jmp    80347e <vprintfmt+0x52>
			if (ch == '\0')
  803467:	85 db                	test   %ebx,%ebx
  803469:	0f 84 ea 04 00 00    	je     803959 <vprintfmt+0x52d>
				return;
			putch(ch, putdat);
  80346f:	48 8b 45 a0          	mov    -0x60(%rbp),%rax
  803473:	48 8b 55 a8          	mov    -0x58(%rbp),%rdx
  803477:	48 89 c6             	mov    %rax,%rsi
  80347a:	89 df                	mov    %ebx,%edi
  80347c:	ff d2                	callq  *%rdx
	int base, lflag, width, precision, altflag;
	char padc;
	va_list aq;
	va_copy(aq,ap);
	while (1) {
		while ((ch = *(unsigned char *) fmt++) != '%') {
  80347e:	48 8b 45 98          	mov    -0x68(%rbp),%rax
  803482:	0f b6 00             	movzbl (%rax),%eax
  803485:	0f b6 d8             	movzbl %al,%ebx
  803488:	83 fb 25             	cmp    $0x25,%ebx
  80348b:	0f 95 c0             	setne  %al
  80348e:	48 83 45 98 01       	addq   $0x1,-0x68(%rbp)
  803493:	84 c0                	test   %al,%al
  803495:	75 d0                	jne    803467 <vprintfmt+0x3b>
				return;
			putch(ch, putdat);
		}

		// Process a %-escape sequence
		padc = ' ';
  803497:	c6 45 d3 20          	movb   $0x20,-0x2d(%rbp)
		width = -1;
  80349b:	c7 45 dc ff ff ff ff 	movl   $0xffffffff,-0x24(%rbp)
		precision = -1;
  8034a2:	c7 45 d8 ff ff ff ff 	movl   $0xffffffff,-0x28(%rbp)
		lflag = 0;
  8034a9:	c7 45 e0 00 00 00 00 	movl   $0x0,-0x20(%rbp)
		altflag = 0;
  8034b0:	c7 45 d4 00 00 00 00 	movl   $0x0,-0x2c(%rbp)
  8034b7:	eb 04                	jmp    8034bd <vprintfmt+0x91>
			goto process_precision;

		case '.':
			if (width < 0)
				width = 0;
			goto reswitch;
  8034b9:	90                   	nop
  8034ba:	eb 01                	jmp    8034bd <vprintfmt+0x91>
			goto reswitch;

		process_precision:
			if (width < 0)
				width = precision, precision = -1;
			goto reswitch;
  8034bc:	90                   	nop
		width = -1;
		precision = -1;
		lflag = 0;
		altflag = 0;
	reswitch:
		switch (ch = *(unsigned char *) fmt++) {
  8034bd:	48 8b 45 98          	mov    -0x68(%rbp),%rax
  8034c1:	0f b6 00             	movzbl (%rax),%eax
  8034c4:	0f b6 d8             	movzbl %al,%ebx
  8034c7:	89 d8                	mov    %ebx,%eax
  8034c9:	48 83 45 98 01       	addq   $0x1,-0x68(%rbp)
  8034ce:	83 e8 23             	sub    $0x23,%eax
  8034d1:	83 f8 55             	cmp    $0x55,%eax
  8034d4:	0f 87 4b 04 00 00    	ja     803925 <vprintfmt+0x4f9>
  8034da:	89 c0                	mov    %eax,%eax
  8034dc:	48 8d 14 c5 00 00 00 	lea    0x0(,%rax,8),%rdx
  8034e3:	00 
  8034e4:	48 b8 f8 71 80 00 00 	movabs $0x8071f8,%rax
  8034eb:	00 00 00 
  8034ee:	48 01 d0             	add    %rdx,%rax
  8034f1:	48 8b 00             	mov    (%rax),%rax
  8034f4:	ff e0                	jmpq   *%rax

			// flag to pad on the right
		case '-':
			padc = '-';
  8034f6:	c6 45 d3 2d          	movb   $0x2d,-0x2d(%rbp)
			goto reswitch;
  8034fa:	eb c1                	jmp    8034bd <vprintfmt+0x91>

			// flag to pad with 0's instead of spaces
		case '0':
			padc = '0';
  8034fc:	c6 45 d3 30          	movb   $0x30,-0x2d(%rbp)
			goto reswitch;
  803500:	eb bb                	jmp    8034bd <vprintfmt+0x91>
		case '5':
		case '6':
		case '7':
		case '8':
		case '9':
			for (precision = 0; ; ++fmt) {
  803502:	c7 45 d8 00 00 00 00 	movl   $0x0,-0x28(%rbp)
				precision = precision * 10 + ch - '0';
  803509:	8b 55 d8             	mov    -0x28(%rbp),%edx
  80350c:	89 d0                	mov    %edx,%eax
  80350e:	c1 e0 02             	shl    $0x2,%eax
  803511:	01 d0                	add    %edx,%eax
  803513:	01 c0                	add    %eax,%eax
  803515:	01 d8                	add    %ebx,%eax
  803517:	83 e8 30             	sub    $0x30,%eax
  80351a:	89 45 d8             	mov    %eax,-0x28(%rbp)
				ch = *fmt;
  80351d:	48 8b 45 98          	mov    -0x68(%rbp),%rax
  803521:	0f b6 00             	movzbl (%rax),%eax
  803524:	0f be d8             	movsbl %al,%ebx
				if (ch < '0' || ch > '9')
  803527:	83 fb 2f             	cmp    $0x2f,%ebx
  80352a:	7e 63                	jle    80358f <vprintfmt+0x163>
  80352c:	83 fb 39             	cmp    $0x39,%ebx
  80352f:	7f 5e                	jg     80358f <vprintfmt+0x163>
		case '5':
		case '6':
		case '7':
		case '8':
		case '9':
			for (precision = 0; ; ++fmt) {
  803531:	48 83 45 98 01       	addq   $0x1,-0x68(%rbp)
				precision = precision * 10 + ch - '0';
				ch = *fmt;
				if (ch < '0' || ch > '9')
					break;
			}
  803536:	eb d1                	jmp    803509 <vprintfmt+0xdd>
			goto process_precision;

		case '*':
			precision = va_arg(aq, int);
  803538:	8b 45 b8             	mov    -0x48(%rbp),%eax
  80353b:	83 f8 30             	cmp    $0x30,%eax
  80353e:	73 17                	jae    803557 <vprintfmt+0x12b>
  803540:	48 8b 55 c8          	mov    -0x38(%rbp),%rdx
  803544:	8b 45 b8             	mov    -0x48(%rbp),%eax
  803547:	89 c0                	mov    %eax,%eax
  803549:	48 01 d0             	add    %rdx,%rax
  80354c:	8b 55 b8             	mov    -0x48(%rbp),%edx
  80354f:	83 c2 08             	add    $0x8,%edx
  803552:	89 55 b8             	mov    %edx,-0x48(%rbp)
  803555:	eb 0f                	jmp    803566 <vprintfmt+0x13a>
  803557:	48 8b 55 c0          	mov    -0x40(%rbp),%rdx
  80355b:	48 89 d0             	mov    %rdx,%rax
  80355e:	48 83 c2 08          	add    $0x8,%rdx
  803562:	48 89 55 c0          	mov    %rdx,-0x40(%rbp)
  803566:	8b 00                	mov    (%rax),%eax
  803568:	89 45 d8             	mov    %eax,-0x28(%rbp)
			goto process_precision;
  80356b:	eb 23                	jmp    803590 <vprintfmt+0x164>

		case '.':
			if (width < 0)
  80356d:	83 7d dc 00          	cmpl   $0x0,-0x24(%rbp)
  803571:	0f 89 42 ff ff ff    	jns    8034b9 <vprintfmt+0x8d>
				width = 0;
  803577:	c7 45 dc 00 00 00 00 	movl   $0x0,-0x24(%rbp)
			goto reswitch;
  80357e:	e9 36 ff ff ff       	jmpq   8034b9 <vprintfmt+0x8d>

		case '#':
			altflag = 1;
  803583:	c7 45 d4 01 00 00 00 	movl   $0x1,-0x2c(%rbp)
			goto reswitch;
  80358a:	e9 2e ff ff ff       	jmpq   8034bd <vprintfmt+0x91>
				precision = precision * 10 + ch - '0';
				ch = *fmt;
				if (ch < '0' || ch > '9')
					break;
			}
			goto process_precision;
  80358f:	90                   	nop
		case '#':
			altflag = 1;
			goto reswitch;

		process_precision:
			if (width < 0)
  803590:	83 7d dc 00          	cmpl   $0x0,-0x24(%rbp)
  803594:	0f 89 22 ff ff ff    	jns    8034bc <vprintfmt+0x90>
				width = precision, precision = -1;
  80359a:	8b 45 d8             	mov    -0x28(%rbp),%eax
  80359d:	89 45 dc             	mov    %eax,-0x24(%rbp)
  8035a0:	c7 45 d8 ff ff ff ff 	movl   $0xffffffff,-0x28(%rbp)
			goto reswitch;
  8035a7:	e9 10 ff ff ff       	jmpq   8034bc <vprintfmt+0x90>

			// long flag (doubled for long long)
		case 'l':
			lflag++;
  8035ac:	83 45 e0 01          	addl   $0x1,-0x20(%rbp)
			goto reswitch;
  8035b0:	e9 08 ff ff ff       	jmpq   8034bd <vprintfmt+0x91>

			// character
		case 'c':
			putch(va_arg(aq, int), putdat);
  8035b5:	8b 45 b8             	mov    -0x48(%rbp),%eax
  8035b8:	83 f8 30             	cmp    $0x30,%eax
  8035bb:	73 17                	jae    8035d4 <vprintfmt+0x1a8>
  8035bd:	48 8b 55 c8          	mov    -0x38(%rbp),%rdx
  8035c1:	8b 45 b8             	mov    -0x48(%rbp),%eax
  8035c4:	89 c0                	mov    %eax,%eax
  8035c6:	48 01 d0             	add    %rdx,%rax
  8035c9:	8b 55 b8             	mov    -0x48(%rbp),%edx
  8035cc:	83 c2 08             	add    $0x8,%edx
  8035cf:	89 55 b8             	mov    %edx,-0x48(%rbp)
  8035d2:	eb 0f                	jmp    8035e3 <vprintfmt+0x1b7>
  8035d4:	48 8b 55 c0          	mov    -0x40(%rbp),%rdx
  8035d8:	48 89 d0             	mov    %rdx,%rax
  8035db:	48 83 c2 08          	add    $0x8,%rdx
  8035df:	48 89 55 c0          	mov    %rdx,-0x40(%rbp)
  8035e3:	8b 00                	mov    (%rax),%eax
  8035e5:	48 8b 55 a0          	mov    -0x60(%rbp),%rdx
  8035e9:	48 8b 4d a8          	mov    -0x58(%rbp),%rcx
  8035ed:	48 89 d6             	mov    %rdx,%rsi
  8035f0:	89 c7                	mov    %eax,%edi
  8035f2:	ff d1                	callq  *%rcx
			break;
  8035f4:	e9 5a 03 00 00       	jmpq   803953 <vprintfmt+0x527>

			// error message
		case 'e':
			err = va_arg(aq, int);
  8035f9:	8b 45 b8             	mov    -0x48(%rbp),%eax
  8035fc:	83 f8 30             	cmp    $0x30,%eax
  8035ff:	73 17                	jae    803618 <vprintfmt+0x1ec>
  803601:	48 8b 55 c8          	mov    -0x38(%rbp),%rdx
  803605:	8b 45 b8             	mov    -0x48(%rbp),%eax
  803608:	89 c0                	mov    %eax,%eax
  80360a:	48 01 d0             	add    %rdx,%rax
  80360d:	8b 55 b8             	mov    -0x48(%rbp),%edx
  803610:	83 c2 08             	add    $0x8,%edx
  803613:	89 55 b8             	mov    %edx,-0x48(%rbp)
  803616:	eb 0f                	jmp    803627 <vprintfmt+0x1fb>
  803618:	48 8b 55 c0          	mov    -0x40(%rbp),%rdx
  80361c:	48 89 d0             	mov    %rdx,%rax
  80361f:	48 83 c2 08          	add    $0x8,%rdx
  803623:	48 89 55 c0          	mov    %rdx,-0x40(%rbp)
  803627:	8b 18                	mov    (%rax),%ebx
			if (err < 0)
  803629:	85 db                	test   %ebx,%ebx
  80362b:	79 02                	jns    80362f <vprintfmt+0x203>
				err = -err;
  80362d:	f7 db                	neg    %ebx
			if (err >= MAXERROR || (p = error_string[err]) == NULL)
  80362f:	83 fb 15             	cmp    $0x15,%ebx
  803632:	7f 16                	jg     80364a <vprintfmt+0x21e>
  803634:	48 b8 20 71 80 00 00 	movabs $0x807120,%rax
  80363b:	00 00 00 
  80363e:	48 63 d3             	movslq %ebx,%rdx
  803641:	4c 8b 24 d0          	mov    (%rax,%rdx,8),%r12
  803645:	4d 85 e4             	test   %r12,%r12
  803648:	75 2e                	jne    803678 <vprintfmt+0x24c>
				printfmt(putch, putdat, "error %d", err);
  80364a:	48 8b 75 a0          	mov    -0x60(%rbp),%rsi
  80364e:	48 8b 45 a8          	mov    -0x58(%rbp),%rax
  803652:	89 d9                	mov    %ebx,%ecx
  803654:	48 ba e1 71 80 00 00 	movabs $0x8071e1,%rdx
  80365b:	00 00 00 
  80365e:	48 89 c7             	mov    %rax,%rdi
  803661:	b8 00 00 00 00       	mov    $0x0,%eax
  803666:	49 b8 63 39 80 00 00 	movabs $0x803963,%r8
  80366d:	00 00 00 
  803670:	41 ff d0             	callq  *%r8
			else
				printfmt(putch, putdat, "%s", p);
			break;
  803673:	e9 db 02 00 00       	jmpq   803953 <vprintfmt+0x527>
			if (err < 0)
				err = -err;
			if (err >= MAXERROR || (p = error_string[err]) == NULL)
				printfmt(putch, putdat, "error %d", err);
			else
				printfmt(putch, putdat, "%s", p);
  803678:	48 8b 75 a0          	mov    -0x60(%rbp),%rsi
  80367c:	48 8b 45 a8          	mov    -0x58(%rbp),%rax
  803680:	4c 89 e1             	mov    %r12,%rcx
  803683:	48 ba ea 71 80 00 00 	movabs $0x8071ea,%rdx
  80368a:	00 00 00 
  80368d:	48 89 c7             	mov    %rax,%rdi
  803690:	b8 00 00 00 00       	mov    $0x0,%eax
  803695:	49 b8 63 39 80 00 00 	movabs $0x803963,%r8
  80369c:	00 00 00 
  80369f:	41 ff d0             	callq  *%r8
			break;
  8036a2:	e9 ac 02 00 00       	jmpq   803953 <vprintfmt+0x527>

			// string
		case 's':
			if ((p = va_arg(aq, char *)) == NULL)
  8036a7:	8b 45 b8             	mov    -0x48(%rbp),%eax
  8036aa:	83 f8 30             	cmp    $0x30,%eax
  8036ad:	73 17                	jae    8036c6 <vprintfmt+0x29a>
  8036af:	48 8b 55 c8          	mov    -0x38(%rbp),%rdx
  8036b3:	8b 45 b8             	mov    -0x48(%rbp),%eax
  8036b6:	89 c0                	mov    %eax,%eax
  8036b8:	48 01 d0             	add    %rdx,%rax
  8036bb:	8b 55 b8             	mov    -0x48(%rbp),%edx
  8036be:	83 c2 08             	add    $0x8,%edx
  8036c1:	89 55 b8             	mov    %edx,-0x48(%rbp)
  8036c4:	eb 0f                	jmp    8036d5 <vprintfmt+0x2a9>
  8036c6:	48 8b 55 c0          	mov    -0x40(%rbp),%rdx
  8036ca:	48 89 d0             	mov    %rdx,%rax
  8036cd:	48 83 c2 08          	add    $0x8,%rdx
  8036d1:	48 89 55 c0          	mov    %rdx,-0x40(%rbp)
  8036d5:	4c 8b 20             	mov    (%rax),%r12
  8036d8:	4d 85 e4             	test   %r12,%r12
  8036db:	75 0a                	jne    8036e7 <vprintfmt+0x2bb>
				p = "(null)";
  8036dd:	49 bc ed 71 80 00 00 	movabs $0x8071ed,%r12
  8036e4:	00 00 00 
			if (width > 0 && padc != '-')
  8036e7:	83 7d dc 00          	cmpl   $0x0,-0x24(%rbp)
  8036eb:	7e 7a                	jle    803767 <vprintfmt+0x33b>
  8036ed:	80 7d d3 2d          	cmpb   $0x2d,-0x2d(%rbp)
  8036f1:	74 74                	je     803767 <vprintfmt+0x33b>
				for (width -= strnlen(p, precision); width > 0; width--)
  8036f3:	8b 45 d8             	mov    -0x28(%rbp),%eax
  8036f6:	48 98                	cltq   
  8036f8:	48 89 c6             	mov    %rax,%rsi
  8036fb:	4c 89 e7             	mov    %r12,%rdi
  8036fe:	48 b8 0e 3c 80 00 00 	movabs $0x803c0e,%rax
  803705:	00 00 00 
  803708:	ff d0                	callq  *%rax
  80370a:	29 45 dc             	sub    %eax,-0x24(%rbp)
  80370d:	eb 17                	jmp    803726 <vprintfmt+0x2fa>
					putch(padc, putdat);
  80370f:	0f be 45 d3          	movsbl -0x2d(%rbp),%eax
  803713:	48 8b 55 a0          	mov    -0x60(%rbp),%rdx
  803717:	48 8b 4d a8          	mov    -0x58(%rbp),%rcx
  80371b:	48 89 d6             	mov    %rdx,%rsi
  80371e:	89 c7                	mov    %eax,%edi
  803720:	ff d1                	callq  *%rcx
			// string
		case 's':
			if ((p = va_arg(aq, char *)) == NULL)
				p = "(null)";
			if (width > 0 && padc != '-')
				for (width -= strnlen(p, precision); width > 0; width--)
  803722:	83 6d dc 01          	subl   $0x1,-0x24(%rbp)
  803726:	83 7d dc 00          	cmpl   $0x0,-0x24(%rbp)
  80372a:	7f e3                	jg     80370f <vprintfmt+0x2e3>
					putch(padc, putdat);
			for (; (ch = *p++) != '\0' && (precision < 0 || --precision >= 0); width--)
  80372c:	eb 39                	jmp    803767 <vprintfmt+0x33b>
				if (altflag && (ch < ' ' || ch > '~'))
  80372e:	83 7d d4 00          	cmpl   $0x0,-0x2c(%rbp)
  803732:	74 1e                	je     803752 <vprintfmt+0x326>
  803734:	83 fb 1f             	cmp    $0x1f,%ebx
  803737:	7e 05                	jle    80373e <vprintfmt+0x312>
  803739:	83 fb 7e             	cmp    $0x7e,%ebx
  80373c:	7e 14                	jle    803752 <vprintfmt+0x326>
					putch('?', putdat);
  80373e:	48 8b 45 a0          	mov    -0x60(%rbp),%rax
  803742:	48 8b 55 a8          	mov    -0x58(%rbp),%rdx
  803746:	48 89 c6             	mov    %rax,%rsi
  803749:	bf 3f 00 00 00       	mov    $0x3f,%edi
  80374e:	ff d2                	callq  *%rdx
  803750:	eb 0f                	jmp    803761 <vprintfmt+0x335>
				else
					putch(ch, putdat);
  803752:	48 8b 45 a0          	mov    -0x60(%rbp),%rax
  803756:	48 8b 55 a8          	mov    -0x58(%rbp),%rdx
  80375a:	48 89 c6             	mov    %rax,%rsi
  80375d:	89 df                	mov    %ebx,%edi
  80375f:	ff d2                	callq  *%rdx
			if ((p = va_arg(aq, char *)) == NULL)
				p = "(null)";
			if (width > 0 && padc != '-')
				for (width -= strnlen(p, precision); width > 0; width--)
					putch(padc, putdat);
			for (; (ch = *p++) != '\0' && (precision < 0 || --precision >= 0); width--)
  803761:	83 6d dc 01          	subl   $0x1,-0x24(%rbp)
  803765:	eb 01                	jmp    803768 <vprintfmt+0x33c>
  803767:	90                   	nop
  803768:	41 0f b6 04 24       	movzbl (%r12),%eax
  80376d:	0f be d8             	movsbl %al,%ebx
  803770:	85 db                	test   %ebx,%ebx
  803772:	0f 95 c0             	setne  %al
  803775:	49 83 c4 01          	add    $0x1,%r12
  803779:	84 c0                	test   %al,%al
  80377b:	74 28                	je     8037a5 <vprintfmt+0x379>
  80377d:	83 7d d8 00          	cmpl   $0x0,-0x28(%rbp)
  803781:	78 ab                	js     80372e <vprintfmt+0x302>
  803783:	83 6d d8 01          	subl   $0x1,-0x28(%rbp)
  803787:	83 7d d8 00          	cmpl   $0x0,-0x28(%rbp)
  80378b:	79 a1                	jns    80372e <vprintfmt+0x302>
				if (altflag && (ch < ' ' || ch > '~'))
					putch('?', putdat);
				else
					putch(ch, putdat);
			for (; width > 0; width--)
  80378d:	eb 16                	jmp    8037a5 <vprintfmt+0x379>
				putch(' ', putdat);
  80378f:	48 8b 45 a0          	mov    -0x60(%rbp),%rax
  803793:	48 8b 55 a8          	mov    -0x58(%rbp),%rdx
  803797:	48 89 c6             	mov    %rax,%rsi
  80379a:	bf 20 00 00 00       	mov    $0x20,%edi
  80379f:	ff d2                	callq  *%rdx
			for (; (ch = *p++) != '\0' && (precision < 0 || --precision >= 0); width--)
				if (altflag && (ch < ' ' || ch > '~'))
					putch('?', putdat);
				else
					putch(ch, putdat);
			for (; width > 0; width--)
  8037a1:	83 6d dc 01          	subl   $0x1,-0x24(%rbp)
  8037a5:	83 7d dc 00          	cmpl   $0x0,-0x24(%rbp)
  8037a9:	7f e4                	jg     80378f <vprintfmt+0x363>
				putch(' ', putdat);
			break;
  8037ab:	e9 a3 01 00 00       	jmpq   803953 <vprintfmt+0x527>

			// (signed) decimal
		case 'd':
			num = getint(&aq, 3);
  8037b0:	48 8d 45 b8          	lea    -0x48(%rbp),%rax
  8037b4:	be 03 00 00 00       	mov    $0x3,%esi
  8037b9:	48 89 c7             	mov    %rax,%rdi
  8037bc:	48 b8 1c 33 80 00 00 	movabs $0x80331c,%rax
  8037c3:	00 00 00 
  8037c6:	ff d0                	callq  *%rax
  8037c8:	48 89 45 e8          	mov    %rax,-0x18(%rbp)
			if ((long long) num < 0) {
  8037cc:	48 8b 45 e8          	mov    -0x18(%rbp),%rax
  8037d0:	48 85 c0             	test   %rax,%rax
  8037d3:	79 1d                	jns    8037f2 <vprintfmt+0x3c6>
				putch('-', putdat);
  8037d5:	48 8b 45 a0          	mov    -0x60(%rbp),%rax
  8037d9:	48 8b 55 a8          	mov    -0x58(%rbp),%rdx
  8037dd:	48 89 c6             	mov    %rax,%rsi
  8037e0:	bf 2d 00 00 00       	mov    $0x2d,%edi
  8037e5:	ff d2                	callq  *%rdx
				num = -(long long) num;
  8037e7:	48 8b 45 e8          	mov    -0x18(%rbp),%rax
  8037eb:	48 f7 d8             	neg    %rax
  8037ee:	48 89 45 e8          	mov    %rax,-0x18(%rbp)
			}
			base = 10;
  8037f2:	c7 45 e4 0a 00 00 00 	movl   $0xa,-0x1c(%rbp)
			goto number;
  8037f9:	e9 e8 00 00 00       	jmpq   8038e6 <vprintfmt+0x4ba>

			// unsigned decimal
		case 'u':
			num = getuint(&aq, 3);
  8037fe:	48 8d 45 b8          	lea    -0x48(%rbp),%rax
  803802:	be 03 00 00 00       	mov    $0x3,%esi
  803807:	48 89 c7             	mov    %rax,%rdi
  80380a:	48 b8 0c 32 80 00 00 	movabs $0x80320c,%rax
  803811:	00 00 00 
  803814:	ff d0                	callq  *%rax
  803816:	48 89 45 e8          	mov    %rax,-0x18(%rbp)
			base = 10;
  80381a:	c7 45 e4 0a 00 00 00 	movl   $0xa,-0x1c(%rbp)
			goto number;
  803821:	e9 c0 00 00 00       	jmpq   8038e6 <vprintfmt+0x4ba>

			// (unsigned) octal
		case 'o':
			// Replace this with your code.
			putch('X', putdat);
  803826:	48 8b 45 a0          	mov    -0x60(%rbp),%rax
  80382a:	48 8b 55 a8          	mov    -0x58(%rbp),%rdx
  80382e:	48 89 c6             	mov    %rax,%rsi
  803831:	bf 58 00 00 00       	mov    $0x58,%edi
  803836:	ff d2                	callq  *%rdx
			putch('X', putdat);
  803838:	48 8b 45 a0          	mov    -0x60(%rbp),%rax
  80383c:	48 8b 55 a8          	mov    -0x58(%rbp),%rdx
  803840:	48 89 c6             	mov    %rax,%rsi
  803843:	bf 58 00 00 00       	mov    $0x58,%edi
  803848:	ff d2                	callq  *%rdx
			putch('X', putdat);
  80384a:	48 8b 45 a0          	mov    -0x60(%rbp),%rax
  80384e:	48 8b 55 a8          	mov    -0x58(%rbp),%rdx
  803852:	48 89 c6             	mov    %rax,%rsi
  803855:	bf 58 00 00 00       	mov    $0x58,%edi
  80385a:	ff d2                	callq  *%rdx
			break;
  80385c:	e9 f2 00 00 00       	jmpq   803953 <vprintfmt+0x527>

			// pointer
		case 'p':
			putch('0', putdat);
  803861:	48 8b 45 a0          	mov    -0x60(%rbp),%rax
  803865:	48 8b 55 a8          	mov    -0x58(%rbp),%rdx
  803869:	48 89 c6             	mov    %rax,%rsi
  80386c:	bf 30 00 00 00       	mov    $0x30,%edi
  803871:	ff d2                	callq  *%rdx
			putch('x', putdat);
  803873:	48 8b 45 a0          	mov    -0x60(%rbp),%rax
  803877:	48 8b 55 a8          	mov    -0x58(%rbp),%rdx
  80387b:	48 89 c6             	mov    %rax,%rsi
  80387e:	bf 78 00 00 00       	mov    $0x78,%edi
  803883:	ff d2                	callq  *%rdx
			num = (unsigned long long)
				(uintptr_t) va_arg(aq, void *);
  803885:	8b 45 b8             	mov    -0x48(%rbp),%eax
  803888:	83 f8 30             	cmp    $0x30,%eax
  80388b:	73 17                	jae    8038a4 <vprintfmt+0x478>
  80388d:	48 8b 55 c8          	mov    -0x38(%rbp),%rdx
  803891:	8b 45 b8             	mov    -0x48(%rbp),%eax
  803894:	89 c0                	mov    %eax,%eax
  803896:	48 01 d0             	add    %rdx,%rax
  803899:	8b 55 b8             	mov    -0x48(%rbp),%edx
  80389c:	83 c2 08             	add    $0x8,%edx
  80389f:	89 55 b8             	mov    %edx,-0x48(%rbp)

			// pointer
		case 'p':
			putch('0', putdat);
			putch('x', putdat);
			num = (unsigned long long)
  8038a2:	eb 0f                	jmp    8038b3 <vprintfmt+0x487>
				(uintptr_t) va_arg(aq, void *);
  8038a4:	48 8b 55 c0          	mov    -0x40(%rbp),%rdx
  8038a8:	48 89 d0             	mov    %rdx,%rax
  8038ab:	48 83 c2 08          	add    $0x8,%rdx
  8038af:	48 89 55 c0          	mov    %rdx,-0x40(%rbp)
  8038b3:	48 8b 00             	mov    (%rax),%rax

			// pointer
		case 'p':
			putch('0', putdat);
			putch('x', putdat);
			num = (unsigned long long)
  8038b6:	48 89 45 e8          	mov    %rax,-0x18(%rbp)
				(uintptr_t) va_arg(aq, void *);
			base = 16;
  8038ba:	c7 45 e4 10 00 00 00 	movl   $0x10,-0x1c(%rbp)
			goto number;
  8038c1:	eb 23                	jmp    8038e6 <vprintfmt+0x4ba>

			// (unsigned) hexadecimal
		case 'x':
			num = getuint(&aq, 3);
  8038c3:	48 8d 45 b8          	lea    -0x48(%rbp),%rax
  8038c7:	be 03 00 00 00       	mov    $0x3,%esi
  8038cc:	48 89 c7             	mov    %rax,%rdi
  8038cf:	48 b8 0c 32 80 00 00 	movabs $0x80320c,%rax
  8038d6:	00 00 00 
  8038d9:	ff d0                	callq  *%rax
  8038db:	48 89 45 e8          	mov    %rax,-0x18(%rbp)
			base = 16;
  8038df:	c7 45 e4 10 00 00 00 	movl   $0x10,-0x1c(%rbp)
		number:
			printnum(putch, putdat, num, base, width, padc);
  8038e6:	44 0f be 45 d3       	movsbl -0x2d(%rbp),%r8d
  8038eb:	8b 4d e4             	mov    -0x1c(%rbp),%ecx
  8038ee:	8b 7d dc             	mov    -0x24(%rbp),%edi
  8038f1:	48 8b 55 e8          	mov    -0x18(%rbp),%rdx
  8038f5:	48 8b 75 a0          	mov    -0x60(%rbp),%rsi
  8038f9:	48 8b 45 a8          	mov    -0x58(%rbp),%rax
  8038fd:	45 89 c1             	mov    %r8d,%r9d
  803900:	41 89 f8             	mov    %edi,%r8d
  803903:	48 89 c7             	mov    %rax,%rdi
  803906:	48 b8 54 31 80 00 00 	movabs $0x803154,%rax
  80390d:	00 00 00 
  803910:	ff d0                	callq  *%rax
			break;
  803912:	eb 3f                	jmp    803953 <vprintfmt+0x527>

			// escaped '%' character
		case '%':
			putch(ch, putdat);
  803914:	48 8b 45 a0          	mov    -0x60(%rbp),%rax
  803918:	48 8b 55 a8          	mov    -0x58(%rbp),%rdx
  80391c:	48 89 c6             	mov    %rax,%rsi
  80391f:	89 df                	mov    %ebx,%edi
  803921:	ff d2                	callq  *%rdx
			break;
  803923:	eb 2e                	jmp    803953 <vprintfmt+0x527>

			// unrecognized escape sequence - just print it literally
		default:
			putch('%', putdat);
  803925:	48 8b 45 a0          	mov    -0x60(%rbp),%rax
  803929:	48 8b 55 a8          	mov    -0x58(%rbp),%rdx
  80392d:	48 89 c6             	mov    %rax,%rsi
  803930:	bf 25 00 00 00       	mov    $0x25,%edi
  803935:	ff d2                	callq  *%rdx
			for (fmt--; fmt[-1] != '%'; fmt--)
  803937:	48 83 6d 98 01       	subq   $0x1,-0x68(%rbp)
  80393c:	eb 05                	jmp    803943 <vprintfmt+0x517>
  80393e:	48 83 6d 98 01       	subq   $0x1,-0x68(%rbp)
  803943:	48 8b 45 98          	mov    -0x68(%rbp),%rax
  803947:	48 83 e8 01          	sub    $0x1,%rax
  80394b:	0f b6 00             	movzbl (%rax),%eax
  80394e:	3c 25                	cmp    $0x25,%al
  803950:	75 ec                	jne    80393e <vprintfmt+0x512>
				/* do nothing */;
			break;
  803952:	90                   	nop
		}
	}
  803953:	90                   	nop
	int base, lflag, width, precision, altflag;
	char padc;
	va_list aq;
	va_copy(aq,ap);
	while (1) {
		while ((ch = *(unsigned char *) fmt++) != '%') {
  803954:	e9 25 fb ff ff       	jmpq   80347e <vprintfmt+0x52>
			if (ch == '\0')
				return;
  803959:	90                   	nop
				/* do nothing */;
			break;
		}
	}
	va_end(aq);
}
  80395a:	48 83 c4 60          	add    $0x60,%rsp
  80395e:	5b                   	pop    %rbx
  80395f:	41 5c                	pop    %r12
  803961:	5d                   	pop    %rbp
  803962:	c3                   	retq   

0000000000803963 <printfmt>:

void
printfmt(void (*putch)(int, void*), void *putdat, const char *fmt, ...)
{
  803963:	55                   	push   %rbp
  803964:	48 89 e5             	mov    %rsp,%rbp
  803967:	48 81 ec f0 00 00 00 	sub    $0xf0,%rsp
  80396e:	48 89 bd 28 ff ff ff 	mov    %rdi,-0xd8(%rbp)
  803975:	48 89 b5 20 ff ff ff 	mov    %rsi,-0xe0(%rbp)
  80397c:	48 89 8d 68 ff ff ff 	mov    %rcx,-0x98(%rbp)
  803983:	4c 89 85 70 ff ff ff 	mov    %r8,-0x90(%rbp)
  80398a:	4c 89 8d 78 ff ff ff 	mov    %r9,-0x88(%rbp)
  803991:	84 c0                	test   %al,%al
  803993:	74 20                	je     8039b5 <printfmt+0x52>
  803995:	0f 29 45 80          	movaps %xmm0,-0x80(%rbp)
  803999:	0f 29 4d 90          	movaps %xmm1,-0x70(%rbp)
  80399d:	0f 29 55 a0          	movaps %xmm2,-0x60(%rbp)
  8039a1:	0f 29 5d b0          	movaps %xmm3,-0x50(%rbp)
  8039a5:	0f 29 65 c0          	movaps %xmm4,-0x40(%rbp)
  8039a9:	0f 29 6d d0          	movaps %xmm5,-0x30(%rbp)
  8039ad:	0f 29 75 e0          	movaps %xmm6,-0x20(%rbp)
  8039b1:	0f 29 7d f0          	movaps %xmm7,-0x10(%rbp)
  8039b5:	48 89 95 18 ff ff ff 	mov    %rdx,-0xe8(%rbp)
	va_list ap;

	va_start(ap, fmt);
  8039bc:	c7 85 38 ff ff ff 18 	movl   $0x18,-0xc8(%rbp)
  8039c3:	00 00 00 
  8039c6:	c7 85 3c ff ff ff 30 	movl   $0x30,-0xc4(%rbp)
  8039cd:	00 00 00 
  8039d0:	48 8d 45 10          	lea    0x10(%rbp),%rax
  8039d4:	48 89 85 40 ff ff ff 	mov    %rax,-0xc0(%rbp)
  8039db:	48 8d 85 50 ff ff ff 	lea    -0xb0(%rbp),%rax
  8039e2:	48 89 85 48 ff ff ff 	mov    %rax,-0xb8(%rbp)
	vprintfmt(putch, putdat, fmt, ap);
  8039e9:	48 8d 8d 38 ff ff ff 	lea    -0xc8(%rbp),%rcx
  8039f0:	48 8b 95 18 ff ff ff 	mov    -0xe8(%rbp),%rdx
  8039f7:	48 8b b5 20 ff ff ff 	mov    -0xe0(%rbp),%rsi
  8039fe:	48 8b 85 28 ff ff ff 	mov    -0xd8(%rbp),%rax
  803a05:	48 89 c7             	mov    %rax,%rdi
  803a08:	48 b8 2c 34 80 00 00 	movabs $0x80342c,%rax
  803a0f:	00 00 00 
  803a12:	ff d0                	callq  *%rax
	va_end(ap);
}
  803a14:	c9                   	leaveq 
  803a15:	c3                   	retq   

0000000000803a16 <sprintputch>:
	int cnt;
};

static void
sprintputch(int ch, struct sprintbuf *b)
{
  803a16:	55                   	push   %rbp
  803a17:	48 89 e5             	mov    %rsp,%rbp
  803a1a:	48 83 ec 10          	sub    $0x10,%rsp
  803a1e:	89 7d fc             	mov    %edi,-0x4(%rbp)
  803a21:	48 89 75 f0          	mov    %rsi,-0x10(%rbp)
	b->cnt++;
  803a25:	48 8b 45 f0          	mov    -0x10(%rbp),%rax
  803a29:	8b 40 10             	mov    0x10(%rax),%eax
  803a2c:	8d 50 01             	lea    0x1(%rax),%edx
  803a2f:	48 8b 45 f0          	mov    -0x10(%rbp),%rax
  803a33:	89 50 10             	mov    %edx,0x10(%rax)
	if (b->buf < b->ebuf)
  803a36:	48 8b 45 f0          	mov    -0x10(%rbp),%rax
  803a3a:	48 8b 10             	mov    (%rax),%rdx
  803a3d:	48 8b 45 f0          	mov    -0x10(%rbp),%rax
  803a41:	48 8b 40 08          	mov    0x8(%rax),%rax
  803a45:	48 39 c2             	cmp    %rax,%rdx
  803a48:	73 17                	jae    803a61 <sprintputch+0x4b>
		*b->buf++ = ch;
  803a4a:	48 8b 45 f0          	mov    -0x10(%rbp),%rax
  803a4e:	48 8b 00             	mov    (%rax),%rax
  803a51:	8b 55 fc             	mov    -0x4(%rbp),%edx
  803a54:	88 10                	mov    %dl,(%rax)
  803a56:	48 8d 50 01          	lea    0x1(%rax),%rdx
  803a5a:	48 8b 45 f0          	mov    -0x10(%rbp),%rax
  803a5e:	48 89 10             	mov    %rdx,(%rax)
}
  803a61:	c9                   	leaveq 
  803a62:	c3                   	retq   

0000000000803a63 <vsnprintf>:

int
vsnprintf(char *buf, int n, const char *fmt, va_list ap)
{
  803a63:	55                   	push   %rbp
  803a64:	48 89 e5             	mov    %rsp,%rbp
  803a67:	48 83 ec 50          	sub    $0x50,%rsp
  803a6b:	48 89 7d c8          	mov    %rdi,-0x38(%rbp)
  803a6f:	89 75 c4             	mov    %esi,-0x3c(%rbp)
  803a72:	48 89 55 b8          	mov    %rdx,-0x48(%rbp)
  803a76:	48 89 4d b0          	mov    %rcx,-0x50(%rbp)
	va_list aq;
	va_copy(aq,ap);
  803a7a:	48 8d 45 e8          	lea    -0x18(%rbp),%rax
  803a7e:	48 8b 55 b0          	mov    -0x50(%rbp),%rdx
  803a82:	48 8b 0a             	mov    (%rdx),%rcx
  803a85:	48 89 08             	mov    %rcx,(%rax)
  803a88:	48 8b 4a 08          	mov    0x8(%rdx),%rcx
  803a8c:	48 89 48 08          	mov    %rcx,0x8(%rax)
  803a90:	48 8b 52 10          	mov    0x10(%rdx),%rdx
  803a94:	48 89 50 10          	mov    %rdx,0x10(%rax)
	struct sprintbuf b = {buf, buf+n-1, 0};
  803a98:	48 8b 45 c8          	mov    -0x38(%rbp),%rax
  803a9c:	48 89 45 d0          	mov    %rax,-0x30(%rbp)
  803aa0:	8b 45 c4             	mov    -0x3c(%rbp),%eax
  803aa3:	48 98                	cltq   
  803aa5:	48 83 e8 01          	sub    $0x1,%rax
  803aa9:	48 03 45 c8          	add    -0x38(%rbp),%rax
  803aad:	48 89 45 d8          	mov    %rax,-0x28(%rbp)
  803ab1:	c7 45 e0 00 00 00 00 	movl   $0x0,-0x20(%rbp)

	if (buf == NULL || n < 1)
  803ab8:	48 83 7d c8 00       	cmpq   $0x0,-0x38(%rbp)
  803abd:	74 06                	je     803ac5 <vsnprintf+0x62>
  803abf:	83 7d c4 00          	cmpl   $0x0,-0x3c(%rbp)
  803ac3:	7f 07                	jg     803acc <vsnprintf+0x69>
		return -E_INVAL;
  803ac5:	b8 fd ff ff ff       	mov    $0xfffffffd,%eax
  803aca:	eb 2f                	jmp    803afb <vsnprintf+0x98>

	// print the string to the buffer
	vprintfmt((void*)sprintputch, &b, fmt, aq);
  803acc:	48 8d 4d e8          	lea    -0x18(%rbp),%rcx
  803ad0:	48 8b 55 b8          	mov    -0x48(%rbp),%rdx
  803ad4:	48 8d 45 d0          	lea    -0x30(%rbp),%rax
  803ad8:	48 89 c6             	mov    %rax,%rsi
  803adb:	48 bf 16 3a 80 00 00 	movabs $0x803a16,%rdi
  803ae2:	00 00 00 
  803ae5:	48 b8 2c 34 80 00 00 	movabs $0x80342c,%rax
  803aec:	00 00 00 
  803aef:	ff d0                	callq  *%rax
	va_end(aq);
	// null terminate the buffer
	*b.buf = '\0';
  803af1:	48 8b 45 d0          	mov    -0x30(%rbp),%rax
  803af5:	c6 00 00             	movb   $0x0,(%rax)

	return b.cnt;
  803af8:	8b 45 e0             	mov    -0x20(%rbp),%eax
}
  803afb:	c9                   	leaveq 
  803afc:	c3                   	retq   

0000000000803afd <snprintf>:

int
snprintf(char *buf, int n, const char *fmt, ...)
{
  803afd:	55                   	push   %rbp
  803afe:	48 89 e5             	mov    %rsp,%rbp
  803b01:	48 81 ec 10 01 00 00 	sub    $0x110,%rsp
  803b08:	48 89 bd 08 ff ff ff 	mov    %rdi,-0xf8(%rbp)
  803b0f:	89 b5 04 ff ff ff    	mov    %esi,-0xfc(%rbp)
  803b15:	48 89 8d 68 ff ff ff 	mov    %rcx,-0x98(%rbp)
  803b1c:	4c 89 85 70 ff ff ff 	mov    %r8,-0x90(%rbp)
  803b23:	4c 89 8d 78 ff ff ff 	mov    %r9,-0x88(%rbp)
  803b2a:	84 c0                	test   %al,%al
  803b2c:	74 20                	je     803b4e <snprintf+0x51>
  803b2e:	0f 29 45 80          	movaps %xmm0,-0x80(%rbp)
  803b32:	0f 29 4d 90          	movaps %xmm1,-0x70(%rbp)
  803b36:	0f 29 55 a0          	movaps %xmm2,-0x60(%rbp)
  803b3a:	0f 29 5d b0          	movaps %xmm3,-0x50(%rbp)
  803b3e:	0f 29 65 c0          	movaps %xmm4,-0x40(%rbp)
  803b42:	0f 29 6d d0          	movaps %xmm5,-0x30(%rbp)
  803b46:	0f 29 75 e0          	movaps %xmm6,-0x20(%rbp)
  803b4a:	0f 29 7d f0          	movaps %xmm7,-0x10(%rbp)
  803b4e:	48 89 95 f8 fe ff ff 	mov    %rdx,-0x108(%rbp)
	va_list ap;
	int rc;
	va_list aq;
	va_start(ap, fmt);
  803b55:	c7 85 30 ff ff ff 18 	movl   $0x18,-0xd0(%rbp)
  803b5c:	00 00 00 
  803b5f:	c7 85 34 ff ff ff 30 	movl   $0x30,-0xcc(%rbp)
  803b66:	00 00 00 
  803b69:	48 8d 45 10          	lea    0x10(%rbp),%rax
  803b6d:	48 89 85 38 ff ff ff 	mov    %rax,-0xc8(%rbp)
  803b74:	48 8d 85 50 ff ff ff 	lea    -0xb0(%rbp),%rax
  803b7b:	48 89 85 40 ff ff ff 	mov    %rax,-0xc0(%rbp)
	va_copy(aq,ap);
  803b82:	48 8d 85 18 ff ff ff 	lea    -0xe8(%rbp),%rax
  803b89:	48 8d 95 30 ff ff ff 	lea    -0xd0(%rbp),%rdx
  803b90:	48 8b 0a             	mov    (%rdx),%rcx
  803b93:	48 89 08             	mov    %rcx,(%rax)
  803b96:	48 8b 4a 08          	mov    0x8(%rdx),%rcx
  803b9a:	48 89 48 08          	mov    %rcx,0x8(%rax)
  803b9e:	48 8b 52 10          	mov    0x10(%rdx),%rdx
  803ba2:	48 89 50 10          	mov    %rdx,0x10(%rax)
	rc = vsnprintf(buf, n, fmt, aq);
  803ba6:	48 8d 8d 18 ff ff ff 	lea    -0xe8(%rbp),%rcx
  803bad:	48 8b 95 f8 fe ff ff 	mov    -0x108(%rbp),%rdx
  803bb4:	8b b5 04 ff ff ff    	mov    -0xfc(%rbp),%esi
  803bba:	48 8b 85 08 ff ff ff 	mov    -0xf8(%rbp),%rax
  803bc1:	48 89 c7             	mov    %rax,%rdi
  803bc4:	48 b8 63 3a 80 00 00 	movabs $0x803a63,%rax
  803bcb:	00 00 00 
  803bce:	ff d0                	callq  *%rax
  803bd0:	89 85 4c ff ff ff    	mov    %eax,-0xb4(%rbp)
	va_end(aq);

	return rc;
  803bd6:	8b 85 4c ff ff ff    	mov    -0xb4(%rbp),%eax
}
  803bdc:	c9                   	leaveq 
  803bdd:	c3                   	retq   
	...

0000000000803be0 <strlen>:
// Primespipe runs 3x faster this way.
#define ASM 1

int
strlen(const char *s)
{
  803be0:	55                   	push   %rbp
  803be1:	48 89 e5             	mov    %rsp,%rbp
  803be4:	48 83 ec 18          	sub    $0x18,%rsp
  803be8:	48 89 7d e8          	mov    %rdi,-0x18(%rbp)
	int n;

	for (n = 0; *s != '\0'; s++)
  803bec:	c7 45 fc 00 00 00 00 	movl   $0x0,-0x4(%rbp)
  803bf3:	eb 09                	jmp    803bfe <strlen+0x1e>
		n++;
  803bf5:	83 45 fc 01          	addl   $0x1,-0x4(%rbp)
int
strlen(const char *s)
{
	int n;

	for (n = 0; *s != '\0'; s++)
  803bf9:	48 83 45 e8 01       	addq   $0x1,-0x18(%rbp)
  803bfe:	48 8b 45 e8          	mov    -0x18(%rbp),%rax
  803c02:	0f b6 00             	movzbl (%rax),%eax
  803c05:	84 c0                	test   %al,%al
  803c07:	75 ec                	jne    803bf5 <strlen+0x15>
		n++;
	return n;
  803c09:	8b 45 fc             	mov    -0x4(%rbp),%eax
}
  803c0c:	c9                   	leaveq 
  803c0d:	c3                   	retq   

0000000000803c0e <strnlen>:

int
strnlen(const char *s, size_t size)
{
  803c0e:	55                   	push   %rbp
  803c0f:	48 89 e5             	mov    %rsp,%rbp
  803c12:	48 83 ec 20          	sub    $0x20,%rsp
  803c16:	48 89 7d e8          	mov    %rdi,-0x18(%rbp)
  803c1a:	48 89 75 e0          	mov    %rsi,-0x20(%rbp)
	int n;

	for (n = 0; size > 0 && *s != '\0'; s++, size--)
  803c1e:	c7 45 fc 00 00 00 00 	movl   $0x0,-0x4(%rbp)
  803c25:	eb 0e                	jmp    803c35 <strnlen+0x27>
		n++;
  803c27:	83 45 fc 01          	addl   $0x1,-0x4(%rbp)
int
strnlen(const char *s, size_t size)
{
	int n;

	for (n = 0; size > 0 && *s != '\0'; s++, size--)
  803c2b:	48 83 45 e8 01       	addq   $0x1,-0x18(%rbp)
  803c30:	48 83 6d e0 01       	subq   $0x1,-0x20(%rbp)
  803c35:	48 83 7d e0 00       	cmpq   $0x0,-0x20(%rbp)
  803c3a:	74 0b                	je     803c47 <strnlen+0x39>
  803c3c:	48 8b 45 e8          	mov    -0x18(%rbp),%rax
  803c40:	0f b6 00             	movzbl (%rax),%eax
  803c43:	84 c0                	test   %al,%al
  803c45:	75 e0                	jne    803c27 <strnlen+0x19>
		n++;
	return n;
  803c47:	8b 45 fc             	mov    -0x4(%rbp),%eax
}
  803c4a:	c9                   	leaveq 
  803c4b:	c3                   	retq   

0000000000803c4c <strcpy>:

char *
strcpy(char *dst, const char *src)
{
  803c4c:	55                   	push   %rbp
  803c4d:	48 89 e5             	mov    %rsp,%rbp
  803c50:	48 83 ec 20          	sub    $0x20,%rsp
  803c54:	48 89 7d e8          	mov    %rdi,-0x18(%rbp)
  803c58:	48 89 75 e0          	mov    %rsi,-0x20(%rbp)
	char *ret;

	ret = dst;
  803c5c:	48 8b 45 e8          	mov    -0x18(%rbp),%rax
  803c60:	48 89 45 f8          	mov    %rax,-0x8(%rbp)
	while ((*dst++ = *src++) != '\0')
  803c64:	90                   	nop
  803c65:	48 8b 45 e0          	mov    -0x20(%rbp),%rax
  803c69:	0f b6 10             	movzbl (%rax),%edx
  803c6c:	48 8b 45 e8          	mov    -0x18(%rbp),%rax
  803c70:	88 10                	mov    %dl,(%rax)
  803c72:	48 8b 45 e8          	mov    -0x18(%rbp),%rax
  803c76:	0f b6 00             	movzbl (%rax),%eax
  803c79:	84 c0                	test   %al,%al
  803c7b:	0f 95 c0             	setne  %al
  803c7e:	48 83 45 e8 01       	addq   $0x1,-0x18(%rbp)
  803c83:	48 83 45 e0 01       	addq   $0x1,-0x20(%rbp)
  803c88:	84 c0                	test   %al,%al
  803c8a:	75 d9                	jne    803c65 <strcpy+0x19>
		/* do nothing */;
	return ret;
  803c8c:	48 8b 45 f8          	mov    -0x8(%rbp),%rax
}
  803c90:	c9                   	leaveq 
  803c91:	c3                   	retq   

0000000000803c92 <strcat>:

char *
strcat(char *dst, const char *src)
{
  803c92:	55                   	push   %rbp
  803c93:	48 89 e5             	mov    %rsp,%rbp
  803c96:	48 83 ec 20          	sub    $0x20,%rsp
  803c9a:	48 89 7d e8          	mov    %rdi,-0x18(%rbp)
  803c9e:	48 89 75 e0          	mov    %rsi,-0x20(%rbp)
	int len = strlen(dst);
  803ca2:	48 8b 45 e8          	mov    -0x18(%rbp),%rax
  803ca6:	48 89 c7             	mov    %rax,%rdi
  803ca9:	48 b8 e0 3b 80 00 00 	movabs $0x803be0,%rax
  803cb0:	00 00 00 
  803cb3:	ff d0                	callq  *%rax
  803cb5:	89 45 fc             	mov    %eax,-0x4(%rbp)
	strcpy(dst + len, src);
  803cb8:	8b 45 fc             	mov    -0x4(%rbp),%eax
  803cbb:	48 98                	cltq   
  803cbd:	48 03 45 e8          	add    -0x18(%rbp),%rax
  803cc1:	48 8b 55 e0          	mov    -0x20(%rbp),%rdx
  803cc5:	48 89 d6             	mov    %rdx,%rsi
  803cc8:	48 89 c7             	mov    %rax,%rdi
  803ccb:	48 b8 4c 3c 80 00 00 	movabs $0x803c4c,%rax
  803cd2:	00 00 00 
  803cd5:	ff d0                	callq  *%rax
	return dst;
  803cd7:	48 8b 45 e8          	mov    -0x18(%rbp),%rax
}
  803cdb:	c9                   	leaveq 
  803cdc:	c3                   	retq   

0000000000803cdd <strncpy>:

char *
strncpy(char *dst, const char *src, size_t size) {
  803cdd:	55                   	push   %rbp
  803cde:	48 89 e5             	mov    %rsp,%rbp
  803ce1:	48 83 ec 28          	sub    $0x28,%rsp
  803ce5:	48 89 7d e8          	mov    %rdi,-0x18(%rbp)
  803ce9:	48 89 75 e0          	mov    %rsi,-0x20(%rbp)
  803ced:	48 89 55 d8          	mov    %rdx,-0x28(%rbp)
	size_t i;
	char *ret;

	ret = dst;
  803cf1:	48 8b 45 e8          	mov    -0x18(%rbp),%rax
  803cf5:	48 89 45 f0          	mov    %rax,-0x10(%rbp)
	for (i = 0; i < size; i++) {
  803cf9:	48 c7 45 f8 00 00 00 	movq   $0x0,-0x8(%rbp)
  803d00:	00 
  803d01:	eb 27                	jmp    803d2a <strncpy+0x4d>
		*dst++ = *src;
  803d03:	48 8b 45 e0          	mov    -0x20(%rbp),%rax
  803d07:	0f b6 10             	movzbl (%rax),%edx
  803d0a:	48 8b 45 e8          	mov    -0x18(%rbp),%rax
  803d0e:	88 10                	mov    %dl,(%rax)
  803d10:	48 83 45 e8 01       	addq   $0x1,-0x18(%rbp)
		// If strlen(src) < size, null-pad 'dst' out to 'size' chars
		if (*src != '\0')
  803d15:	48 8b 45 e0          	mov    -0x20(%rbp),%rax
  803d19:	0f b6 00             	movzbl (%rax),%eax
  803d1c:	84 c0                	test   %al,%al
  803d1e:	74 05                	je     803d25 <strncpy+0x48>
			src++;
  803d20:	48 83 45 e0 01       	addq   $0x1,-0x20(%rbp)
